 main

 Timestamp is 60f484f7 (Sun Jul 18 15:45:59 2021)

 Preferred load address is 0000000140000000

 Start         Length     Name                   Class
 0001:00000000 0006b250H .text$mn                CODE
 0001:0006b250 00001040H .text$mn$00             CODE
 0001:0006c290 00001c58H .text$x                 CODE
 0002:00000000 00000110H .CRT$XCA                DATA
 0002:00000110 00000110H .CRT$XCAA               DATA
 0002:00000220 00000110H .CRT$XCZ                DATA
 0002:00000330 00000110H .CRT$XIA                DATA
 0002:00000440 00000110H .CRT$XIAA               DATA
 0002:00000550 00000110H .CRT$XIAC               DATA
 0002:00000660 00000140H .CRT$XIC                DATA
 0002:000007a0 00000110H .CRT$XIZ                DATA
 0002:000008b0 00000110H .CRT$XPA                DATA
 0002:000009c0 00000120H .CRT$XPX                DATA
 0002:00000ae0 00000110H .CRT$XPXA               DATA
 0002:00000bf0 00000110H .CRT$XPZ                DATA
 0002:00000d00 00000110H .CRT$XTA                DATA
 0002:00000e10 00000110H .CRT$XTZ                DATA
 0002:00000f20 0000d260H .rdata                  DATA
 0002:0000e180 00000110H .rdata$CastGuardVftablesA DATA
 0002:0000e290 00000110H .rdata$CastGuardVftablesC DATA
 0002:0000e3a0 0000060cH .rdata$r                DATA
 0002:0000e9ac 0000015cH .rdata$zzzdbg           DATA
 0002:0000eb08 00000110H .rtc$IAA                DATA
 0002:0000ec18 00000110H .rtc$IZZ                DATA
 0002:0000ed28 00000110H .rtc$TAA                DATA
 0002:0000ee38 00000110H .rtc$TZZ                DATA
 0002:0000ef48 000066a0H .xdata                  DATA
 0002:000155e8 00000196H .xdata$x                DATA
 0002:0001577e 00000000H .edata                  DATA
 0003:00000000 00001170H .data                   DATA
 0003:00001170 00000190H .data$r                 DATA
 0003:00001300 00000230H .data$rs                DATA
 0003:00001530 00002071H .bss                    DATA
 0004:00000000 000050c4H .pdata                  DATA
 0005:00000000 00000388H .idata$5                DATA
 0005:00000388 00000014H .idata$2                DATA
 0005:0000039c 00000014H .idata$3                DATA
 0005:000003b0 00000388H .idata$4                DATA
 0005:00000738 000007e8H .idata$6                DATA
 0006:00000000 00000151H .00cfg                  DATA
 0007:00000000 00000232H _RDATA                  DATA

  Address         Publics by Value              Rva+Base               Lib:Object

 0000:00000000       ___safe_se_handler_count   0000000000000000     <absolute>
 0000:00000000       __guard_eh_cont_table      0000000000000000     <absolute>
 0000:00000000       __arm64x_redirection_metadata_count 0000000000000000     <absolute>
 0000:00000000       __enclave_config           0000000000000000     <absolute>
 0000:00000000       ___safe_se_handler_table   0000000000000000     <absolute>
 0000:00000000       __volatile_metadata        0000000000000000     <absolute>
 0000:00000000       __hybrid_auxiliary_iat_copy 0000000000000000     <absolute>
 0000:00000000       __hybrid_code_map_count    0000000000000000     <absolute>
 0000:00000000       __guard_iat_table          0000000000000000     <absolute>
 0000:00000000       __guard_fids_table         0000000000000000     <absolute>
 0000:00000000       __guard_fids_count         0000000000000000     <absolute>
 0000:00000000       __guard_longjmp_table      0000000000000000     <absolute>
 0000:00000000       __arm64x_extra_rfe_table   0000000000000000     <absolute>
 0000:00000000       __guard_longjmp_count      0000000000000000     <absolute>
 0000:00000000       __hybrid_auxiliary_iat     0000000000000000     <absolute>
 0000:00000000       __arm64x_extra_rfe_table_size 0000000000000000     <absolute>
 0000:00000000       __arm64x_native_entrypoint 0000000000000000     <absolute>
 0000:00000000       __guard_iat_count          0000000000000000     <absolute>
 0000:00000000       __dynamic_value_reloc_table 0000000000000000     <absolute>
 0000:00000000       __arm64x_redirection_metadata 0000000000000000     <absolute>
 0000:00000000       __AbsoluteZero             0000000000000000     <absolute>
 0000:00000000       __hybrid_code_map          0000000000000000     <absolute>
 0000:00000000       __x64_code_ranges_to_entry_points_count 0000000000000000     <absolute>
 0000:00000000       __x64_code_ranges_to_entry_points 0000000000000000     <absolute>
 0000:00000000       __guard_check_icall_a64n_fptr 0000000000000000     <absolute>
 0000:00000000       __guard_eh_cont_count      0000000000000000     <absolute>
 0000:00000100       __guard_flags              0000000000000100     <absolute>
 0000:00000000       __ImageBase                0000000140000000     <linker-defined>
 0001:00006894       _ungetc_nolock             0000000140007894 f   libucrt:ungetc.obj
 0001:000069bc       ungetc                     00000001400079bc f   libucrt:ungetc.obj
 0001:00006a14       _fgetwchar                 0000000140007a14 f   libucrt:fgetwc.obj
 0001:00006a2c       _getwc_nolock              0000000140007a2c f   libucrt:fgetwc.obj
 0001:00006a34       getwc                      0000000140007a34 f   libucrt:fgetwc.obj
 0001:00006a64       ??$getc_nolock@PEAU_iobuf@@@?$__crt_char_traits@D@@SAH$$QEAPEAU_iobuf@@@Z 0000000140007a64 f i libucrt:fgets.obj
 0001:00006a70       __local_stdio_printf_options 0000000140007a70 f i main.obj
 0001:00006aa0       ??$getc_nolock@PEAU_iobuf@@@?$__crt_char_traits@_W@@SAG$$QEAPEAU_iobuf@@@Z 0000000140007aa0 f i libucrt:fgets.obj
 0001:00006aa8       fgets                      0000000140007aa8 f   libucrt:fgets.obj
 0001:00006ab8       fgetws                     0000000140007ab8 f   libucrt:fgets.obj
 0001:00006b04       getwchar                   0000000140007b04 f   libucrt:fgetwc.obj
 0001:00006b8c       __GSHandlerCheck           0000000140007b8c f   LIBCMT:gshandler.obj
 0001:00006bb0       __GSHandlerCheckCommon     0000000140007bb0 f   LIBCMT:gshandler.obj
 0001:00006c40       __security_check_cookie    0000000140007c40 f   LIBCMT:amdsecgs.obj
 0001:00006f1c       fgetwc                     0000000140007f1c f   libucrt:fgetwc.obj
 0001:00006f7c       ?configure_argv@__scrt_narrow_argv_policy@@SAHXZ 0000000140007f7c f i LIBCMT:exe_main.obj
 0001:00006f98       ?initialize_environment@__scrt_narrow_environment_policy@@SAHXZ 0000000140007f98 f i LIBCMT:exe_main.obj
 0001:00006fe4       ?set_app_type@__scrt_main_policy@@SAXXZ 0000000140007fe4 f i LIBCMT:exe_main.obj
 0001:00006ff0       ?set_commode@__scrt_file_policy@@SAXXZ 0000000140007ff0 f i LIBCMT:exe_main.obj
 0001:00007010       ?set_fmode@__scrt_file_policy@@SAXXZ 0000000140008010 f i LIBCMT:exe_main.obj
 0001:0000702c       mainCRTStartup             000000014000802c f   LIBCMT:exe_main.obj
 0001:00007044       __raise_securityfailure    0000000140008044 f   LIBCMT:gs_report.obj
 0001:00007088       __report_gsfailure         0000000140008088 f   LIBCMT:gs_report.obj
 0001:00007160       ShowOptions                0000000140008160 f i main.obj
 0001:00007190       __report_rangecheckfailure 0000000140008190 f   LIBCMT:gs_report.obj
 0001:000071a8       __report_securityfailure   00000001400081a8 f   LIBCMT:gs_report.obj
 0001:0000726c       __report_securityfailureEx 000000014000826c f   LIBCMT:gs_report.obj
 0001:00007570       NtCurrentTeb               0000000140008570 f i LIBCMT:utility.obj
 0001:0000757c       __scrt_acquire_startup_lock 000000014000857c f   LIBCMT:utility.obj
 0001:000075c4       __scrt_dllmain_after_initialize_c 00000001400085c4 f   LIBCMT:utility.obj
 0001:00007608       __scrt_dllmain_before_initialize_c 0000000140008608 f   LIBCMT:utility.obj
 0001:00007624       __scrt_dllmain_crt_thread_attach 0000000140008624 f   LIBCMT:utility.obj
 0001:00007658       __scrt_dllmain_crt_thread_detach 0000000140008658 f   LIBCMT:utility.obj
 0001:00007674       __scrt_dllmain_exception_filter 0000000140008674 f   LIBCMT:utility.obj
 0001:000076ec       __scrt_dllmain_uninitialize_c 00000001400086ec f   LIBCMT:utility.obj
 0001:00007728       __scrt_dllmain_uninitialize_critical 0000000140008728 f   LIBCMT:utility.obj
 0001:00007744       __scrt_initialize_crt      0000000140008744 f   LIBCMT:utility.obj
 0001:000077a0       __scrt_initialize_onexit_tables 00000001400087a0 f   LIBCMT:utility.obj
 0001:00007850       __scrt_is_nonwritable_in_current_image 0000000140008850 f   LIBCMT:utility.obj
 0001:00007910       __scrt_release_startup_lock 0000000140008910 f   LIBCMT:utility.obj
 0001:00007940       __scrt_uninitialize_crt    0000000140008940 f   LIBCMT:utility.obj
 0001:00007974       _onexit                    0000000140008974 f   LIBCMT:utility.obj
 0001:000079bc       at_quick_exit              00000001400089bc f   LIBCMT:utility.obj
 0001:000079e0       atexit                     00000001400089e0 f   LIBCMT:utility.obj
 0001:00007a84       __security_init_cookie     0000000140008a84 f   LIBCMT:gs_support.obj
 0001:00007b5c       _matherr                   0000000140008b5c f   LIBCMT:matherr.obj
 0001:00007b60       _get_startup_argv_mode     0000000140008b60 f   LIBCMT:argv_mode.obj
 0001:00007b68       _get_startup_commit_mode   0000000140008b68 f   LIBCMT:commit_mode.obj
 0001:00007b6c       _get_startup_file_mode     0000000140008b6c f   LIBCMT:file_mode.obj
 0001:00007b74       _get_startup_new_mode      0000000140008b74 f   LIBCMT:new_mode.obj
 0001:00007b78       _get_startup_thread_locale_mode 0000000140008b78 f   LIBCMT:thread_locale.obj
 0001:00007b7c       ?__scrt_initialize_type_info@@YAXXZ 0000000140008b7c f   LIBCMT:tncleanup.obj
 0001:00007b90       ?__scrt_uninitialize_type_info@@YAXXZ 0000000140008b90 f   LIBCMT:tncleanup.obj
 0001:00007ba0       _should_initialize_environment 0000000140008ba0 f   LIBCMT:env_mode.obj
 0001:00007ba4       _initialize_invalid_parameter_handler 0000000140008ba4 f   LIBCMT:invalid_parameter_handler.obj
 0001:00007ba8       _initialize_denormal_control 0000000140008ba8 f   LIBCMT:denormal_control.obj
 0001:00007bac       __local_stdio_scanf_options 0000000140008bac f i LIBCMT:default_local_stdio_options.obj
 0001:00007bb8       __scrt_initialize_default_local_stdio_options 0000000140008bb8 f   LIBCMT:default_local_stdio_options.obj
 0001:00007bdc       __scrt_is_user_matherr_present 0000000140008bdc f   LIBCMT:matherr_detection.obj
 0001:00007bec       __scrt_get_dyn_tls_init_callback 0000000140008bec f   LIBCMT:dyn_tls_init.obj
 0001:00007bf8       __scrt_get_dyn_tls_dtor_callback 0000000140008bf8 f   LIBCMT:dyn_tls_dtor.obj
 0001:00007c04       __crt_debugger_hook        0000000140008c04 f   LIBCMT:utility_desktop.obj
 0001:00007c10       __scrt_fastfail            0000000140008c10 f   LIBCMT:utility_desktop.obj
 0001:00007d60       _vfprintf_l                0000000140008d60 f i main.obj
 0001:00007db0       __scrt_get_show_window_mode 0000000140008db0 f   LIBCMT:utility_desktop.obj
 0001:00007df8       __scrt_initialize_mta      0000000140008df8 f   LIBCMT:utility_desktop.obj
 0001:00007e00       __scrt_initialize_winrt    0000000140008e00 f   LIBCMT:utility_desktop.obj
 0001:00007e04       __scrt_is_managed_app      0000000140008e04 f   LIBCMT:utility_desktop.obj
 0001:00007e6c       __scrt_set_unhandled_exception_filter 0000000140008e6c f   LIBCMT:utility_desktop.obj
 0001:00007e80       __scrt_exe_initialize_mta  0000000140008e80 f   LIBCMT:utility_desktop.obj
 0001:00007e80       __scrt_stub_for_initialize_mta 0000000140008e80 f   LIBCMT:utility_desktop.obj
 0001:00007e84       __scrt_unhandled_exception_filter 0000000140008e84 f   LIBCMT:utility_desktop.obj
 0001:00007ef8       _RTC_Initialize            0000000140008ef8 f   LIBCMT:initsect.obj
 0001:00007f44       _RTC_Terminate             0000000140008f44 f   LIBCMT:initsect.obj
 0001:00007f90       _guard_check_icall_nop     0000000140008f90 f i LIBCMT:guard_support.obj
 0001:00007f94       ReadNoFence64              0000000140008f94 f i LIBCMT:guard_support.obj
 0001:00007f98       ReadPointerNoFence         0000000140008f98 f i LIBCMT:guard_support.obj
 0001:00007f9c       __castguard_check_failure_debugbreak 0000000140008f9c f i LIBCMT:guard_support.obj
 0001:00007fc0       __castguard_check_failure_fastfail 0000000140008fc0 f i LIBCMT:guard_support.obj
 0001:00007fec       __castguard_check_failure_nop 0000000140008fec f i LIBCMT:guard_support.obj
 0001:00007ff0       __castguard_check_failure_os_handled 0000000140008ff0 f i LIBCMT:guard_support.obj
 0001:00008064       __castguard_slow_path_check_debugbreak 0000000140009064 f i LIBCMT:guard_support.obj
 0001:000080a8       __castguard_slow_path_check_fastfail 00000001400090a8 f i LIBCMT:guard_support.obj
 0001:000080f0       __castguard_slow_path_check_nop 00000001400090f0 f i LIBCMT:guard_support.obj
 0001:000080f4       __castguard_slow_path_check_os_handled 00000001400090f4 f i LIBCMT:guard_support.obj
 0001:00008180       _guard_icall_checks_enforced 0000000140009180 f i LIBCMT:guard_support.obj
 0001:0000819c       _guard_rf_checks_enforced  000000014000919c f i LIBCMT:guard_support.obj
 0001:000081a0       __isa_available_init       00000001400091a0 f   LIBCMT:cpu_disp.obj
 0001:00008350       printf                     0000000140009350 f i main.obj
 0001:000083ac       __scrt_is_ucrt_dll_in_use  00000001400093ac f   LIBCMT:ucrt_detection.obj
 0001:000083c0       Sleep                      00000001400093c0 f   kernel32:KERNEL32.dll
 0001:000083c6       RtlCaptureContext          00000001400093c6 f   kernel32:KERNEL32.dll
 0001:000083cc       RtlLookupFunctionEntry     00000001400093cc f   kernel32:KERNEL32.dll
 0001:000083d2       RtlVirtualUnwind           00000001400093d2 f   kernel32:KERNEL32.dll
 0001:000083d8       UnhandledExceptionFilter   00000001400093d8 f   kernel32:KERNEL32.dll
 0001:000083de       SetUnhandledExceptionFilter 00000001400093de f   kernel32:KERNEL32.dll
 0001:000083e4       GetCurrentProcess          00000001400093e4 f   kernel32:KERNEL32.dll
 0001:000083ea       TerminateProcess           00000001400093ea f   kernel32:KERNEL32.dll
 0001:000083f0       IsProcessorFeaturePresent  00000001400093f0 f   kernel32:KERNEL32.dll
 0001:000083f6       QueryPerformanceCounter    00000001400093f6 f   kernel32:KERNEL32.dll
 0001:000083fc       GetCurrentProcessId        00000001400093fc f   kernel32:KERNEL32.dll
 0001:00008402       GetCurrentThreadId         0000000140009402 f   kernel32:KERNEL32.dll
 0001:00008408       GetSystemTimeAsFileTime    0000000140009408 f   kernel32:KERNEL32.dll
 0001:0000840e       InitializeSListHead        000000014000940e f   kernel32:KERNEL32.dll
 0001:00008414       IsDebuggerPresent          0000000140009414 f   kernel32:KERNEL32.dll
 0001:0000841a       GetStartupInfoW            000000014000941a f   kernel32:KERNEL32.dll
 0001:00008420       GetModuleHandleW           0000000140009420 f   kernel32:KERNEL32.dll
 0001:00008428       __C_specific_handler       0000000140009428 f   libvcruntime:riscchandler.obj
 0001:000086b8       __vcrt_initialize          00000001400096b8 f   libvcruntime:initialization.obj
 0001:000086ec       __vcrt_thread_attach       00000001400096ec f   libvcruntime:initialization.obj
 0001:00008708       __vcrt_thread_detach       0000000140009708 f   libvcruntime:initialization.obj
 0001:00008720       __vcrt_uninitialize        0000000140009720 f   libvcruntime:initialization.obj
 0001:00008740       __vcrt_uninitialize_critical 0000000140009740 f   libvcruntime:initialization.obj
 0001:00008768       ??$?RD@__crt_internal_free_policy@@QEBAXQEBD@Z 0000000140009768 f i libvcruntime:std_type_info.obj
 0001:00008774       ??$?RX@__crt_internal_free_policy@@QEBAXQEBX@Z 0000000140009774 f i libvcruntime:std_type_info.obj
 0001:00008780       ??$__crt_interlocked_compare_exchange_pointer@$$CBDPEAD$$T@@YAPEBDPEDSEBDQEAD$$T@Z 0000000140009780 f i libvcruntime:std_type_info.obj
 0001:0000878c       ??$__crt_interlocked_read_pointer@$$CBD@@YAPEBDPEDSEBD@Z 000000014000978c f i libvcruntime:std_type_info.obj
 0001:00008790       ??0?$__crt_unique_heap_ptr@DU__crt_internal_free_policy@@@@QEAA@QEAD@Z 0000000140009790 f i libvcruntime:std_type_info.obj
 0001:00008798       ??0?$__crt_unique_heap_ptr@XU__crt_internal_free_policy@@@@QEAA@QEAX@Z 0000000140009798 f i libvcruntime:std_type_info.obj
 0001:000087a0       ??1?$__crt_unique_heap_ptr@DU__crt_internal_free_policy@@@@QEAA@XZ 00000001400097a0 f i libvcruntime:std_type_info.obj
 0001:000087c4       ??1?$__crt_unique_heap_ptr@XU__crt_internal_free_policy@@@@QEAA@XZ 00000001400097c4 f i libvcruntime:std_type_info.obj
 0001:000087e8       ??B?$__crt_unique_heap_ptr@DU__crt_internal_free_policy@@@@QEBA_NXZ 00000001400097e8 f i libvcruntime:std_type_info.obj
 0001:000087f4       ??B?$__crt_unique_heap_ptr@XU__crt_internal_free_policy@@@@QEBA_NXZ 00000001400097f4 f i libvcruntime:std_type_info.obj
 0001:00008830       ?__crt_interlocked_read_64@@YA_JPED_J@Z 0000000140009830 f i libvcruntime:std_type_info.obj
 0001:00008834       ?detach@?$__crt_unique_heap_ptr@XU__crt_internal_free_policy@@@@QEAAPEAXXZ 0000000140009834 f i libvcruntime:std_type_info.obj
 0001:00008840       ?get@?$__crt_unique_heap_ptr@DU__crt_internal_free_policy@@@@QEBAPEADXZ 0000000140009840 f i libvcruntime:std_type_info.obj
 0001:00008844       ?get@?$__crt_unique_heap_ptr@XU__crt_internal_free_policy@@@@QEBAPEAXXZ 0000000140009844 f i libvcruntime:std_type_info.obj
 0001:00008848       ?is_valid@?$__crt_unique_heap_ptr@DU__crt_internal_free_policy@@@@QEBA_NXZ 0000000140009848 f i libvcruntime:std_type_info.obj
 0001:00008854       ?is_valid@?$__crt_unique_heap_ptr@XU__crt_internal_free_policy@@@@QEBA_NXZ 0000000140009854 f i libvcruntime:std_type_info.obj
 0001:00008860       ?release@?$__crt_unique_heap_ptr@DU__crt_internal_free_policy@@@@QEAAXXZ 0000000140009860 f i libvcruntime:std_type_info.obj
 0001:00008884       ?release@?$__crt_unique_heap_ptr@XU__crt_internal_free_policy@@@@QEAAXXZ 0000000140009884 f i libvcruntime:std_type_info.obj
 0001:000088a8       __std_type_info_compare    00000001400098a8 f   libvcruntime:std_type_info.obj
 0001:000088d8       __std_type_info_destroy_list 00000001400098d8 f   libvcruntime:std_type_info.obj
 0001:0000890c       __std_type_info_hash       000000014000990c f   libvcruntime:std_type_info.obj
 0001:00008954       __std_type_info_name       0000000140009954 f   libvcruntime:std_type_info.obj
 0001:00008ab0       __DestructExceptionObject  0000000140009ab0 f   libvcruntime:ehhelpers.obj
 0001:00008b38       ?_CallMemberFunction0@@YAXQEAX0@Z 0000000140009b38 f i libvcruntime:ehhelpers.obj
 0001:00008bac       ?raw_name@type_info@@QEBAPEBDXZ 0000000140009bac f i libvcruntime:ehhelpers.obj
 0001:00008bb4       _IsExceptionObjectToBeDestroyed 0000000140009bb4 f   libvcruntime:ehhelpers.obj
 0001:00008bf0       _SetWinRTOutOfMemoryExceptionCallback 0000000140009bf0 f   libvcruntime:ehhelpers.obj
 0001:00008bfc       __AdjustPointer            0000000140009bfc f   libvcruntime:ehhelpers.obj
 0001:00008c28       __FrameUnwindFilter        0000000140009c28 f   libvcruntime:ehhelpers.obj
 0001:00008ca8       __GetPlatformExceptionInfo 0000000140009ca8 f   libvcruntime:ehhelpers.obj
 0001:00008d1c       __current_exception        0000000140009d1c f   libvcruntime:ehhelpers.obj
 0001:00008d34       __current_exception_context 0000000140009d34 f   libvcruntime:ehhelpers.obj
 0001:00008d4c       __processing_throw         0000000140009d4c f   libvcruntime:ehhelpers.obj
 0001:00008d64       __std_terminate            0000000140009d64 f   libvcruntime:ehhelpers.obj
 0001:00008d70       _is_exception_typeof       0000000140009d70 f   libvcruntime:ehhelpers.obj
 0001:00008e50       memset_repmovs             0000000140009e50 f   libvcruntime:memset.obj
 0001:00008e70       memset                     0000000140009e70 f   libvcruntime:memset.obj
 0001:00009080       _NLG_Notify                000000014000a080 f   libvcruntime:notify.obj
 0001:000090a0       __NLG_Dispatch2            000000014000a0a0 f   libvcruntime:notify.obj
 0001:000090b0       __NLG_Return2              000000014000a0b0 f   libvcruntime:notify.obj
 0001:000090cc       __except_validate_context_record 000000014000a0cc f   libvcruntime:jbcxrval.obj
 0001:00009110       __except_validate_jump_buffer 000000014000a110 f   libvcruntime:jbcxrval.obj
 0001:00009160       __except_validate_jump_buffer_common 000000014000a160 f i libvcruntime:jbcxrval.obj
 0001:000091d4       ??$?RU__vcrt_ptd@@@__crt_internal_free_policy@@QEBAXQEBU__vcrt_ptd@@@Z 000000014000a1d4 f i libvcruntime:per_thread_data.obj
 0001:000091e0       ??0?$__crt_unique_heap_ptr@U__vcrt_ptd@@U__crt_internal_free_policy@@@@QEAA@QEAU__vcrt_ptd@@@Z 000000014000a1e0 f i libvcruntime:per_thread_data.obj
 0001:00009208       ??1?$__crt_unique_heap_ptr@U__vcrt_ptd@@U__crt_internal_free_policy@@@@QEAA@XZ 000000014000a208 f i libvcruntime:per_thread_data.obj
 0001:00009238       ??B?$__crt_unique_heap_ptr@U__vcrt_ptd@@U__crt_internal_free_policy@@@@QEBA_NXZ 000000014000a238 f i libvcruntime:per_thread_data.obj
 0001:00009244       ?detach@?$__crt_unique_heap_ptr@U__vcrt_ptd@@U__crt_internal_free_policy@@@@QEAAPEAU__vcrt_ptd@@XZ 000000014000a244 f i libvcruntime:per_thread_data.obj
 0001:00009250       ?get@?$__crt_unique_heap_ptr@U__vcrt_ptd@@U__crt_internal_free_policy@@@@QEBAPEAU__vcrt_ptd@@XZ 000000014000a250 f i libvcruntime:per_thread_data.obj
 0001:00009254       ?is_valid@?$__crt_unique_heap_ptr@U__vcrt_ptd@@U__crt_internal_free_policy@@@@QEBA_NXZ 000000014000a254 f i libvcruntime:per_thread_data.obj
 0001:00009260       ?release@?$__crt_unique_heap_ptr@U__vcrt_ptd@@U__crt_internal_free_policy@@@@QEAAXXZ 000000014000a260 f i libvcruntime:per_thread_data.obj
 0001:000092b8       __vcrt_freefls             000000014000a2b8 f   libvcruntime:per_thread_data.obj
 0001:000092e0       __vcrt_freeptd             000000014000a2e0 f   libvcruntime:per_thread_data.obj
 0001:00009340       __vcrt_getptd              000000014000a340 f   libvcruntime:per_thread_data.obj
 0001:00009360       __vcrt_getptd_noexit       000000014000a360 f   libvcruntime:per_thread_data.obj
 0001:00009450       __vcrt_getptd_noinit       000000014000a450 f   libvcruntime:per_thread_data.obj
 0001:000094b0       __vcrt_initialize_ptd      000000014000a4b0 f   libvcruntime:per_thread_data.obj
 0001:00009508       __vcrt_uninitialize_ptd    000000014000a508 f   libvcruntime:per_thread_data.obj
 0001:00009534       __vcrt_initialize_locks    000000014000a534 f   libvcruntime:locks.obj
 0001:00009574       __vcrt_lock                000000014000a574 f   libvcruntime:locks.obj
 0001:00009594       __vcrt_uninitialize_locks  000000014000a594 f   libvcruntime:locks.obj
 0001:000095d8       __vcrt_unlock              000000014000a5d8 f   libvcruntime:locks.obj
 0001:000095f8       ??$?0$00@DName@@QEAA@PEBDU?$StringLifeSelector@$00@@@Z 000000014000a5f8 f i libvcruntime:undname.obj
 0001:00009648       ??$?0$00@pcharNode@@QEAA@PEBDHU?$StringLifeSelector@$00@@@Z 000000014000a648 f i libvcruntime:undname.obj
 0001:00009664       ??$?0$01@DName@@QEAA@PEBDU?$StringLifeSelector@$01@@@Z 000000014000a664 f i libvcruntime:undname.obj
 0001:000096b4       ??$?0$01@pcharNode@@QEAA@PEBDHU?$StringLifeSelector@$01@@@Z 000000014000a6b4 f i libvcruntime:undname.obj
 0001:00009744       ??$?0$0A@@DName@@QEAA@PEBDU?$StringLifeSelector@$0A@@@@Z 000000014000a744 f i libvcruntime:undname.obj
 0001:00009794       ??$?0$0A@@pcharNode@@QEAA@PEBDHU?$StringLifeSelector@$0A@@@@Z 000000014000a794 f i libvcruntime:undname.obj
 0001:00009824       ??$?0_K$0A@@?$optional@_K@std@@QEAA@$$QEA_K@Z 000000014000a824 f i libvcruntime:undname.obj
 0001:00009838       ??$?0_K@?$_Optional_construct_base@_K@std@@QEAA@Uin_place_t@1@$$QEA_K@Z 000000014000a838 f i libvcruntime:undname.obj
 0001:0000984c       ??$?0_K@?$_Optional_destruct_base@_K$00@std@@QEAA@Uin_place_t@1@$$QEA_K@Z 000000014000a84c f i libvcruntime:undname.obj
 0001:00009860       ??$append@VDNameNode@@@DName@@AEAAXPEBVDNameNode@@@Z 000000014000a860 f i libvcruntime:undname.obj
 0001:000098dc       ??$append@VDNameStatusNode@@@DName@@AEAAXPEBVDNameStatusNode@@@Z 000000014000a8dc f i libvcruntime:undname.obj
 0001:00009958       ??$append@VcharNode@@@DName@@AEAAXPEBVcharNode@@@Z 000000014000a958 f i libvcruntime:undname.obj
 0001:000099d4       ??$append@VpDNameNode@@@DName@@AEAAXPEBVpDNameNode@@@Z 000000014000a9d4 f i libvcruntime:undname.obj
 0001:00009a50       ??$append@VpcharNode@@@DName@@AEAAXPEBVpcharNode@@@Z 000000014000aa50 f i libvcruntime:undname.obj
 0001:00009acc       ??$doPchar@$00@DName@@AEAAXPEBDH@Z 000000014000aacc f i libvcruntime:undname.obj
 0001:00009b98       ??$doPchar@$01@DName@@AEAAXPEBDH@Z 000000014000ab98 f i libvcruntime:undname.obj
 0001:00009c54       ??$doPchar@$0A@@DName@@AEAAXPEBDH@Z 000000014000ac54 f i libvcruntime:undname.obj
 0001:00009d10       ??$forward@_K@std@@YA$$QEA_KAEA_K@Z 000000014000ad10 f i libvcruntime:undname.obj
 0001:00009d14       ??$size@D$04@std@@YA_KAEAY04$$CBD@Z 000000014000ad14 f i libvcruntime:undname.obj
 0001:00009d1c       ??$size@D$0EB@@std@@YA_KAEAY0EB@$$CBD@Z 000000014000ad1c f i libvcruntime:undname.obj
 0001:00009d24       ??0?$_Optional_construct_base@_K@std@@QEAA@XZ 000000014000ad24 f i libvcruntime:undname.obj
 0001:00009d30       ??0?$_Optional_destruct_base@_K$00@std@@QEAA@XZ 000000014000ad30 f i libvcruntime:undname.obj
 0001:00009d3c       ??0?$optional@_K@std@@QEAA@XZ 000000014000ad3c f i libvcruntime:undname.obj
 0001:00009d48       ??0Block@_HeapManager@@QEAA@XZ 000000014000ad48 f i libvcruntime:undname.obj
 0001:00009d54       ??0DName@@QEAA@AEAPEBDD@Z  000000014000ad54 f   libvcruntime:undname.obj
 0001:00009e30       ??0DName@@QEAA@AEBUStringLiteral@@@Z 000000014000ae30 f   libvcruntime:undname.obj
 0001:00009e68       ??0DName@@QEAA@AEBV0@@Z    000000014000ae68 f i libvcruntime:undname.obj
 0001:00009e7c       ??0DName@@QEAA@D@Z         000000014000ae7c f   libvcruntime:undname.obj
 0001:00009ea4       ??0DName@@QEAA@PEAV0@@Z    000000014000aea4 f   libvcruntime:undname.obj
 0001:00009f48       ??0DName@@QEAA@W4DNameStatus@@@Z 000000014000af48 f   libvcruntime:undname.obj
 0001:00009f80       ??0DName@@QEAA@XZ          000000014000af80 f i libvcruntime:undname.obj
 0001:00009f90       ??0DName@@QEAA@_J@Z        000000014000af90 f   libvcruntime:undname.obj
 0001:0000a060       ??0DName@@QEAA@_K@Z        000000014000b060 f   libvcruntime:undname.obj
 0001:0000a10c       ??0DNameNode@@IEAA@XZ      000000014000b10c f i libvcruntime:undname.obj
 0001:0000a120       ??0Replicator@@QEAA@XZ     000000014000b120 f i libvcruntime:undname.obj
 0001:0000a134       ??0UnDecorator@@QEAA@PEBDP6APEADJ@ZK@Z 000000014000b134 f i libvcruntime:undname.obj
 0001:0000a198       ??0_Nontrivial_dummy_type@std@@QEAA@XZ 000000014000b198 f i libvcruntime:undname.obj
 0001:0000a19c       ??0charNode@@QEAA@D@Z      000000014000b19c f i libvcruntime:undname.obj
 0001:0000a1b4       ??0pDNameNode@@QEAA@PEAVDName@@@Z 000000014000b1b4 f   libvcruntime:undname.obj
 0001:0000a1e4       ??0pairNode@@QEAA@PEBVDNameNode@@0@Z 000000014000b1e4 f i libvcruntime:undname.obj
 0001:0000a20c       ??2@YAPEAX_KAEAV_HeapManager@@H@Z 000000014000b20c f   libvcruntime:undname.obj
 0001:0000a240       ??4DName@@QEAAAEAV0@AEBUStringLiteral@@@Z 000000014000b240 f   libvcruntime:undname.obj
 0001:0000a270       ??4DName@@QEAAAEAV0@AEBV0@@Z 000000014000b270 f   libvcruntime:undname.obj
 0001:0000a284       ??4DName@@QEAAAEAV0@D@Z    000000014000b284 f i libvcruntime:undname.obj
 0001:0000a2ac       ??4DName@@QEAAAEAV0@PEAV0@@Z 000000014000b2ac f   libvcruntime:undname.obj
 0001:0000a340       ??4DName@@QEAAAEAV0@W4DNameStatus@@@Z 000000014000b340 f   libvcruntime:undname.obj
 0001:0000a368       ??AReplicator@@QEBA?AVDName@@H@Z 000000014000b368 f   libvcruntime:undname.obj
 0001:0000a3b8       ??B?$optional@_K@std@@QEBA_NXZ 000000014000b3b8 f i libvcruntime:undname.obj
 0001:0000a3bc       ??D?$optional@_K@std@@QEGAAAEA_KXZ 000000014000b3bc f i libvcruntime:undname.obj
 0001:0000a3c0       ??H@YA?AVDName@@AEBUStringLiteral@@AEBV0@@Z 000000014000b3c0 f i libvcruntime:undname.obj
 0001:0000a404       ??H@YA?AVDName@@DAEBV0@@Z  000000014000b404 f i libvcruntime:undname.obj
 0001:0000a458       ??H@YA?AVDName@@W4DNameStatus@@AEBV0@@Z 000000014000b458 f i libvcruntime:undname.obj
 0001:0000a4b4       ??HDName@@QEBA?AV0@AEBUStringLiteral@@@Z 000000014000b4b4 f   libvcruntime:undname.obj
 0001:0000a4e8       ??HDName@@QEBA?AV0@AEBV0@@Z 000000014000b4e8 f   libvcruntime:undname.obj
 0001:0000a51c       ??HDName@@QEBA?AV0@D@Z     000000014000b51c f   libvcruntime:undname.obj
 0001:0000a550       ??HDName@@QEBA?AV0@PEAV0@@Z 000000014000b550 f   libvcruntime:undname.obj
 0001:0000a584       ??HDName@@QEBA?AV0@W4DNameStatus@@@Z 000000014000b584 f   libvcruntime:undname.obj
 0001:0000a5b8       ??HStringLiteral@@QEBA?AU0@H@Z 000000014000b5b8 f i libvcruntime:undname.obj
 0001:0000a5d4       ??YDName@@QEAAAEAV0@AEBUStringLiteral@@@Z 000000014000b5d4 f   libvcruntime:undname.obj
 0001:0000a674       ??YDName@@QEAAAEAV0@AEBV0@@Z 000000014000b674 f   libvcruntime:undname.obj
 0001:0000a754       ??YDName@@QEAAAEAV0@D@Z    000000014000b754 f   libvcruntime:undname.obj
 0001:0000a7dc       ??YDName@@QEAAAEAV0@PEAV0@@Z 000000014000b7dc f   libvcruntime:undname.obj
 0001:0000a894       ??YDName@@QEAAAEAV0@W4DNameStatus@@@Z 000000014000b894 f   libvcruntime:undname.obj
 0001:0000a91c       ??YReplicator@@QEAAAEAV0@AEBVDName@@@Z 000000014000b91c f   libvcruntime:undname.obj
 0001:0000a98c       ??_5DName@@QEAAAEAV0@AEBV0@@Z 000000014000b98c f   libvcruntime:undname.obj
 0001:0000a9a8       ??__K_l@@YA?AUStringLiteral@@PEBD_K@Z 000000014000b9a8 f i libvcruntime:undname.obj
 0001:0000a9b8       ?Constructor@_HeapManager@@QEAAXP6APEAX_K@ZP6AXPEAX@Z@Z 000000014000b9b8 f i libvcruntime:undname.obj
 0001:0000a9d4       ?Destructor@_HeapManager@@QEAAXXZ 000000014000b9d4 f i libvcruntime:undname.obj
 0001:0000aa3c       ?UScore@UnDecorator@@SA?AUStringLiteral@@W4Tokens@@@Z 000000014000ba3c f   libvcruntime:undname.obj
 0001:0000aa9c       ?composeDeclaration@UnDecorator@@CA?AVDName@@AEBV2@@Z 000000014000ba9c f i libvcruntime:undname.obj
 0001:0000b944       _fgetwc_nolock             000000014000c944 f   libucrt:fgetwc.obj
 0001:0000bcec       ?doAccessSpecifiers@UnDecorator@@SAHXZ 000000014000ccec f i libvcruntime:undname.obj
 0001:0000bd00       ?doAllocationLanguage@UnDecorator@@SAHXZ 000000014000cd00 f i libvcruntime:undname.obj
 0001:0000bd14       ?doAllocationModel@UnDecorator@@SAHXZ 000000014000cd14 f i libvcruntime:undname.obj
 0001:0000bd28       ?doEcsu@UnDecorator@@SAHXZ 000000014000cd28 f i libvcruntime:undname.obj
 0001:0000bd3c       ?doEllipsis@UnDecorator@@SAHXZ 000000014000cd3c f i libvcruntime:undname.obj
 0001:0000bd50       ?doFunctionReturns@UnDecorator@@SAHXZ 000000014000cd50 f i libvcruntime:undname.obj
 0001:0000bd64       ?doMSKeywords@UnDecorator@@SAHXZ 000000014000cd64 f i libvcruntime:undname.obj
 0001:0000bd78       ?doMemberTypes@UnDecorator@@SAHXZ 000000014000cd78 f i libvcruntime:undname.obj
 0001:0000bd8c       ?doNameOnly@UnDecorator@@SAHXZ 000000014000cd8c f i libvcruntime:undname.obj
 0001:0000bd9c       ?doNoIdentCharCheck@UnDecorator@@SAHXZ 000000014000cd9c f i libvcruntime:undname.obj
 0001:0000bdac       ?doPchar@DName@@AEAAXD@Z   000000014000cdac f   libvcruntime:undname.obj
 0001:0000be10       ?doPtr64@UnDecorator@@SAHXZ 000000014000ce10 f i libvcruntime:undname.obj
 0001:0000be24       ?doRestrictionSpec@UnDecorator@@SAHXZ 000000014000ce24 f i libvcruntime:undname.obj
 0001:0000be38       ?doThisTypes@UnDecorator@@SAHXZ 000000014000ce38 f i libvcruntime:undname.obj
 0001:0000be50       ?doThrowTypes@UnDecorator@@SAHXZ 000000014000ce50 f i libvcruntime:undname.obj
 0001:0000be64       ?doTypeOnly@UnDecorator@@SAHXZ 000000014000ce64 f i libvcruntime:undname.obj
 0001:0000be74       ?doUnderScore@UnDecorator@@SAHXZ 000000014000ce74 f i libvcruntime:undname.obj
 0001:0000be84       ?getAddressOf@UnDecorator@@CA?AVDName@@XZ 000000014000ce84 f   libvcruntime:undname.obj
 0001:0000bf38       ?getArgumentList@UnDecorator@@CA?AVDName@@XZ 000000014000cf38 f   libvcruntime:undname.obj
 0001:0000c130       ?getArgumentTypes@UnDecorator@@CA?AVDName@@XZ 000000014000d130 f   libvcruntime:undname.obj
 0001:0000c2e4       ?getArrayObject@UnDecorator@@CA?AVDName@@XZ 000000014000d2e4 f   libvcruntime:undname.obj
 0001:0000c3dc       ?getArrayType@UnDecorator@@CA?AVDName@@AEBV2@@Z 000000014000d3dc f i libvcruntime:undname.obj
 0001:0000c6b4       ?getBasedType@UnDecorator@@CA?AVDName@@XZ 000000014000d6b4 f   libvcruntime:undname.obj
 0001:0000c7e8       ?getBasicDataType@UnDecorator@@CA?AVDName@@AEBV2@@Z 000000014000d7e8 f   libvcruntime:undname.obj
 0001:0000cebc       ?getCHPEName@UnDecorator@@QEAAPEADPEADH@Z 000000014000debc f i libvcruntime:undname.obj
 0001:0000d020       ?getCallIndex@UnDecorator@@CA?AVDName@@XZ 000000014000e020 f i libvcruntime:undname.obj
 0001:0000d040       ?getCallingConvention@UnDecorator@@CA?AVDName@@XZ 000000014000e040 f   libvcruntime:undname.obj
 0001:0000d1d0       ?getDataIndirectType@UnDecorator@@CA?AVDName@@AEBV2@W4IndirectionKind@@0H@Z 000000014000e1d0 f   libvcruntime:undname.obj
 0001:0000dc8c       ?getDataIndirectType@UnDecorator@@CA?AVDName@@XZ 000000014000ec8c f i libvcruntime:undname.obj
 0001:0000dcd4       ?getDataType@UnDecorator@@CA?AVDName@@PEAV2@@Z 000000014000ecd4 f   libvcruntime:undname.obj
 0001:0000de2c       ?getDecoratedName@UnDecorator@@CA?AVDName@@XZ 000000014000ee2c f   libvcruntime:undname.obj
 0001:0000e1cc       ?getDimension@UnDecorator@@CA?AVDName@@_N@Z 000000014000f1cc f   libvcruntime:undname.obj
 0001:0000e368       ?getDispatchTarget@UnDecorator@@CA?AVDName@@XZ 000000014000f368 f   libvcruntime:undname.obj
 0001:0000e3c8       ?getDisplacement@UnDecorator@@CA?AVDName@@XZ 000000014000f3c8 f i libvcruntime:undname.obj
 0001:0000e3e8       ?getECSUDataType@UnDecorator@@CA?AVDName@@XZ 000000014000f3e8 f   libvcruntime:undname.obj
 0001:0000e640       ?getECSUName@UnDecorator@@CA?AVDName@@XZ 000000014000f640 f i libvcruntime:undname.obj
 0001:0000e65c       ?getEnumType@UnDecorator@@CA?AVDName@@XZ 000000014000f65c f i libvcruntime:undname.obj
 0001:0000e7d8       ?getExtendedDataIndirectType@UnDecorator@@CA?AVDName@@AEAW4IndirectionKind@@AEA_NH@Z 000000014000f7d8 f   libvcruntime:undname.obj
 0001:0000ea60       ?getExternalDataType@UnDecorator@@CA?AVDName@@AEBV2@@Z 000000014000fa60 f i libvcruntime:undname.obj
 0001:0000eb50       ?getFloatingPoint@UnDecorator@@CA?AVDName@@H@Z 000000014000fb50 f   libvcruntime:undname.obj
 0001:0000ecc0       ?getFunctionIndirectType@UnDecorator@@CA?AVDName@@AEBV2@@Z 000000014000fcc0 f   libvcruntime:undname.obj
 0001:0000f344       ?getGuardNumber@UnDecorator@@CA?AVDName@@XZ 0000000140010344 f i libvcruntime:undname.obj
 0001:0000f364       ?getLastChar@DName@@QEBADXZ 0000000140010364 f i libvcruntime:undname.obj
 0001:0000f384       ?getLastChar@DNameStatusNode@@UEBADXZ 0000000140010384 f i libvcruntime:undname.obj
 0001:0000f394       ?getLastChar@charNode@@UEBADXZ 0000000140010394 f i libvcruntime:undname.obj
 0001:0000f398       ?getLastChar@pDNameNode@@UEBADXZ 0000000140010398 f i libvcruntime:undname.obj
 0001:0000f3cc       ?getLastChar@pairNode@@UEBADXZ 00000001400103cc f i libvcruntime:undname.obj
 0001:0000f410       ?getLastChar@pcharNode@@UEBADXZ 0000000140010410 f i libvcruntime:undname.obj
 0001:0000f42c       ?getLexicalFrame@UnDecorator@@CA?AVDName@@XZ 000000014001042c f i libvcruntime:undname.obj
 0001:0000f4a8       ?getMemberAccess@UnDecorator@@CA?AVDName@@XZ 00000001400104a8 f   libvcruntime:undname.obj
 0001:0000f560       ?getMemoryWithBuffer@_HeapManager@@QEAAPEAX_K@Z 0000000140010560 f   libvcruntime:undname.obj
 0001:0000f614       ?getMemoryWithoutBuffer@_HeapManager@@QEAAPEAX_K@Z 0000000140010614 f   libvcruntime:undname.obj
 0001:0000f62c       ?getNoexcept@UnDecorator@@CA?AVDName@@XZ 000000014001062c f   libvcruntime:undname.obj
 0001:0000f6a8       ?getNumberOfDimensions@UnDecorator@@CAHXZ 00000001400106a8 f   libvcruntime:undname.obj
 0001:0000f738       ?getOperatorName@UnDecorator@@CA?AVDName@@_NPEA_N@Z 0000000140010738 f i libvcruntime:undname.obj
 0001:000103a8       ?getPointerToMember@UnDecorator@@CA?AVDName@@XZ 00000001400113a8 f   libvcruntime:undname.obj
 0001:000104dc       ?getPointerType@UnDecorator@@CA?AVDName@@AEBV2@0@Z 00000001400114dc f i libvcruntime:undname.obj
 0001:00010500       ?getPointerTypeArray@UnDecorator@@CA?AVDName@@AEBV2@0@Z 0000000140011500 f i libvcruntime:undname.obj
 0001:00010520       ?getPrimaryDataType@UnDecorator@@CA?AVDName@@AEBV2@@Z 0000000140011520 f   libvcruntime:undname.obj
 0001:00010880       ?getPtrRefDataType@UnDecorator@@CA?AVDName@@AEBV2@H@Z 0000000140011880 f   libvcruntime:undname.obj
 0001:00010ac0       ?getPtrRefType@UnDecorator@@CA?AVDName@@AEBV2@0W4IndirectionKind@@@Z 0000000140011ac0 f   libvcruntime:undname.obj
 0001:00010d0c       ?getReferenceType@UnDecorator@@CA?AVDName@@AEBV2@0W4IndirectionKind@@@Z 0000000140011d0c f i libvcruntime:undname.obj
 0001:00010d28       ?getRestrictionSpec@UnDecorator@@CA?AVDName@@XZ 0000000140011d28 f   libvcruntime:undname.obj
 0001:00010f68       ?getReturnType@UnDecorator@@CA?AVDName@@PEAV2@@Z 0000000140011f68 f   libvcruntime:undname.obj
 0001:00010fac       ?getScope@UnDecorator@@CA?AVDName@@XZ 0000000140011fac f   libvcruntime:undname.obj
 0001:0001158c       ?getScopedName@UnDecorator@@CA?AVDName@@XZ 000000014001258c f   libvcruntime:undname.obj
 0001:00011714       ?getSignedDimension@UnDecorator@@CA?AVDName@@XZ 0000000140012714 f   libvcruntime:undname.obj
 0001:000117bc       ?getStorageConvention@UnDecorator@@CA?AVDName@@XZ 00000001400127bc f i libvcruntime:undname.obj
 0001:00011804       ?getString@DName@@QEBAPEADPEAD0@Z 0000000140012804 f i libvcruntime:undname.obj
 0001:00011824       ?getString@DName@@QEBAPEADPEADH@Z 0000000140012824 f i libvcruntime:undname.obj
 0001:000118dc       ?getString@DNameStatusNode@@UEBAPEADPEAD0@Z 00000001400128dc f i libvcruntime:undname.obj
 0001:00011934       ?getString@charNode@@UEBAPEADPEAD0@Z 0000000140012934 f i libvcruntime:undname.obj
 0001:0001194c       ?getString@pDNameNode@@UEBAPEADPEAD0@Z 000000014001294c f i libvcruntime:undname.obj
 0001:00011984       ?getString@pairNode@@UEBAPEADPEAD0@Z 0000000140012984 f i libvcruntime:undname.obj
 0001:000119e4       ?getString@pcharNode@@UEBAPEADPEAD0@Z 00000001400129e4 f i libvcruntime:undname.obj
 0001:00011a28       ?getStringEncoding@UnDecorator@@CA?AVDName@@W4PrefixKind@@H@Z 0000000140012a28 f   libvcruntime:undname.obj
 0001:00011b44       ?getStringHelper@@YAPEADPEADPEBD1H@Z 0000000140012b44 f i libvcruntime:undname.obj
 0001:00011b7c       ?getStringObject@UnDecorator@@CA?AVDName@@XZ 0000000140012b7c f   libvcruntime:undname.obj
 0001:00011c00       ?getSymbolName@UnDecorator@@CA?AVDName@@XZ 0000000140012c00 f i libvcruntime:undname.obj
 0001:00011c60       ?getTemplateArgumentList@UnDecorator@@CA?AVDName@@XZ 0000000140012c60 f   libvcruntime:undname.obj
 0001:00011f70       ?getTemplateName@UnDecorator@@CA?AVDName@@_N@Z 0000000140012f70 f   libvcruntime:undname.obj
 0001:000122a8       ?getTemplateNonTypeArgument@UnDecorator@@CA?AVDName@@XZ 00000001400132a8 f   libvcruntime:undname.obj
 0001:000128f4       ?getTemplateTypeArgument@UnDecorator@@CA?AVDName@@XZ 00000001400138f4 f   libvcruntime:undname.obj
 0001:00012ab4       ?getThisType@UnDecorator@@CA?AVDName@@XZ 0000000140013ab4 f i libvcruntime:undname.obj
 0001:00012b04       ?getThrowTypes@UnDecorator@@CA?AVDName@@XZ 0000000140013b04 f   libvcruntime:undname.obj
 0001:00012b30       ?getTypeEncoding@UnDecorator@@CAHXZ 0000000140013b30 f i libvcruntime:undname.obj
 0001:00012fa4       ?getUndecoratedName@UnDecorator@@QEAAPEADPEADH@Z 0000000140013fa4 f i libvcruntime:undname.obj
 0001:0001314c       ?getUnionObject@UnDecorator@@CA?AVDName@@XZ 000000014001414c f   libvcruntime:undname.obj
 0001:00013258       ?getVCallThunkType@UnDecorator@@CA?AVDName@@XZ 0000000140014258 f i libvcruntime:undname.obj
 0001:000132ec       ?getValue@UnDecorator@@CA?AV?$optional@_K@std@@XZ 00000001400142ec f   libvcruntime:undname.obj
 0001:0001337c       ?getValueObject@UnDecorator@@CA?AVDName@@XZ 000000014001437c f   libvcruntime:undname.obj
 0001:00013528       ?getVbTableType@UnDecorator@@CA?AVDName@@AEBV2@@Z 0000000140014528 f i libvcruntime:undname.obj
 0001:00013544       ?getVdispMapType@UnDecorator@@CA?AVDName@@AEBV2@@Z 0000000140014544 f i libvcruntime:undname.obj
 0001:000135e0       ?getVfTableType@UnDecorator@@CA?AVDName@@AEBV2@@Z 00000001400145e0 f i libvcruntime:undname.obj
 0001:00013868       ?getZName@UnDecorator@@CA?AVDName@@_N0@Z 0000000140014868 f   libvcruntime:undname.obj
 0001:00013c08       ?haveTemplateParameters@UnDecorator@@SAHXZ 0000000140014c08 f i libvcruntime:undname.obj
 0001:00013c18       ?isArray@DName@@QEBAHXZ    0000000140014c18 f i libvcruntime:undname.obj
 0001:00013c24       ?isComArray@DName@@QEBAHXZ 0000000140014c24 f i libvcruntime:undname.obj
 0001:00013c30       ?isEmpty@DName@@QEBAHXZ    0000000140014c30 f i libvcruntime:undname.obj
 0001:00013c3c       ?isFull@Replicator@@QEBAHXZ 0000000140014c3c f i libvcruntime:undname.obj
 0001:00013c48       ?isNoTE@DName@@QEBAHXZ     0000000140014c48 f i libvcruntime:undname.obj
 0001:00013c54       ?isPinPtr@DName@@QEBAHXZ   0000000140014c54 f i libvcruntime:undname.obj
 0001:00013c60       ?isPtrRef@DName@@QEBAHXZ   0000000140014c60 f i libvcruntime:undname.obj
 0001:00013c6c       ?isUDC@DName@@QEBAHXZ      0000000140014c6c f i libvcruntime:undname.obj
 0001:00013c88       ?isUDTThunk@DName@@QEBAHXZ 0000000140014c88 f i libvcruntime:undname.obj
 0001:00013ca4       ?isVCallThunk@DName@@QEBAHXZ 0000000140014ca4 f i libvcruntime:undname.obj
 0001:00013cb0       ?isValid@DName@@QEBAHXZ    0000000140014cb0 f i libvcruntime:undname.obj
 0001:00013cbc       ?length@DName@@QEBAHXZ     0000000140014cbc f i libvcruntime:undname.obj
 0001:00013cdc       ?length@DNameStatusNode@@UEBAHXZ 0000000140014cdc f i libvcruntime:undname.obj
 0001:00013ce0       ?length@charNode@@UEBAHXZ  0000000140014ce0 f i libvcruntime:undname.obj
 0001:00013ce8       ?length@pDNameNode@@UEBAHXZ 0000000140014ce8 f i libvcruntime:undname.obj
 0001:00013d1c       ?length@pairNode@@UEBAHXZ  0000000140014d1c f i libvcruntime:undname.obj
 0001:00013d74       ?length@pcharNode@@UEBAHXZ 0000000140014d74 f i libvcruntime:undname.obj
 0001:00013d78       ?make@DNameStatusNode@@SAPEBV1@W4DNameStatus@@@Z 0000000140014d78 f i libvcruntime:undname.obj
 0001:00013da0       ?parseDecoratedName@UnDecorator@@CA?AVDName@@XZ 0000000140014da0 f   libvcruntime:undname.obj
 0001:00013ef8       ?raw_length@DNameStatusNode@@UEBAHXZ 0000000140014ef8 f i libvcruntime:undname.obj
 0001:00013efc       ?raw_length@charNode@@UEBAHXZ 0000000140014efc f i libvcruntime:undname.obj
 0001:00013f04       ?raw_length@pDNameNode@@UEBAHXZ 0000000140014f04 f i libvcruntime:undname.obj
 0001:00013f08       ?raw_length@pairNode@@UEBAHXZ 0000000140014f08 f i libvcruntime:undname.obj
 0001:00013f0c       ?raw_length@pcharNode@@UEBAHXZ 0000000140014f0c f i libvcruntime:undname.obj
 0001:00013f10       ?setIsArray@DName@@QEAAXXZ 0000000140014f10 f i libvcruntime:undname.obj
 0001:00013f18       ?setIsComArray@DName@@QEAAXXZ 0000000140014f18 f i libvcruntime:undname.obj
 0001:00013f20       ?setIsNoTE@DName@@QEAAXXZ  0000000140014f20 f i libvcruntime:undname.obj
 0001:00013f28       ?setIsPinPtr@DName@@QEAAXXZ 0000000140014f28 f i libvcruntime:undname.obj
 0001:00013f30       ?setIsUDC@DName@@QEAAXXZ   0000000140014f30 f i libvcruntime:undname.obj
 0001:00013f40       ?setIsVCallThunk@DName@@QEAAXXZ 0000000140014f40 f i libvcruntime:undname.obj
 0001:00013f48       ?setPtrRef@DName@@QEAAAEAV1@XZ 0000000140014f48 f i libvcruntime:undname.obj
 0001:00013f54       ?status@DName@@QEBA?AW4DNameStatus@@XZ 0000000140014f54 f i libvcruntime:undname.obj
 0001:00013fcc       __unDName                  0000000140014fcc f   libvcruntime:undname.obj
 0001:00013ffc       __unDNameEx                0000000140014ffc f   libvcruntime:undname.obj
 0001:0001417c       _vsprintf_s_l              000000014001517c f i libvcruntime:undname.obj
 0001:000141f8       sprintf_s                  00000001400151f8 f i libvcruntime:undname.obj
 0001:00014260       unDNameGenerateCHPE        0000000140015260 f   libvcruntime:undname.obj
 0001:000143a8       ??$__crt_interlocked_exchange_pointer@UHINSTANCE__@@PEAU1@@@YAPEAUHINSTANCE__@@PEDSEAU0@QEAU0@@Z 00000001400153a8 f i libvcruntime:winapi_downlevel.obj
 0001:000143b0       ??$__crt_interlocked_exchange_pointer@UHINSTANCE__@@PEAX@@YAPEAUHINSTANCE__@@PEDSEAU0@QEAX@Z 00000001400153b0 f i libvcruntime:winapi_downlevel.obj
 0001:000143b8       ??$__crt_interlocked_exchange_pointer@XPEAX@@YAPEAXPEDSEAXQEAX@Z 00000001400153b8 f i libvcruntime:winapi_downlevel.obj
 0001:000143c0       ??$__crt_interlocked_read_pointer@UHINSTANCE__@@@@YAPEAUHINSTANCE__@@PEDSEAU0@@Z 00000001400153c0 f i libvcruntime:winapi_downlevel.obj
 0001:000143c4       ??$__crt_interlocked_read_pointer@X@@YAPEAXPEDSEAX@Z 00000001400153c4 f i libvcruntime:winapi_downlevel.obj
 0001:00014a44       __vcrt_FlsAlloc            0000000140015a44 f   libvcruntime:winapi_downlevel.obj
 0001:00014a9c       __vcrt_FlsFree             0000000140015a9c f   libvcruntime:winapi_downlevel.obj
 0001:00014af4       __vcrt_FlsGetValue         0000000140015af4 f   libvcruntime:winapi_downlevel.obj
 0001:00014b4c       __vcrt_FlsSetValue         0000000140015b4c f   libvcruntime:winapi_downlevel.obj
 0001:00014bb4       __vcrt_InitializeCriticalSectionEx 0000000140015bb4 f   libvcruntime:winapi_downlevel.obj
 0001:00014c30       ??$__crt_interlocked_exchange_pointer@$$A6AXXZP6AXXZ@@YAP6AXXZPEDS6AXXZQ6AXXZ@Z 0000000140015c30 f i libvcruntime:purevirt.obj
 0001:00014c38       ??$__crt_interlocked_read_pointer@$$A6AXXZ@@YAP6AXXZPEDS6AXXZ@Z 0000000140015c38 f i libvcruntime:purevirt.obj
 0001:00014c3c       _get_purecall_handler      0000000140015c3c f   libvcruntime:purevirt.obj
 0001:00014c48       _purecall                  0000000140015c48 f   libvcruntime:purevirt.obj
 0001:00014c68       _set_purecall_handler      0000000140015c68 f   libvcruntime:purevirt.obj
 0001:00014c78       ??$?0AEAViterator@TryBlockMap4@FH4@@AEAV012@$0A@@?$pair@Viterator@TryBlockMap4@FH4@@V123@@std@@QEAA@AEAViterator@TryBlockMap4@FH4@@0@Z 0000000140015c78 f i libvcruntime:risctrnsctrl.obj
 0001:00014c94       ??$?0AEAViterator@TryBlockMap@__FrameHandler3@@AEAV012@$0A@@?$pair@Viterator@TryBlockMap@__FrameHandler3@@V123@@std@@QEAA@AEAViterator@TryBlockMap@__FrameHandler3@@0@Z 0000000140015c94 f i libvcruntime:risctrnsctrl.obj
 0001:00014e3c       ??$_CallSETranslator@V__FrameHandler3@@@@YAHPEAUEHExceptionRecord@@PEA_KPEAU_CONTEXT@@PEAU_xDISPATCHER_CONTEXT@@PEBU_s_FuncInfo@@K1H@Z 0000000140015e3c f i libvcruntime:risctrnsctrl.obj
 0001:00014ea4       ??$_CallSETranslator@V__FrameHandler4@@@@YAHPEAUEHExceptionRecord@@PEA_KPEAU_CONTEXT@@PEAU_xDISPATCHER_CONTEXT@@PEAUFuncInfo4@FH4@@K1H@Z 0000000140015ea4 f i libvcruntime:risctrnsctrl.obj
 0001:00014f0c       ??$forward@AEAViterator@TryBlockMap4@FH4@@@std@@YAAEAViterator@TryBlockMap4@FH4@@AEAV123@@Z 0000000140015f0c f i libvcruntime:risctrnsctrl.obj
 0001:00014f10       ??$forward@AEAViterator@TryBlockMap@__FrameHandler3@@@std@@YAAEAViterator@TryBlockMap@__FrameHandler3@@AEAV123@@Z 0000000140015f10 f i libvcruntime:risctrnsctrl.obj
 0001:00014f14       ??0FuncInfo4@FH4@@QEAA@XZ  0000000140015f14 f i libvcruntime:risctrnsctrl.obj
 0001:00014f2c       ??0FuncInfoHeader@FH4@@QEAA@XZ 0000000140015f2c f i libvcruntime:risctrnsctrl.obj
 0001:00014f34       ??0iterator@TryBlockMap4@FH4@@QEAA@AEAV12@I@Z 0000000140015f34 f i libvcruntime:risctrnsctrl.obj
 0001:00014f44       ??0iterator@TryBlockMap@__FrameHandler3@@QEAA@AEAV12@I@Z 0000000140015f44 f i libvcruntime:risctrnsctrl.obj
 0001:00014f54       ??4iterator@TryBlockMap4@FH4@@QEAAAEAV012@AEBV012@@Z 0000000140015f54 f i libvcruntime:risctrnsctrl.obj
 0001:00014f60       ??9iterator@TryBlockMap4@FH4@@QEBA_NAEBV012@@Z 0000000140015f60 f i libvcruntime:risctrnsctrl.obj
 0001:00014f6c       ??Diterator@TryBlockMap4@FH4@@QEAA?AUTryBlockMapEntry4@2@XZ 0000000140015f6c f i libvcruntime:risctrnsctrl.obj
 0001:00014f80       ??Eiterator@TryBlockMap4@FH4@@QEAAAEAV012@XZ 0000000140015f80 f i libvcruntime:risctrnsctrl.obj
 0001:00015044       ?CatchTryBlock@__FrameHandler3@@SAPEBU_s_TryBlockMapEntry@@PEBU_s_FuncInfo@@H@Z 0000000140016044 f   libvcruntime:risctrnsctrl.obj
 0001:000150ac       ?DecompFuncInfo@FH4@@YA_JPEAEAEAUFuncInfo4@1@_KH@Z 00000001400160ac f i libvcruntime:risctrnsctrl.obj
 0001:000150c4       ?DecompFuncInfo@FH4@@YA_JPEAEAEAUFuncInfo4@1@_KH_N@Z 00000001400160c4 f i libvcruntime:risctrnsctrl.obj
 0001:00015230       ?DecompTryBlock@TryBlockMap4@FH4@@AEAAXXZ 0000000140016230 f i libvcruntime:risctrnsctrl.obj
 0001:000152e8       ?ExecutionInCatch@__FrameHandler3@@SA_NPEAU_xDISPATCHER_CONTEXT@@PEBU_s_FuncInfo@@@Z 00000001400162e8 f   libvcruntime:risctrnsctrl.obj
 0001:0001531c       ?ExecutionInCatch@__FrameHandler4@@SA_NPEAU_xDISPATCHER_CONTEXT@@PEAUFuncInfo4@FH4@@@Z 000000014001631c f   libvcruntime:risctrnsctrl.obj
 0001:00015324       ?FrameUnwindToEmptyState@__FrameHandler3@@SAXPEA_KPEAU_xDISPATCHER_CONTEXT@@PEBU_s_FuncInfo@@@Z 0000000140016324 f   libvcruntime:risctrnsctrl.obj
 0001:000153a4       ?FrameUnwindToEmptyState@__FrameHandler4@@SAXPEA_KPEAU_xDISPATCHER_CONTEXT@@PEAUFuncInfo4@FH4@@@Z 00000001400163a4 f   libvcruntime:risctrnsctrl.obj
 0001:000153e4       ?GetEstablisherFrame@__FrameHandler3@@SAPEA_KPEA_KPEAU_xDISPATCHER_CONTEXT@@PEBU_s_FuncInfo@@0@Z 00000001400163e4 f   libvcruntime:risctrnsctrl.obj
 0001:000154e0       ?GetEstablisherFrame@__FrameHandler4@@SAPEA_KPEA_KPEAU_xDISPATCHER_CONTEXT@@PEAUFuncInfo4@FH4@@0@Z 00000001400164e0 f   libvcruntime:risctrnsctrl.obj
 0001:0001550c       ?GetRangeOfTrysToCheck@__FrameHandler3@@SA?AU?$pair@Viterator@TryBlockMap@__FrameHandler3@@V123@@std@@AEAVTryBlockMap@1@HPEAU_xDISPATCHER_CONTEXT@@PEBU_s_FuncInfo@@H@Z 000000014001650c f   libvcruntime:risctrnsctrl.obj
 0001:0001569c       ?GetRangeOfTrysToCheck@__FrameHandler4@@SA?AU?$pair@Viterator@TryBlockMap4@FH4@@V123@@std@@AEAVTryBlockMap4@FH4@@HPEAU_xDISPATCHER_CONTEXT@@PEAUFuncInfo4@5@H@Z 000000014001669c f   libvcruntime:risctrnsctrl.obj
 0001:0001585c       ?ReadInt@FH4@@YAHPEAPEAE@Z 000000014001685c f i libvcruntime:risctrnsctrl.obj
 0001:0001586c       ?ReadUnsigned@FH4@@YAIPEAPEAE@Z 000000014001686c f i libvcruntime:risctrnsctrl.obj
 0001:000158a8       ?UnwindNestedFrames@__FrameHandler3@@SAXPEA_KPEAUEHExceptionRecord@@PEAU_CONTEXT@@0PEAXPEBU_s_FuncInfo@@HHPEBU_s_HandlerType@@PEAU_xDISPATCHER_CONTEXT@@E@Z 00000001400168a8 f   libvcruntime:risctrnsctrl.obj
 0001:000159ec       ?UnwindNestedFrames@__FrameHandler4@@SAXPEA_KPEAUEHExceptionRecord@@PEAU_CONTEXT@@0PEAXPEAUFuncInfo4@FH4@@HHPEAUHandlerType4@5@PEAU_xDISPATCHER_CONTEXT@@E@Z 00000001400169ec f   libvcruntime:risctrnsctrl.obj
 0001:00015b54       ?begin@TryBlockMap4@FH4@@QEAA?AViterator@12@XZ 0000000140016b54 f i libvcruntime:risctrnsctrl.obj
 0001:00015b64       ?end@TryBlockMap4@FH4@@QEAA?AViterator@12@XZ 0000000140016b64 f i libvcruntime:risctrnsctrl.obj
 0001:00015b74       ?imageRelToByteBuffer@FH4@@YAPEAE_KH@Z 0000000140016b74 f i libvcruntime:risctrnsctrl.obj
 0001:00015b7c       ?incrementToSentinel@iterator@TryBlockMap4@FH4@@QEAAXXZ 0000000140016b7c f i libvcruntime:risctrnsctrl.obj
 0001:00015b80       ?setBuffer@TryBlockMap4@FH4@@QEAAXViterator@12@@Z 0000000140016b80 f i libvcruntime:risctrnsctrl.obj
 0001:00015db0       _CreateFrameInfo           0000000140016db0 f   libvcruntime:risctrnsctrl.obj
 0001:00015df8       _FindAndUnlinkFrame        0000000140016df8 f   libvcruntime:risctrnsctrl.obj
 0001:00015e60       _GetImageBase              0000000140016e60 f   libvcruntime:risctrnsctrl.obj
 0001:00015e78       _GetThrowImageBase         0000000140016e78 f   libvcruntime:risctrnsctrl.obj
 0001:00015e90       _SetImageBase              0000000140016e90 f   libvcruntime:risctrnsctrl.obj
 0001:00015eb0       _SetThrowImageBase         0000000140016eb0 f   libvcruntime:risctrnsctrl.obj
 0001:00015ed0       __CxxFrameHandler          0000000140016ed0 f   libvcruntime:risctrnsctrl.obj
 0001:00015ed8       __CxxFrameHandler2         0000000140016ed8 f   libvcruntime:risctrnsctrl.obj
 0001:00015ee0       __CxxFrameHandler3         0000000140016ee0 f   libvcruntime:risctrnsctrl.obj
 0001:00015f88       __CxxFrameHandler4         0000000140016f88 f   libvcruntime:risctrnsctrl.obj
 0001:00016090       memcpy_repmovs             0000000140017090 f   libvcruntime:memcpy.obj
 0001:000160b0       memmove                    00000001400170b0 f   libvcruntime:memcpy.obj
 0001:000160b0       memcpy                     00000001400170b0 f   libvcruntime:memcpy.obj
 0001:000168d0       ?GetCurrentState@__FrameHandler3@@SAHPEA_KPEAU_xDISPATCHER_CONTEXT@@PEBU_s_FuncInfo@@@Z 00000001400178d0 f   libvcruntime:ehstate.obj
 0001:00016900       ?GetUnwindTryBlock@__FrameHandler3@@SAHPEA_KPEAU_xDISPATCHER_CONTEXT@@PEBU_s_FuncInfo@@@Z 0000000140017900 f   libvcruntime:ehstate.obj
 0001:00016934       ?SetState@__FrameHandler3@@SAXPEA_KPEBU_s_FuncInfo@@H@Z 0000000140017934 f   libvcruntime:ehstate.obj
 0001:00016944       ?SetUnwindTryBlock@__FrameHandler3@@SAXPEA_KPEAU_xDISPATCHER_CONTEXT@@PEBU_s_FuncInfo@@H@Z 0000000140017944 f   libvcruntime:ehstate.obj
 0001:00016990       ?StateFromControlPc@__FrameHandler3@@SAHPEBU_s_FuncInfo@@PEAU_xDISPATCHER_CONTEXT@@@Z 0000000140017990 f   libvcruntime:ehstate.obj
 0001:0001699c       ?StateFromControlPc@__FrameHandler4@@SAHPEAUFuncInfo4@FH4@@PEAU_xDISPATCHER_CONTEXT@@@Z 000000014001799c f   libvcruntime:ehstate.obj
 0001:000169a8       ?StateFromIp@__FrameHandler3@@SAHPEBU_s_FuncInfo@@PEAU_xDISPATCHER_CONTEXT@@_K@Z 00000001400179a8 f   libvcruntime:ehstate.obj
 0001:00016a28       ?StateFromIp@__FrameHandler4@@SAHPEAUFuncInfo4@FH4@@PEAU_xDISPATCHER_CONTEXT@@_K@Z 0000000140017a28 f   libvcruntime:ehstate.obj
 0001:00016b48       ?__FuncRelToRealOffset@@YA_KPEAU_xDISPATCHER_CONTEXT@@I@Z 0000000140017b48 f i libvcruntime:ehstate.obj
 0001:00016b5c       ?__RVAtoRealOffset@@YA_KPEAU_xDISPATCHER_CONTEXT@@H@Z 0000000140017b5c f i libvcruntime:ehstate.obj
 0001:000186e0       ??$TypeMatchHelper@V__FrameHandler3@@@@YAHPEBU_s_HandlerType@@PEBU_s_CatchableType@@PEBU_s_ThrowInfo@@@Z 00000001400196e0 f i libvcruntime:frame.obj
 0001:0001886c       ??$TypeMatchHelper@V__FrameHandler4@@@@YAHPEAUHandlerType4@FH4@@PEBU_s_CatchableType@@PEBU_s_ThrowInfo@@@Z 000000014001986c f i libvcruntime:frame.obj
 0001:00018a00       ??$__InternalCxxFrameHandler@V__FrameHandler3@@@@YA?AW4_EXCEPTION_DISPOSITION@@PEAUEHExceptionRecord@@PEA_KPEAU_CONTEXT@@PEAU_xDISPATCHER_CONTEXT@@PEBU_s_FuncInfo@@H1E@Z 0000000140019a00 f i libvcruntime:frame.obj
 0001:00018cc4       ??$__InternalCxxFrameHandler@V__FrameHandler4@@@@YA?AW4_EXCEPTION_DISPOSITION@@PEAUEHExceptionRecord@@PEA_KPEAU_CONTEXT@@PEAU_xDISPATCHER_CONTEXT@@PEAUFuncInfo4@FH4@@H1E@Z 0000000140019cc4 f i libvcruntime:frame.obj
 0001:00019000       ??0HandlerMap4@FH4@@QEAA@PEBUTryBlockMapEntry4@1@_KH@Z 000000014001a000 f i libvcruntime:frame.obj
 0001:00019098       ??0HandlerMap@__FrameHandler3@@QEAA@PEBU_s_TryBlockMapEntry@@_KI@Z 000000014001a098 f i libvcruntime:frame.obj
 0001:000190b4       ??0HandlerType4@FH4@@QEAA@XZ 000000014001a0b4 f i libvcruntime:frame.obj
 0001:000190d0       ??0TryBlockMap4@FH4@@QEAA@PEBUFuncInfo4@1@_K@Z 000000014001a0d0 f i libvcruntime:frame.obj
 0001:000191dc       ??0TryBlockMap@__FrameHandler3@@QEAA@PEBU_s_FuncInfo@@_K@Z 000000014001a1dc f i libvcruntime:frame.obj
 0001:000191ec       ??0UWMap4@FH4@@QEAA@PEBUFuncInfo4@1@_K@Z 000000014001a1ec f i libvcruntime:frame.obj
 0001:00019240       ??0bad_exception@std@@QEAA@AEBV01@@Z 000000014001a240 f i libvcruntime:frame.obj
 0001:0001928c       ??0bad_exception@std@@QEAA@XZ 000000014001a28c f i libvcruntime:frame.obj
 0001:000192b4       ??0exception@std@@QEAA@AEBV01@@Z 000000014001a2b4 f i libvcruntime:frame.obj
 0001:000192f4       ??0exception@std@@QEAA@QEBDH@Z 000000014001a2f4 f i libvcruntime:frame.obj
 0001:00019310       ??0iterator@HandlerMap4@FH4@@QEAA@AEAV12@I@Z 000000014001a310 f i libvcruntime:frame.obj
 0001:00019320       ??0iterator@HandlerMap@__FrameHandler3@@QEAA@AEAV12@I@Z 000000014001a320 f i libvcruntime:frame.obj
 0001:00019330       ??0iterator@UWMap4@FH4@@QEAA@AEAV12@PEAE@Z 000000014001a330 f i libvcruntime:frame.obj
 0001:00019340       ??1bad_exception@std@@UEAA@XZ 000000014001a340 f i libvcruntime:frame.obj
 0001:00019358       ??1exception@std@@UEAA@XZ  000000014001a358 f i libvcruntime:frame.obj
 0001:00019370       ??4iterator@UWMap4@FH4@@QEAAAEAV012@AEBV012@@Z 000000014001a370 f i libvcruntime:frame.obj
 0001:00019398       ??8iterator@HandlerMap4@FH4@@QEBA_NAEBV012@@Z 000000014001a398 f i libvcruntime:frame.obj
 0001:000193a4       ??8iterator@HandlerMap@__FrameHandler3@@QEBA_NAEBV012@@Z 000000014001a3a4 f i libvcruntime:frame.obj
 0001:000193b0       ??8type_info@@QEBA_NAEBV0@@Z 000000014001a3b0 f i libvcruntime:frame.obj
 0001:000193d4       ??9iterator@HandlerMap4@FH4@@QEBA_NAEBV012@@Z 000000014001a3d4 f i libvcruntime:frame.obj
 0001:000193e0       ??9iterator@HandlerMap@__FrameHandler3@@QEBA_NAEBV012@@Z 000000014001a3e0 f i libvcruntime:frame.obj
 0001:000193ec       ??Diterator@HandlerMap4@FH4@@QEAA?AUHandlerType4@2@XZ 000000014001a3ec f i libvcruntime:frame.obj
 0001:00019414       ??Diterator@HandlerMap@__FrameHandler3@@QEAA?BU_s_HandlerType@@XZ 000000014001a414 f i libvcruntime:frame.obj
 0001:00019440       ??Diterator@TryBlockMap@__FrameHandler3@@QEAA?BU_s_TryBlockMapEntry@@XZ 000000014001a440 f i libvcruntime:frame.obj
 0001:00019478       ??Diterator@UWMap4@FH4@@QEAA?AUUnwindMapEntry4@2@XZ 000000014001a478 f i libvcruntime:frame.obj
 0001:000194e0       ??Eiterator@HandlerMap4@FH4@@QEAAAEAV012@XZ 000000014001a4e0 f i libvcruntime:frame.obj
 0001:00019504       ??Eiterator@HandlerMap@__FrameHandler3@@QEAAAEAV012@XZ 000000014001a504 f i libvcruntime:frame.obj
 0001:0001950c       ??Eiterator@TryBlockMap@__FrameHandler3@@QEAAAEAV012@XZ 000000014001a50c f i libvcruntime:frame.obj
 0001:00019514       ??Eiterator@UWMap4@FH4@@QEAAAEAV012@XZ 000000014001a514 f i libvcruntime:frame.obj
 0001:0001953c       ??Giterator@UWMap4@FH4@@QEBA_JAEBV012@@Z 000000014001a53c f i libvcruntime:frame.obj
 0001:00019548       ??Miterator@TryBlockMap4@FH4@@QEBA_NAEBV012@@Z 000000014001a548 f i libvcruntime:frame.obj
 0001:00019554       ??Miterator@TryBlockMap@__FrameHandler3@@QEBA_NAEBV012@@Z 000000014001a554 f i libvcruntime:frame.obj
 0001:00019560       ??Oiterator@UWMap4@FH4@@QEBA_NAEBV012@@Z 000000014001a560 f i libvcruntime:frame.obj
 0001:00019570       ??Piterator@UWMap4@FH4@@QEBA_NAEBV012@@Z 000000014001a570 f i libvcruntime:frame.obj
 0001:00019580       ??_Gbad_exception@std@@UEAAPEAXI@Z 000000014001a580 f i libvcruntime:frame.obj
 0001:00019580       ??_Ebad_exception@std@@UEAAPEAXI@Z 000000014001a580 f i libvcruntime:frame.obj
 0001:000195d4       ??_Eexception@std@@UEAAPEAXI@Z 000000014001a5d4 f i libvcruntime:frame.obj
 0001:000195d4       ??_Gexception@std@@UEAAPEAXI@Z 000000014001a5d4 f i libvcruntime:frame.obj
 0001:00019628       ?BuildCatchObject@__FrameHandler3@@SAXPEAUEHExceptionRecord@@PEAXPEBU_s_HandlerType@@PEBU_s_CatchableType@@@Z 000000014001a628 f   libvcruntime:frame.obj
 0001:00019630       ?BuildCatchObject@__FrameHandler4@@SAXPEAUEHExceptionRecord@@PEAXPEAUHandlerType4@FH4@@PEBU_s_CatchableType@@@Z 000000014001a630 f   libvcruntime:frame.obj
 0001:00019638       ?BuildCatchObjectHelper@__FrameHandler3@@SAHPEAUEHExceptionRecord@@PEAXPEBU_s_HandlerType@@PEBU_s_CatchableType@@@Z 000000014001a638 f   libvcruntime:frame.obj
 0001:00019640       ?BuildCatchObjectHelper@__FrameHandler4@@SAHPEAUEHExceptionRecord@@PEAXPEAUHandlerType4@FH4@@PEBU_s_CatchableType@@@Z 000000014001a640 f   libvcruntime:frame.obj
 0001:00019648       ?CxxCallCatchBlock@__FrameHandler3@@SAPEAXPEAU_EXCEPTION_RECORD@@@Z 000000014001a648 f   libvcruntime:frame.obj
 0001:000198ac       ?CxxCallCatchBlock@__FrameHandler4@@SAPEAXPEAU_EXCEPTION_RECORD@@@Z 000000014001a8ac f   libvcruntime:frame.obj
 0001:00019b90       ?DecompHandler@HandlerMap4@FH4@@AEAAXXZ 000000014001ab90 f i libvcruntime:frame.obj
 0001:00019e60       ?FrameUnwindToState@__FrameHandler3@@SAXPEA_KPEAU_xDISPATCHER_CONTEXT@@PEBU_s_FuncInfo@@H@Z 000000014001ae60 f   libvcruntime:frame.obj
 0001:0001a04c       ?FrameUnwindToState@__FrameHandler4@@SAXPEA_KPEAU_xDISPATCHER_CONTEXT@@PEAUFuncInfo4@FH4@@H@Z 000000014001b04c f   libvcruntime:frame.obj
 0001:0001a3ec       ?GetHandlerSearchState@__FrameHandler3@@SAHPEA_KPEAU_xDISPATCHER_CONTEXT@@PEBU_s_FuncInfo@@@Z 000000014001b3ec f i libvcruntime:frame.obj
 0001:0001a4a8       ?GetHandlerSearchState@__FrameHandler4@@SAHPEA_KPEAU_xDISPATCHER_CONTEXT@@PEAUFuncInfo4@FH4@@@Z 000000014001b4a8 f i libvcruntime:frame.obj
 0001:0001a524       ?GetMaxState@__FrameHandler3@@SAHPEAU_xDISPATCHER_CONTEXT@@PEBU_s_FuncInfo@@@Z 000000014001b524 f i libvcruntime:frame.obj
 0001:0001a528       ?GetMaxState@__FrameHandler4@@SAHPEAU_xDISPATCHER_CONTEXT@@PEAUFuncInfo4@FH4@@@Z 000000014001b528 f i libvcruntime:frame.obj
 0001:0001a744       ?ReadEntry@UWMap4@FH4@@AEAAXPEAPEAE@Z 000000014001b744 f i libvcruntime:frame.obj
 0001:0001a80c       ?TypeMatch@__FrameHandler3@@SAHPEBU_s_HandlerType@@PEBU_s_CatchableType@@PEBU_s_ThrowInfo@@@Z 000000014001b80c f   libvcruntime:frame.obj
 0001:0001a814       ?TypeMatch@__FrameHandler4@@SAHPEAUHandlerType4@FH4@@PEBU_s_CatchableType@@PEBU_s_ThrowInfo@@@Z 000000014001b814 f   libvcruntime:frame.obj
 0001:0001a81c       ?WalkBack@UWMap4@FH4@@AEAAXPEAPEAE@Z 000000014001b81c f i libvcruntime:frame.obj
 0001:0001a860       ?WalkBack@iterator@UWMap4@FH4@@QEAAXXZ 000000014001b860 f i libvcruntime:frame.obj
 0001:0001a8ac       ?WalkForward@UWMap4@FH4@@AEAAXPEAPEAE@Z 000000014001b8ac f i libvcruntime:frame.obj
 0001:0001a8b4       ?_CallMemberFunction1@@YAXQEAX00@Z 000000014001b8b4 f i libvcruntime:frame.obj
 0001:0001a8c0       ?_CallMemberFunction2@@YAXQEAX00H@Z 000000014001b8c0 f i libvcruntime:frame.obj
 0001:0001a8f0       ?begin@HandlerMap4@FH4@@QEAA?AViterator@12@XZ 000000014001b8f0 f i libvcruntime:frame.obj
 0001:0001a900       ?begin@HandlerMap@__FrameHandler3@@QEAA?AViterator@12@XZ 000000014001b900 f i libvcruntime:frame.obj
 0001:0001a910       ?begin@UWMap4@FH4@@QEAA?AViterator@12@XZ 000000014001b910 f i libvcruntime:frame.obj
 0001:0001a924       ?end@HandlerMap4@FH4@@QEAA?AViterator@12@XZ 000000014001b924 f i libvcruntime:frame.obj
 0001:0001a934       ?end@HandlerMap@__FrameHandler3@@QEAA?AViterator@12@XZ 000000014001b934 f i libvcruntime:frame.obj
 0001:0001a944       ?getESTypes@__FrameHandler3@@SAPEBU_s_ESTypeList@@PEBU_s_FuncInfo@@@Z 000000014001b944 f i libvcruntime:frame.obj
 0001:0001a978       ?getESTypes@__FrameHandler4@@SAPEBU_s_ESTypeList@@PEAUFuncInfo4@FH4@@@Z 000000014001b978 f i libvcruntime:frame.obj
 0001:0001a97c       ?getLastEntry@HandlerMap4@FH4@@QEAAPEAUHandlerType4@2@XZ 000000014001b97c f i libvcruntime:frame.obj
 0001:0001a9e0       ?getLastEntry@HandlerMap@__FrameHandler3@@QEAAPEBU_s_HandlerType@@XZ 000000014001b9e0 f i libvcruntime:frame.obj
 0001:0001a9f8       ?getMagicNum@__FrameHandler3@@SAIPEBU_s_FuncInfo@@@Z 000000014001b9f8 f i libvcruntime:frame.obj
 0001:0001aa04       ?getMagicNum@__FrameHandler4@@SAIPEAUFuncInfo4@FH4@@@Z 000000014001ba04 f i libvcruntime:frame.obj
 0001:0001aa0c       ?getNumTryBlocks@TryBlockMap4@FH4@@QEAAIXZ 000000014001ba0c f i libvcruntime:frame.obj
 0001:0001aa10       ?getNumTryBlocks@TryBlockMap@__FrameHandler3@@QEAAIXZ 000000014001ba10 f i libvcruntime:frame.obj
 0001:0001aa18       ?getStartStop@UWMap4@FH4@@QEAAXHHAEAViterator@12@0@Z 000000014001ba18 f i libvcruntime:frame.obj
 0001:0001ab1c       ?getStateFromIterators@UWMap4@FH4@@SAHAEBViterator@12@H0H0@Z 000000014001bb1c f i libvcruntime:frame.obj
 0001:0001ac14       ?isEHs@__FrameHandler3@@SA_NPEBU_s_FuncInfo@@@Z 000000014001bc14 f i libvcruntime:frame.obj
 0001:0001ac1c       ?isEHs@__FrameHandler4@@SA_NPEAUFuncInfo4@FH4@@@Z 000000014001bc1c f i libvcruntime:frame.obj
 0001:0001ac28       ?isNoExcept@__FrameHandler3@@SA_NPEBU_s_FuncInfo@@@Z 000000014001bc28 f i libvcruntime:frame.obj
 0001:0001ac34       ?isNoExcept@__FrameHandler4@@SA_NPEAUFuncInfo4@FH4@@@Z 000000014001bc34 f i libvcruntime:frame.obj
 0001:0001ac40       ?reset@HandlerType4@FH4@@QEAAXXZ 000000014001bc40 f i libvcruntime:frame.obj
 0001:0001ac5c       ?resetBuffer@HandlerMap4@FH4@@QEAAXXZ 000000014001bc5c f i libvcruntime:frame.obj
 0001:0001ac6c       ?setBuffer@HandlerMap4@FH4@@QEAAXI@Z 000000014001bc6c f i libvcruntime:frame.obj
 0001:0001acb4       ?what@exception@std@@UEBAPEBDXZ 000000014001bcb4 f i libvcruntime:frame.obj
 0001:0001accc       __BuildCatchObject         000000014001bccc f   libvcruntime:frame.obj
 0001:0001acd4       __BuildCatchObjectHelper   000000014001bcd4 f   libvcruntime:frame.obj
 0001:0001acdc       __TypeMatch                000000014001bcdc f   libvcruntime:frame.obj
 0001:0001ace4       __vcrt_EncodePointer       000000014001bce4 f i libvcruntime:frame.obj
 0001:0001ad00       _CallSettingFrame          000000014001bd00 f   libvcruntime:handlers.obj
 0001:0001ad50       _CallSettingFrame_LookupContinuationIndex 000000014001bd50 f   libvcruntime:handlers.obj
 0001:0001ad80       _CallSettingFrame_NotifyContinuationAddr 000000014001bd80 f   libvcruntime:handlers.obj
 0001:0001adb0       _CallSettingFrameEncoded   000000014001bdb0 f   libvcruntime:handlers.obj
 0001:0001ae38       ??$?RD@__crt_public_free_policy@@QEBAXQEBD@Z 000000014001be38 f i libvcruntime:std_exception.obj
 0001:0001ae44       ??0?$__crt_unique_heap_ptr@DU__crt_public_free_policy@@@@QEAA@QEAD@Z 000000014001be44 f i libvcruntime:std_exception.obj
 0001:0001ae4c       ??1?$__crt_unique_heap_ptr@DU__crt_public_free_policy@@@@QEAA@XZ 000000014001be4c f i libvcruntime:std_exception.obj
 0001:0001ae70       ??B?$__crt_unique_heap_ptr@DU__crt_public_free_policy@@@@QEBA_NXZ 000000014001be70 f i libvcruntime:std_exception.obj
 0001:0001ae7c       ?detach@?$__crt_unique_heap_ptr@DU__crt_public_free_policy@@@@QEAAPEADXZ 000000014001be7c f i libvcruntime:std_exception.obj
 0001:0001ae88       ?get@?$__crt_unique_heap_ptr@DU__crt_public_free_policy@@@@QEBAPEADXZ 000000014001be88 f i libvcruntime:std_exception.obj
 0001:0001ae8c       ?is_valid@?$__crt_unique_heap_ptr@DU__crt_public_free_policy@@@@QEBA_NXZ 000000014001be8c f i libvcruntime:std_exception.obj
 0001:0001ae98       ?release@?$__crt_unique_heap_ptr@DU__crt_public_free_policy@@@@QEAAXXZ 000000014001be98 f i libvcruntime:std_exception.obj
 0001:0001aebc       __std_exception_copy       000000014001bebc f   libvcruntime:std_exception.obj
 0001:0001af6c       __std_exception_destroy    000000014001bf6c f   libvcruntime:std_exception.obj
 0001:0001af9c       _CxxThrowException         000000014001bf9c f   libvcruntime:throw.obj
 0001:0001b064       ??$?RPEAU__crt_stdio_stream_data@@@__crt_internal_free_policy@@QEBAXQEBQEAU__crt_stdio_stream_data@@@Z 000000014001c064 f i libucrt:_file.obj
 0001:0001b070       ??0?$__crt_unique_heap_ptr@PEAU__crt_stdio_stream_data@@U__crt_internal_free_policy@@@@QEAA@QEAPEAU__crt_stdio_stream_data@@@Z 000000014001c070 f i libucrt:_file.obj
 0001:0001b078       ??0__crt_stdio_stream@@QEAA@QEAU_iobuf@@@Z 000000014001c078 f i libucrt:_file.obj
 0001:0001b080       ??1?$__crt_unique_heap_ptr@PEAU__crt_stdio_stream_data@@U__crt_internal_free_policy@@@@QEAA@XZ 000000014001c080 f i libucrt:_file.obj
 0001:0001b0a4       ??C__crt_stdio_stream@@QEBAPEAU__crt_stdio_stream_data@@XZ 000000014001c0a4 f i libucrt:_file.obj
 0001:0001b0a8       ?detach@?$__crt_unique_heap_ptr@PEAU__crt_stdio_stream_data@@U__crt_internal_free_policy@@@@QEAAPEAPEAU__crt_stdio_stream_data@@XZ 000000014001c0a8 f i libucrt:_file.obj
 0001:0001b0b4       ?release@?$__crt_unique_heap_ptr@PEAU__crt_stdio_stream_data@@U__crt_internal_free_policy@@@@QEAAXXZ 000000014001c0b4 f i libucrt:_file.obj
 0001:0001b0d8       __acrt_initialize_stdio    000000014001c0d8 f   libucrt:_file.obj
 0001:0001b240       __acrt_iob_func            000000014001c240 f   libucrt:_file.obj
 0001:0001b258       __acrt_uninitialize_stdio  000000014001c258 f   libucrt:_file.obj
 0001:0001b2cc       _get_stream_buffer_pointers 000000014001c2cc f   libucrt:_file.obj
 0001:0001b324       _lock_file                 000000014001c324 f   libucrt:_file.obj
 0001:0001b334       _unlock_file               000000014001c334 f   libucrt:_file.obj
 0001:0001b344       ??$__crt_interlocked_read@J@@YAJPEDJ@Z 000000014001c344 f i libucrt:fgetc.obj
 0001:0001b348       ?__crt_interlocked_read_32@@YAHPEDH@Z 000000014001c348 f i libucrt:fgetc.obj
 0001:0001b34c       ?get_flags@__crt_stdio_stream@@QEBAJXZ 000000014001c34c f i libucrt:fgetc.obj
 0001:0001b354       ?is_string_backed@__crt_stdio_stream@@QEBA_NXZ 000000014001c354 f i libucrt:fgetc.obj
 0001:0001b364       ?public_stream@__crt_stdio_stream@@QEBAPEAU_iobuf@@XZ 000000014001c364 f i libucrt:fgetc.obj
 0001:0001b368       ?valid@__crt_stdio_stream@@QEBA_NXZ 000000014001c368 f i libucrt:fgetc.obj
 0001:0001b374       _fgetc_nolock              000000014001c374 f   libucrt:fgetc.obj
 0001:0001b3c8       _fgetchar                  000000014001c3c8 f   libucrt:fgetc.obj
 0001:0001b3e4       _getc_nolock               000000014001c3e4 f   libucrt:fgetc.obj
 0001:0001b3ec       fgetc                      000000014001c3ec f   libucrt:fgetc.obj
 0001:0001b538       getc                       000000014001c538 f   libucrt:fgetc.obj
 0001:0001b540       getchar                    000000014001c540 f   libucrt:fgetc.obj
 0001:0001b55c       ??$?0AEBV?$stream_output_adapter@D@__crt_stdio_output@@AEB_KAEBQEBDAEBQEAU__crt_locale_pointers@@AEBQEAD@?$format_validation_base@DV?$stream_output_adapter@D@__crt_stdio_output@@@__crt_stdio_output@@IEAA@AEBV?$stream_output_adapter@D@1@AEB_KAEBQEBDAEBQEAU__crt_locale_pointers@@AEBQEAD@Z 000000014001c55c f i libucrt:output.obj
 0001:0001b600       ??$?0AEBV?$stream_output_adapter@D@__crt_stdio_output@@AEB_KAEBQEBDAEBQEAU__crt_locale_pointers@@AEBQEAD@?$positional_parameter_base@DV?$stream_output_adapter@D@__crt_stdio_output@@@__crt_stdio_output@@IEAA@AEBV?$stream_output_adapter@D@1@AEB_KAEBQEBDAEBQEAU__crt_locale_pointers@@AEBQEAD@Z 000000014001c600 f i libucrt:output.obj
 0001:0001b6c8       ??$?0AEBV?$stream_output_adapter@D@__crt_stdio_output@@AEB_KAEBQEBDAEBQEAU__crt_locale_pointers@@AEBQEAD@?$standard_base@DV?$stream_output_adapter@D@__crt_stdio_output@@@__crt_stdio_output@@IEAA@AEBV?$stream_output_adapter@D@1@AEB_KAEBQEBDAEBQEAU__crt_locale_pointers@@AEBQEAD@Z 000000014001c6c8 f i libucrt:output.obj
 0001:0001b76c       ??$?0AEBV?$stream_output_adapter@_W@__crt_stdio_output@@AEB_KAEBQEB_WAEBQEAU__crt_locale_pointers@@AEBQEAD@?$format_validation_base@_WV?$stream_output_adapter@_W@__crt_stdio_output@@@__crt_stdio_output@@IEAA@AEBV?$stream_output_adapter@_W@1@AEB_KAEBQEB_WAEBQEAU__crt_locale_pointers@@AEBQEAD@Z 000000014001c76c f i libucrt:output.obj
 0001:0001b814       ??$?0AEBV?$stream_output_adapter@_W@__crt_stdio_output@@AEB_KAEBQEB_WAEBQEAU__crt_locale_pointers@@AEBQEAD@?$positional_parameter_base@_WV?$stream_output_adapter@_W@__crt_stdio_output@@@__crt_stdio_output@@IEAA@AEBV?$stream_output_adapter@_W@1@AEB_KAEBQEB_WAEBQEAU__crt_locale_pointers@@AEBQEAD@Z 000000014001c814 f i libucrt:output.obj
 0001:0001b8e0       ??$?0AEBV?$stream_output_adapter@_W@__crt_stdio_output@@AEB_KAEBQEB_WAEBQEAU__crt_locale_pointers@@AEBQEAD@?$standard_base@_WV?$stream_output_adapter@_W@__crt_stdio_output@@@__crt_stdio_output@@IEAA@AEBV?$stream_output_adapter@_W@1@AEB_KAEBQEB_WAEBQEAU__crt_locale_pointers@@AEBQEAD@Z 000000014001c8e0 f i libucrt:output.obj
 0001:0001b988       ??$?0AEBV?$string_output_adapter@D@__crt_stdio_output@@AEB_KAEBQEBDAEBQEAU__crt_locale_pointers@@AEBQEAD@?$format_validation_base@DV?$string_output_adapter@D@__crt_stdio_output@@@__crt_stdio_output@@IEAA@AEBV?$string_output_adapter@D@1@AEB_KAEBQEBDAEBQEAU__crt_locale_pointers@@AEBQEAD@Z 000000014001c988 f i libucrt:output.obj
 0001:0001ba2c       ??$?0AEBV?$string_output_adapter@D@__crt_stdio_output@@AEB_KAEBQEBDAEBQEAU__crt_locale_pointers@@AEBQEAD@?$positional_parameter_base@DV?$string_output_adapter@D@__crt_stdio_output@@@__crt_stdio_output@@IEAA@AEBV?$string_output_adapter@D@1@AEB_KAEBQEBDAEBQEAU__crt_locale_pointers@@AEBQEAD@Z 000000014001ca2c f i libucrt:output.obj
 0001:0001baf4       ??$?0AEBV?$string_output_adapter@D@__crt_stdio_output@@AEB_KAEBQEBDAEBQEAU__crt_locale_pointers@@AEBQEAD@?$standard_base@DV?$string_output_adapter@D@__crt_stdio_output@@@__crt_stdio_output@@IEAA@AEBV?$string_output_adapter@D@1@AEB_KAEBQEBDAEBQEAU__crt_locale_pointers@@AEBQEAD@Z 000000014001caf4 f i libucrt:output.obj
 0001:0001bb98       ??$?0AEBV?$string_output_adapter@_W@__crt_stdio_output@@AEB_KAEBQEB_WAEBQEAU__crt_locale_pointers@@AEBQEAD@?$format_validation_base@_WV?$string_output_adapter@_W@__crt_stdio_output@@@__crt_stdio_output@@IEAA@AEBV?$string_output_adapter@_W@1@AEB_KAEBQEB_WAEBQEAU__crt_locale_pointers@@AEBQEAD@Z 000000014001cb98 f i libucrt:output.obj
 0001:0001bc40       ??$?0AEBV?$string_output_adapter@_W@__crt_stdio_output@@AEB_KAEBQEB_WAEBQEAU__crt_locale_pointers@@AEBQEAD@?$positional_parameter_base@_WV?$string_output_adapter@_W@__crt_stdio_output@@@__crt_stdio_output@@IEAA@AEBV?$string_output_adapter@_W@1@AEB_KAEBQEB_WAEBQEAU__crt_locale_pointers@@AEBQEAD@Z 000000014001cc40 f i libucrt:output.obj
 0001:0001bd0c       ??$?0AEBV?$string_output_adapter@_W@__crt_stdio_output@@AEB_KAEBQEB_WAEBQEAU__crt_locale_pointers@@AEBQEAD@?$standard_base@_WV?$string_output_adapter@_W@__crt_stdio_output@@@__crt_stdio_output@@IEAA@AEBV?$string_output_adapter@_W@1@AEB_KAEBQEB_WAEBQEAU__crt_locale_pointers@@AEBQEAD@Z 000000014001cd0c f i libucrt:output.obj
 0001:0001d694       ??$count@D@formatting_buffer@__crt_stdio_output@@QEBA_KXZ 000000014001e694 f i libucrt:output.obj
 0001:0001d6b8       ??$count@_W@formatting_buffer@__crt_stdio_output@@QEBA_KXZ 000000014001e6b8 f i libucrt:output.obj
 0001:0001d6dc       ??$data@D@formatting_buffer@__crt_stdio_output@@QEAAPEADXZ 000000014001e6dc f i libucrt:output.obj
 0001:0001d6f0       ??$data@_W@formatting_buffer@__crt_stdio_output@@QEAAPEA_WXZ 000000014001e6f0 f i libucrt:output.obj
 0001:0001d704       ??$ensure_buffer_is_big_enough@D@formatting_buffer@__crt_stdio_output@@QEAA_N_K@Z 000000014001e704 f i libucrt:output.obj
 0001:0001d7d4       ??$ensure_buffer_is_big_enough@_W@formatting_buffer@__crt_stdio_output@@QEAA_N_K@Z 000000014001e7d4 f i libucrt:output.obj
 0001:0001d8a8       ??$extract_argument_from_va_list@C_J@?$positional_parameter_base@DV?$stream_output_adapter@D@__crt_stdio_output@@@__crt_stdio_output@@IEAA_NAEA_J@Z 000000014001e8a8 f i libucrt:output.obj
 0001:0001d994       ??$extract_argument_from_va_list@C_J@?$positional_parameter_base@DV?$string_output_adapter@D@__crt_stdio_output@@@__crt_stdio_output@@IEAA_NAEA_J@Z 000000014001e994 f i libucrt:output.obj
 0001:0001da80       ??$extract_argument_from_va_list@C_J@?$positional_parameter_base@_WV?$stream_output_adapter@_W@__crt_stdio_output@@@__crt_stdio_output@@IEAA_NAEA_J@Z 000000014001ea80 f i libucrt:output.obj
 0001:0001db70       ??$extract_argument_from_va_list@C_J@?$positional_parameter_base@_WV?$string_output_adapter@_W@__crt_stdio_output@@@__crt_stdio_output@@IEAA_NAEA_J@Z 000000014001eb70 f i libucrt:output.obj
 0001:0001dc60       ??$extract_argument_from_va_list@C_J@?$standard_base@DV?$stream_output_adapter@D@__crt_stdio_output@@@__crt_stdio_output@@IEAA_NAEA_J@Z 000000014001ec60 f i libucrt:output.obj
 0001:0001dc7c       ??$extract_argument_from_va_list@C_J@?$standard_base@DV?$string_output_adapter@D@__crt_stdio_output@@@__crt_stdio_output@@IEAA_NAEA_J@Z 000000014001ec7c f i libucrt:output.obj
 0001:0001dc98       ??$extract_argument_from_va_list@C_J@?$standard_base@_WV?$stream_output_adapter@_W@__crt_stdio_output@@@__crt_stdio_output@@IEAA_NAEA_J@Z 000000014001ec98 f i libucrt:output.obj
 0001:0001dcb4       ??$extract_argument_from_va_list@C_J@?$standard_base@_WV?$string_output_adapter@_W@__crt_stdio_output@@@__crt_stdio_output@@IEAA_NAEA_J@Z 000000014001ecb4 f i libucrt:output.obj
 0001:0001dcd0       ??$extract_argument_from_va_list@E_J@?$positional_parameter_base@DV?$stream_output_adapter@D@__crt_stdio_output@@@__crt_stdio_output@@IEAA_NAEA_J@Z 000000014001ecd0 f i libucrt:output.obj
 0001:0001ddbc       ??$extract_argument_from_va_list@E_J@?$positional_parameter_base@DV?$string_output_adapter@D@__crt_stdio_output@@@__crt_stdio_output@@IEAA_NAEA_J@Z 000000014001edbc f i libucrt:output.obj
 0001:0001dea8       ??$extract_argument_from_va_list@E_J@?$positional_parameter_base@_WV?$stream_output_adapter@_W@__crt_stdio_output@@@__crt_stdio_output@@IEAA_NAEA_J@Z 000000014001eea8 f i libucrt:output.obj
 0001:0001df94       ??$extract_argument_from_va_list@E_J@?$positional_parameter_base@_WV?$string_output_adapter@_W@__crt_stdio_output@@@__crt_stdio_output@@IEAA_NAEA_J@Z 000000014001ef94 f i libucrt:output.obj
 0001:0001e080       ??$extract_argument_from_va_list@E_J@?$standard_base@DV?$stream_output_adapter@D@__crt_stdio_output@@@__crt_stdio_output@@IEAA_NAEA_J@Z 000000014001f080 f i libucrt:output.obj
 0001:0001e098       ??$extract_argument_from_va_list@E_J@?$standard_base@DV?$string_output_adapter@D@__crt_stdio_output@@@__crt_stdio_output@@IEAA_NAEA_J@Z 000000014001f098 f i libucrt:output.obj
 0001:0001e0b0       ??$extract_argument_from_va_list@E_J@?$standard_base@_WV?$stream_output_adapter@_W@__crt_stdio_output@@@__crt_stdio_output@@IEAA_NAEA_J@Z 000000014001f0b0 f i libucrt:output.obj
 0001:0001e0c8       ??$extract_argument_from_va_list@E_J@?$standard_base@_WV?$string_output_adapter@_W@__crt_stdio_output@@@__crt_stdio_output@@IEAA_NAEA_J@Z 000000014001f0c8 f i libucrt:output.obj
 0001:0001e0e0       ??$extract_argument_from_va_list@F_J@?$positional_parameter_base@DV?$stream_output_adapter@D@__crt_stdio_output@@@__crt_stdio_output@@IEAA_NAEA_J@Z 000000014001f0e0 f i libucrt:output.obj
 0001:0001e1cc       ??$extract_argument_from_va_list@F_J@?$positional_parameter_base@DV?$string_output_adapter@D@__crt_stdio_output@@@__crt_stdio_output@@IEAA_NAEA_J@Z 000000014001f1cc f i libucrt:output.obj
 0001:0001e2b8       ??$extract_argument_from_va_list@F_J@?$positional_parameter_base@_WV?$stream_output_adapter@_W@__crt_stdio_output@@@__crt_stdio_output@@IEAA_NAEA_J@Z 000000014001f2b8 f i libucrt:output.obj
 0001:0001e3a8       ??$extract_argument_from_va_list@F_J@?$positional_parameter_base@_WV?$string_output_adapter@_W@__crt_stdio_output@@@__crt_stdio_output@@IEAA_NAEA_J@Z 000000014001f3a8 f i libucrt:output.obj
 0001:0001e498       ??$extract_argument_from_va_list@F_J@?$standard_base@DV?$stream_output_adapter@D@__crt_stdio_output@@@__crt_stdio_output@@IEAA_NAEA_J@Z 000000014001f498 f i libucrt:output.obj
 0001:0001e4b4       ??$extract_argument_from_va_list@F_J@?$standard_base@DV?$string_output_adapter@D@__crt_stdio_output@@@__crt_stdio_output@@IEAA_NAEA_J@Z 000000014001f4b4 f i libucrt:output.obj
 0001:0001e4d0       ??$extract_argument_from_va_list@F_J@?$standard_base@_WV?$stream_output_adapter@_W@__crt_stdio_output@@@__crt_stdio_output@@IEAA_NAEA_J@Z 000000014001f4d0 f i libucrt:output.obj
 0001:0001e4ec       ??$extract_argument_from_va_list@F_J@?$standard_base@_WV?$string_output_adapter@_W@__crt_stdio_output@@@__crt_stdio_output@@IEAA_NAEA_J@Z 000000014001f4ec f i libucrt:output.obj
 0001:0001e508       ??$extract_argument_from_va_list@GD@?$positional_parameter_base@DV?$stream_output_adapter@D@__crt_stdio_output@@@__crt_stdio_output@@IEAA_NAEAD@Z 000000014001f508 f i libucrt:output.obj
 0001:0001e5f0       ??$extract_argument_from_va_list@GD@?$positional_parameter_base@DV?$string_output_adapter@D@__crt_stdio_output@@@__crt_stdio_output@@IEAA_NAEAD@Z 000000014001f5f0 f i libucrt:output.obj
 0001:0001e6d8       ??$extract_argument_from_va_list@GD@?$standard_base@DV?$stream_output_adapter@D@__crt_stdio_output@@@__crt_stdio_output@@IEAA_NAEAD@Z 000000014001f6d8 f i libucrt:output.obj
 0001:0001e6f0       ??$extract_argument_from_va_list@GD@?$standard_base@DV?$string_output_adapter@D@__crt_stdio_output@@@__crt_stdio_output@@IEAA_NAEAD@Z 000000014001f6f0 f i libucrt:output.obj
 0001:0001e708       ??$extract_argument_from_va_list@G_J@?$positional_parameter_base@DV?$stream_output_adapter@D@__crt_stdio_output@@@__crt_stdio_output@@IEAA_NAEA_J@Z 000000014001f708 f i libucrt:output.obj
 0001:0001e7f4       ??$extract_argument_from_va_list@G_J@?$positional_parameter_base@DV?$string_output_adapter@D@__crt_stdio_output@@@__crt_stdio_output@@IEAA_NAEA_J@Z 000000014001f7f4 f i libucrt:output.obj
 0001:0001e8e0       ??$extract_argument_from_va_list@G_J@?$positional_parameter_base@_WV?$stream_output_adapter@_W@__crt_stdio_output@@@__crt_stdio_output@@IEAA_NAEA_J@Z 000000014001f8e0 f i libucrt:output.obj
 0001:0001e9cc       ??$extract_argument_from_va_list@G_J@?$positional_parameter_base@_WV?$string_output_adapter@_W@__crt_stdio_output@@@__crt_stdio_output@@IEAA_NAEA_J@Z 000000014001f9cc f i libucrt:output.obj
 0001:0001eab8       ??$extract_argument_from_va_list@G_J@?$standard_base@DV?$stream_output_adapter@D@__crt_stdio_output@@@__crt_stdio_output@@IEAA_NAEA_J@Z 000000014001fab8 f i libucrt:output.obj
 0001:0001ead0       ??$extract_argument_from_va_list@G_J@?$standard_base@DV?$string_output_adapter@D@__crt_stdio_output@@@__crt_stdio_output@@IEAA_NAEA_J@Z 000000014001fad0 f i libucrt:output.obj
 0001:0001eae8       ??$extract_argument_from_va_list@G_J@?$standard_base@_WV?$stream_output_adapter@_W@__crt_stdio_output@@@__crt_stdio_output@@IEAA_NAEA_J@Z 000000014001fae8 f i libucrt:output.obj
 0001:0001eb00       ??$extract_argument_from_va_list@G_J@?$standard_base@_WV?$string_output_adapter@_W@__crt_stdio_output@@@__crt_stdio_output@@IEAA_NAEA_J@Z 000000014001fb00 f i libucrt:output.obj
 0001:0001eb18       ??$extract_argument_from_va_list@H_J@?$positional_parameter_base@DV?$stream_output_adapter@D@__crt_stdio_output@@@__crt_stdio_output@@IEAA_NAEA_J@Z 000000014001fb18 f i libucrt:output.obj
 0001:0001ec00       ??$extract_argument_from_va_list@H_J@?$positional_parameter_base@DV?$string_output_adapter@D@__crt_stdio_output@@@__crt_stdio_output@@IEAA_NAEA_J@Z 000000014001fc00 f i libucrt:output.obj
 0001:0001ece8       ??$extract_argument_from_va_list@H_J@?$positional_parameter_base@_WV?$stream_output_adapter@_W@__crt_stdio_output@@@__crt_stdio_output@@IEAA_NAEA_J@Z 000000014001fce8 f i libucrt:output.obj
 0001:0001edd4       ??$extract_argument_from_va_list@H_J@?$positional_parameter_base@_WV?$string_output_adapter@_W@__crt_stdio_output@@@__crt_stdio_output@@IEAA_NAEA_J@Z 000000014001fdd4 f i libucrt:output.obj
 0001:0001eec0       ??$extract_argument_from_va_list@H_J@?$standard_base@DV?$stream_output_adapter@D@__crt_stdio_output@@@__crt_stdio_output@@IEAA_NAEA_J@Z 000000014001fec0 f i libucrt:output.obj
 0001:0001eed8       ??$extract_argument_from_va_list@H_J@?$standard_base@DV?$string_output_adapter@D@__crt_stdio_output@@@__crt_stdio_output@@IEAA_NAEA_J@Z 000000014001fed8 f i libucrt:output.obj
 0001:0001eef0       ??$extract_argument_from_va_list@H_J@?$standard_base@_WV?$stream_output_adapter@_W@__crt_stdio_output@@@__crt_stdio_output@@IEAA_NAEA_J@Z 000000014001fef0 f i libucrt:output.obj
 0001:0001ef08       ??$extract_argument_from_va_list@H_J@?$standard_base@_WV?$string_output_adapter@_W@__crt_stdio_output@@@__crt_stdio_output@@IEAA_NAEA_J@Z 000000014001ff08 f i libucrt:output.obj
 0001:0001ef20       ??$extract_argument_from_va_list@I_J@?$positional_parameter_base@DV?$stream_output_adapter@D@__crt_stdio_output@@@__crt_stdio_output@@IEAA_NAEA_J@Z 000000014001ff20 f i libucrt:output.obj
 0001:0001f008       ??$extract_argument_from_va_list@I_J@?$positional_parameter_base@DV?$string_output_adapter@D@__crt_stdio_output@@@__crt_stdio_output@@IEAA_NAEA_J@Z 0000000140020008 f i libucrt:output.obj
 0001:0001f0f0       ??$extract_argument_from_va_list@I_J@?$positional_parameter_base@_WV?$stream_output_adapter@_W@__crt_stdio_output@@@__crt_stdio_output@@IEAA_NAEA_J@Z 00000001400200f0 f i libucrt:output.obj
 0001:0001f1dc       ??$extract_argument_from_va_list@I_J@?$positional_parameter_base@_WV?$string_output_adapter@_W@__crt_stdio_output@@@__crt_stdio_output@@IEAA_NAEA_J@Z 00000001400201dc f i libucrt:output.obj
 0001:0001f2c8       ??$extract_argument_from_va_list@I_J@?$standard_base@DV?$stream_output_adapter@D@__crt_stdio_output@@@__crt_stdio_output@@IEAA_NAEA_J@Z 00000001400202c8 f i libucrt:output.obj
 0001:0001f2e0       ??$extract_argument_from_va_list@I_J@?$standard_base@DV?$string_output_adapter@D@__crt_stdio_output@@@__crt_stdio_output@@IEAA_NAEA_J@Z 00000001400202e0 f i libucrt:output.obj
 0001:0001f2f8       ??$extract_argument_from_va_list@I_J@?$standard_base@_WV?$stream_output_adapter@_W@__crt_stdio_output@@@__crt_stdio_output@@IEAA_NAEA_J@Z 00000001400202f8 f i libucrt:output.obj
 0001:0001f310       ??$extract_argument_from_va_list@I_J@?$standard_base@_WV?$string_output_adapter@_W@__crt_stdio_output@@@__crt_stdio_output@@IEAA_NAEA_J@Z 0000000140020310 f i libucrt:output.obj
 0001:0001f328       ??$extract_argument_from_va_list@PEADPEAD@?$positional_parameter_base@DV?$stream_output_adapter@D@__crt_stdio_output@@@__crt_stdio_output@@IEAA_NAEAPEAD@Z 0000000140020328 f i libucrt:output.obj
 0001:0001f410       ??$extract_argument_from_va_list@PEADPEAD@?$positional_parameter_base@DV?$string_output_adapter@D@__crt_stdio_output@@@__crt_stdio_output@@IEAA_NAEAPEAD@Z 0000000140020410 f i libucrt:output.obj
 0001:0001f4f8       ??$extract_argument_from_va_list@PEADPEAD@?$positional_parameter_base@_WV?$stream_output_adapter@_W@__crt_stdio_output@@@__crt_stdio_output@@IEAA_NAEAPEAD@Z 00000001400204f8 f i libucrt:output.obj
 0001:0001f5e4       ??$extract_argument_from_va_list@PEADPEAD@?$positional_parameter_base@_WV?$string_output_adapter@_W@__crt_stdio_output@@@__crt_stdio_output@@IEAA_NAEAPEAD@Z 00000001400205e4 f i libucrt:output.obj
 0001:0001f6d0       ??$extract_argument_from_va_list@PEADPEAD@?$standard_base@DV?$stream_output_adapter@D@__crt_stdio_output@@@__crt_stdio_output@@IEAA_NAEAPEAD@Z 00000001400206d0 f i libucrt:output.obj
 0001:0001f6e8       ??$extract_argument_from_va_list@PEADPEAD@?$standard_base@DV?$string_output_adapter@D@__crt_stdio_output@@@__crt_stdio_output@@IEAA_NAEAPEAD@Z 00000001400206e8 f i libucrt:output.obj
 0001:0001f700       ??$extract_argument_from_va_list@PEADPEAD@?$standard_base@_WV?$stream_output_adapter@_W@__crt_stdio_output@@@__crt_stdio_output@@IEAA_NAEAPEAD@Z 0000000140020700 f i libucrt:output.obj
 0001:0001f718       ??$extract_argument_from_va_list@PEADPEAD@?$standard_base@_WV?$string_output_adapter@_W@__crt_stdio_output@@@__crt_stdio_output@@IEAA_NAEAPEAD@Z 0000000140020718 f i libucrt:output.obj
 0001:0001f730       ??$extract_argument_from_va_list@PEAUansi_string@?1??type_case_Z@?$output_processor@DV?$stream_output_adapter@D@__crt_stdio_output@@V?$format_validation_base@DV?$stream_output_adapter@D@__crt_stdio_output@@@2@@__crt_stdio_output@@AEAA_NXZ@PEAU1?1??234@AEAA_NXZ@@?$standard_base@DV?$stream_output_adapter@D@__crt_stdio_output@@@__crt_stdio_output@@IEAA_NAEAPEAUansi_string@?1??type_case_Z@?$output_processor@DV?$stream_output_adapter@D@__crt_stdio_output@@V?$format_validation_base@DV?$stream_output_adapter@D@__crt_stdio_output@@@2@@1@AEAA_NXZ@@Z 0000000140020730 f i libucrt:output.obj
 0001:0001f748       ??$extract_argument_from_va_list@PEAUansi_string@?1??type_case_Z@?$output_processor@DV?$stream_output_adapter@D@__crt_stdio_output@@V?$positional_parameter_base@DV?$stream_output_adapter@D@__crt_stdio_output@@@2@@__crt_stdio_output@@AEAA_NXZ@PEAU1?1??234@AEAA_NXZ@@?$positional_parameter_base@DV?$stream_output_adapter@D@__crt_stdio_output@@@__crt_stdio_output@@IEAA_NAEAPEAUansi_string@?1??type_case_Z@?$output_processor@DV?$stream_output_adapter@D@__crt_stdio_output@@V?$positional_parameter_base@DV?$stream_output_adapter@D@__crt_stdio_output@@@2@@1@AEAA_NXZ@@Z 0000000140020748 f i libucrt:output.obj
 0001:0001f830       ??$extract_argument_from_va_list@PEAUansi_string@?1??type_case_Z@?$output_processor@DV?$stream_output_adapter@D@__crt_stdio_output@@V?$positional_parameter_base@DV?$stream_output_adapter@D@__crt_stdio_output@@@2@@__crt_stdio_output@@AEAA_NXZ@PEAU1?1??234@AEAA_NXZ@@?$standard_base@DV?$stream_output_adapter@D@__crt_stdio_output@@@__crt_stdio_output@@IEAA_NAEAPEAUansi_string@?1??type_case_Z@?$output_processor@DV?$stream_output_adapter@D@__crt_stdio_output@@V?$positional_parameter_base@DV?$stream_output_adapter@D@__crt_stdio_output@@@2@@1@AEAA_NXZ@@Z 0000000140020830 f i libucrt:output.obj
 0001:0001f848       ??$extract_argument_from_va_list@PEAUansi_string@?1??type_case_Z@?$output_processor@DV?$stream_output_adapter@D@__crt_stdio_output@@V?$standard_base@DV?$stream_output_adapter@D@__crt_stdio_output@@@2@@__crt_stdio_output@@AEAA_NXZ@PEAU1?1??234@AEAA_NXZ@@?$standard_base@DV?$stream_output_adapter@D@__crt_stdio_output@@@__crt_stdio_output@@IEAA_NAEAPEAUansi_string@?1??type_case_Z@?$output_processor@DV?$stream_output_adapter@D@__crt_stdio_output@@V?$standard_base@DV?$stream_output_adapter@D@__crt_stdio_output@@@2@@1@AEAA_NXZ@@Z 0000000140020848 f i libucrt:output.obj
 0001:0001f860       ??$extract_argument_from_va_list@PEAUansi_string@?1??type_case_Z@?$output_processor@DV?$string_output_adapter@D@__crt_stdio_output@@V?$format_validation_base@DV?$string_output_adapter@D@__crt_stdio_output@@@2@@__crt_stdio_output@@AEAA_NXZ@PEAU1?1??234@AEAA_NXZ@@?$standard_base@DV?$string_output_adapter@D@__crt_stdio_output@@@__crt_stdio_output@@IEAA_NAEAPEAUansi_string@?1??type_case_Z@?$output_processor@DV?$string_output_adapter@D@__crt_stdio_output@@V?$format_validation_base@DV?$string_output_adapter@D@__crt_stdio_output@@@2@@1@AEAA_NXZ@@Z 0000000140020860 f i libucrt:output.obj
 0001:0001f878       ??$extract_argument_from_va_list@PEAUansi_string@?1??type_case_Z@?$output_processor@DV?$string_output_adapter@D@__crt_stdio_output@@V?$positional_parameter_base@DV?$string_output_adapter@D@__crt_stdio_output@@@2@@__crt_stdio_output@@AEAA_NXZ@PEAU1?1??234@AEAA_NXZ@@?$positional_parameter_base@DV?$string_output_adapter@D@__crt_stdio_output@@@__crt_stdio_output@@IEAA_NAEAPEAUansi_string@?1??type_case_Z@?$output_processor@DV?$string_output_adapter@D@__crt_stdio_output@@V?$positional_parameter_base@DV?$string_output_adapter@D@__crt_stdio_output@@@2@@1@AEAA_NXZ@@Z 0000000140020878 f i libucrt:output.obj
 0001:0001f960       ??$extract_argument_from_va_list@PEAUansi_string@?1??type_case_Z@?$output_processor@DV?$string_output_adapter@D@__crt_stdio_output@@V?$positional_parameter_base@DV?$string_output_adapter@D@__crt_stdio_output@@@2@@__crt_stdio_output@@AEAA_NXZ@PEAU1?1??234@AEAA_NXZ@@?$standard_base@DV?$string_output_adapter@D@__crt_stdio_output@@@__crt_stdio_output@@IEAA_NAEAPEAUansi_string@?1??type_case_Z@?$output_processor@DV?$string_output_adapter@D@__crt_stdio_output@@V?$positional_parameter_base@DV?$string_output_adapter@D@__crt_stdio_output@@@2@@1@AEAA_NXZ@@Z 0000000140020960 f i libucrt:output.obj
 0001:0001f978       ??$extract_argument_from_va_list@PEAUansi_string@?1??type_case_Z@?$output_processor@DV?$string_output_adapter@D@__crt_stdio_output@@V?$standard_base@DV?$string_output_adapter@D@__crt_stdio_output@@@2@@__crt_stdio_output@@AEAA_NXZ@PEAU1?1??234@AEAA_NXZ@@?$standard_base@DV?$string_output_adapter@D@__crt_stdio_output@@@__crt_stdio_output@@IEAA_NAEAPEAUansi_string@?1??type_case_Z@?$output_processor@DV?$string_output_adapter@D@__crt_stdio_output@@V?$standard_base@DV?$string_output_adapter@D@__crt_stdio_output@@@2@@1@AEAA_NXZ@@Z 0000000140020978 f i libucrt:output.obj
 0001:0001f990       ??$extract_argument_from_va_list@PEAUansi_string@?1??type_case_Z@?$output_processor@_WV?$stream_output_adapter@_W@__crt_stdio_output@@V?$format_validation_base@_WV?$stream_output_adapter@_W@__crt_stdio_output@@@2@@__crt_stdio_output@@AEAA_NXZ@PEAU1?1??234@AEAA_NXZ@@?$standard_base@_WV?$stream_output_adapter@_W@__crt_stdio_output@@@__crt_stdio_output@@IEAA_NAEAPEAUansi_string@?1??type_case_Z@?$output_processor@_WV?$stream_output_adapter@_W@__crt_stdio_output@@V?$format_validation_base@_WV?$stream_output_adapter@_W@__crt_stdio_output@@@2@@1@AEAA_NXZ@@Z 0000000140020990 f i libucrt:output.obj
 0001:0001f9a8       ??$extract_argument_from_va_list@PEAUansi_string@?1??type_case_Z@?$output_processor@_WV?$stream_output_adapter@_W@__crt_stdio_output@@V?$positional_parameter_base@_WV?$stream_output_adapter@_W@__crt_stdio_output@@@2@@__crt_stdio_output@@AEAA_NXZ@PEAU1?1??234@AEAA_NXZ@@?$positional_parameter_base@_WV?$stream_output_adapter@_W@__crt_stdio_output@@@__crt_stdio_output@@IEAA_NAEAPEAUansi_string@?1??type_case_Z@?$output_processor@_WV?$stream_output_adapter@_W@__crt_stdio_output@@V?$positional_parameter_base@_WV?$stream_output_adapter@_W@__crt_stdio_output@@@2@@1@AEAA_NXZ@@Z 00000001400209a8 f i libucrt:output.obj
 0001:0001fa94       ??$extract_argument_from_va_list@PEAUansi_string@?1??type_case_Z@?$output_processor@_WV?$stream_output_adapter@_W@__crt_stdio_output@@V?$positional_parameter_base@_WV?$stream_output_adapter@_W@__crt_stdio_output@@@2@@__crt_stdio_output@@AEAA_NXZ@PEAU1?1??234@AEAA_NXZ@@?$standard_base@_WV?$stream_output_adapter@_W@__crt_stdio_output@@@__crt_stdio_output@@IEAA_NAEAPEAUansi_string@?1??type_case_Z@?$output_processor@_WV?$stream_output_adapter@_W@__crt_stdio_output@@V?$positional_parameter_base@_WV?$stream_output_adapter@_W@__crt_stdio_output@@@2@@1@AEAA_NXZ@@Z 0000000140020a94 f i libucrt:output.obj
 0001:0001faac       ??$extract_argument_from_va_list@PEAUansi_string@?1??type_case_Z@?$output_processor@_WV?$stream_output_adapter@_W@__crt_stdio_output@@V?$standard_base@_WV?$stream_output_adapter@_W@__crt_stdio_output@@@2@@__crt_stdio_output@@AEAA_NXZ@PEAU1?1??234@AEAA_NXZ@@?$standard_base@_WV?$stream_output_adapter@_W@__crt_stdio_output@@@__crt_stdio_output@@IEAA_NAEAPEAUansi_string@?1??type_case_Z@?$output_processor@_WV?$stream_output_adapter@_W@__crt_stdio_output@@V?$standard_base@_WV?$stream_output_adapter@_W@__crt_stdio_output@@@2@@1@AEAA_NXZ@@Z 0000000140020aac f i libucrt:output.obj
 0001:0001fac4       ??$extract_argument_from_va_list@PEAUansi_string@?1??type_case_Z@?$output_processor@_WV?$string_output_adapter@_W@__crt_stdio_output@@V?$format_validation_base@_WV?$string_output_adapter@_W@__crt_stdio_output@@@2@@__crt_stdio_output@@AEAA_NXZ@PEAU1?1??234@AEAA_NXZ@@?$standard_base@_WV?$string_output_adapter@_W@__crt_stdio_output@@@__crt_stdio_output@@IEAA_NAEAPEAUansi_string@?1??type_case_Z@?$output_processor@_WV?$string_output_adapter@_W@__crt_stdio_output@@V?$format_validation_base@_WV?$string_output_adapter@_W@__crt_stdio_output@@@2@@1@AEAA_NXZ@@Z 0000000140020ac4 f i libucrt:output.obj
 0001:0001fadc       ??$extract_argument_from_va_list@PEAUansi_string@?1??type_case_Z@?$output_processor@_WV?$string_output_adapter@_W@__crt_stdio_output@@V?$positional_parameter_base@_WV?$string_output_adapter@_W@__crt_stdio_output@@@2@@__crt_stdio_output@@AEAA_NXZ@PEAU1?1??234@AEAA_NXZ@@?$positional_parameter_base@_WV?$string_output_adapter@_W@__crt_stdio_output@@@__crt_stdio_output@@IEAA_NAEAPEAUansi_string@?1??type_case_Z@?$output_processor@_WV?$string_output_adapter@_W@__crt_stdio_output@@V?$positional_parameter_base@_WV?$string_output_adapter@_W@__crt_stdio_output@@@2@@1@AEAA_NXZ@@Z 0000000140020adc f i libucrt:output.obj
 0001:0001fbc8       ??$extract_argument_from_va_list@PEAUansi_string@?1??type_case_Z@?$output_processor@_WV?$string_output_adapter@_W@__crt_stdio_output@@V?$positional_parameter_base@_WV?$string_output_adapter@_W@__crt_stdio_output@@@2@@__crt_stdio_output@@AEAA_NXZ@PEAU1?1??234@AEAA_NXZ@@?$standard_base@_WV?$string_output_adapter@_W@__crt_stdio_output@@@__crt_stdio_output@@IEAA_NAEAPEAUansi_string@?1??type_case_Z@?$output_processor@_WV?$string_output_adapter@_W@__crt_stdio_output@@V?$positional_parameter_base@_WV?$string_output_adapter@_W@__crt_stdio_output@@@2@@1@AEAA_NXZ@@Z 0000000140020bc8 f i libucrt:output.obj
 0001:0001fbe0       ??$extract_argument_from_va_list@PEAUansi_string@?1??type_case_Z@?$output_processor@_WV?$string_output_adapter@_W@__crt_stdio_output@@V?$standard_base@_WV?$string_output_adapter@_W@__crt_stdio_output@@@2@@__crt_stdio_output@@AEAA_NXZ@PEAU1?1??234@AEAA_NXZ@@?$standard_base@_WV?$string_output_adapter@_W@__crt_stdio_output@@@__crt_stdio_output@@IEAA_NAEAPEAUansi_string@?1??type_case_Z@?$output_processor@_WV?$string_output_adapter@_W@__crt_stdio_output@@V?$standard_base@_WV?$string_output_adapter@_W@__crt_stdio_output@@@2@@1@AEAA_NXZ@@Z 0000000140020be0 f i libucrt:output.obj
 0001:0001fbf8       ??$extract_argument_from_va_list@PEAXPEAX@?$positional_parameter_base@DV?$stream_output_adapter@D@__crt_stdio_output@@@__crt_stdio_output@@IEAA_NAEAPEAX@Z 0000000140020bf8 f i libucrt:output.obj
 0001:0001fce0       ??$extract_argument_from_va_list@PEAXPEAX@?$positional_parameter_base@DV?$string_output_adapter@D@__crt_stdio_output@@@__crt_stdio_output@@IEAA_NAEAPEAX@Z 0000000140020ce0 f i libucrt:output.obj
 0001:0001fdc8       ??$extract_argument_from_va_list@PEAXPEAX@?$positional_parameter_base@_WV?$stream_output_adapter@_W@__crt_stdio_output@@@__crt_stdio_output@@IEAA_NAEAPEAX@Z 0000000140020dc8 f i libucrt:output.obj
 0001:0001feb4       ??$extract_argument_from_va_list@PEAXPEAX@?$positional_parameter_base@_WV?$string_output_adapter@_W@__crt_stdio_output@@@__crt_stdio_output@@IEAA_NAEAPEAX@Z 0000000140020eb4 f i libucrt:output.obj
 0001:0001ffa0       ??$extract_argument_from_va_list@PEAXPEAX@?$standard_base@DV?$stream_output_adapter@D@__crt_stdio_output@@@__crt_stdio_output@@IEAA_NAEAPEAX@Z 0000000140020fa0 f i libucrt:output.obj
 0001:0001ffb8       ??$extract_argument_from_va_list@PEAXPEAX@?$standard_base@DV?$string_output_adapter@D@__crt_stdio_output@@@__crt_stdio_output@@IEAA_NAEAPEAX@Z 0000000140020fb8 f i libucrt:output.obj
 0001:0001ffd0       ??$extract_argument_from_va_list@PEAXPEAX@?$standard_base@_WV?$stream_output_adapter@_W@__crt_stdio_output@@@__crt_stdio_output@@IEAA_NAEAPEAX@Z 0000000140020fd0 f i libucrt:output.obj
 0001:0001ffe8       ??$extract_argument_from_va_list@PEAXPEAX@?$standard_base@_WV?$string_output_adapter@_W@__crt_stdio_output@@@__crt_stdio_output@@IEAA_NAEAPEAX@Z 0000000140020fe8 f i libucrt:output.obj
 0001:00020000       ??$extract_argument_from_va_list@U_CRT_DOUBLE@@U1@@?$positional_parameter_base@DV?$stream_output_adapter@D@__crt_stdio_output@@@__crt_stdio_output@@IEAA_NAEAU_CRT_DOUBLE@@@Z 0000000140021000 f i libucrt:output.obj
 0001:000200e8       ??$extract_argument_from_va_list@U_CRT_DOUBLE@@U1@@?$positional_parameter_base@DV?$string_output_adapter@D@__crt_stdio_output@@@__crt_stdio_output@@IEAA_NAEAU_CRT_DOUBLE@@@Z 00000001400210e8 f i libucrt:output.obj
 0001:000201d0       ??$extract_argument_from_va_list@U_CRT_DOUBLE@@U1@@?$positional_parameter_base@_WV?$stream_output_adapter@_W@__crt_stdio_output@@@__crt_stdio_output@@IEAA_NAEAU_CRT_DOUBLE@@@Z 00000001400211d0 f i libucrt:output.obj
 0001:000202bc       ??$extract_argument_from_va_list@U_CRT_DOUBLE@@U1@@?$positional_parameter_base@_WV?$string_output_adapter@_W@__crt_stdio_output@@@__crt_stdio_output@@IEAA_NAEAU_CRT_DOUBLE@@@Z 00000001400212bc f i libucrt:output.obj
 0001:000203a8       ??$extract_argument_from_va_list@U_CRT_DOUBLE@@U1@@?$standard_base@DV?$stream_output_adapter@D@__crt_stdio_output@@@__crt_stdio_output@@IEAA_NAEAU_CRT_DOUBLE@@@Z 00000001400213a8 f i libucrt:output.obj
 0001:000203c4       ??$extract_argument_from_va_list@U_CRT_DOUBLE@@U1@@?$standard_base@DV?$string_output_adapter@D@__crt_stdio_output@@@__crt_stdio_output@@IEAA_NAEAU_CRT_DOUBLE@@@Z 00000001400213c4 f i libucrt:output.obj
 0001:000203e0       ??$extract_argument_from_va_list@U_CRT_DOUBLE@@U1@@?$standard_base@_WV?$stream_output_adapter@_W@__crt_stdio_output@@@__crt_stdio_output@@IEAA_NAEAU_CRT_DOUBLE@@@Z 00000001400213e0 f i libucrt:output.obj
 0001:000203fc       ??$extract_argument_from_va_list@U_CRT_DOUBLE@@U1@@?$standard_base@_WV?$string_output_adapter@_W@__crt_stdio_output@@@__crt_stdio_output@@IEAA_NAEAU_CRT_DOUBLE@@@Z 00000001400213fc f i libucrt:output.obj
 0001:00020418       ??$extract_argument_from_va_list@_J_J@?$positional_parameter_base@DV?$stream_output_adapter@D@__crt_stdio_output@@@__crt_stdio_output@@IEAA_NAEA_J@Z 0000000140021418 f i libucrt:output.obj
 0001:00020500       ??$extract_argument_from_va_list@_J_J@?$positional_parameter_base@DV?$string_output_adapter@D@__crt_stdio_output@@@__crt_stdio_output@@IEAA_NAEA_J@Z 0000000140021500 f i libucrt:output.obj
 0001:000205e8       ??$extract_argument_from_va_list@_J_J@?$positional_parameter_base@_WV?$stream_output_adapter@_W@__crt_stdio_output@@@__crt_stdio_output@@IEAA_NAEA_J@Z 00000001400215e8 f i libucrt:output.obj
 0001:000206d4       ??$extract_argument_from_va_list@_J_J@?$positional_parameter_base@_WV?$string_output_adapter@_W@__crt_stdio_output@@@__crt_stdio_output@@IEAA_NAEA_J@Z 00000001400216d4 f i libucrt:output.obj
 0001:000207c0       ??$extract_argument_from_va_list@_J_J@?$standard_base@DV?$stream_output_adapter@D@__crt_stdio_output@@@__crt_stdio_output@@IEAA_NAEA_J@Z 00000001400217c0 f i libucrt:output.obj
 0001:000207d8       ??$extract_argument_from_va_list@_J_J@?$standard_base@DV?$string_output_adapter@D@__crt_stdio_output@@@__crt_stdio_output@@IEAA_NAEA_J@Z 00000001400217d8 f i libucrt:output.obj
 0001:000207f0       ??$extract_argument_from_va_list@_J_J@?$standard_base@_WV?$stream_output_adapter@_W@__crt_stdio_output@@@__crt_stdio_output@@IEAA_NAEA_J@Z 00000001400217f0 f i libucrt:output.obj
 0001:00020808       ??$extract_argument_from_va_list@_J_J@?$standard_base@_WV?$string_output_adapter@_W@__crt_stdio_output@@@__crt_stdio_output@@IEAA_NAEA_J@Z 0000000140021808 f i libucrt:output.obj
 0001:00020820       ??$extract_argument_from_va_list@_K_J@?$positional_parameter_base@DV?$stream_output_adapter@D@__crt_stdio_output@@@__crt_stdio_output@@IEAA_NAEA_J@Z 0000000140021820 f i libucrt:output.obj
 0001:00020908       ??$extract_argument_from_va_list@_K_J@?$positional_parameter_base@DV?$string_output_adapter@D@__crt_stdio_output@@@__crt_stdio_output@@IEAA_NAEA_J@Z 0000000140021908 f i libucrt:output.obj
 0001:000209f0       ??$extract_argument_from_va_list@_K_J@?$positional_parameter_base@_WV?$stream_output_adapter@_W@__crt_stdio_output@@@__crt_stdio_output@@IEAA_NAEA_J@Z 00000001400219f0 f i libucrt:output.obj
 0001:00020adc       ??$extract_argument_from_va_list@_K_J@?$positional_parameter_base@_WV?$string_output_adapter@_W@__crt_stdio_output@@@__crt_stdio_output@@IEAA_NAEA_J@Z 0000000140021adc f i libucrt:output.obj
 0001:00020bc8       ??$extract_argument_from_va_list@_K_J@?$standard_base@DV?$stream_output_adapter@D@__crt_stdio_output@@@__crt_stdio_output@@IEAA_NAEA_J@Z 0000000140021bc8 f i libucrt:output.obj
 0001:00020be0       ??$extract_argument_from_va_list@_K_J@?$standard_base@DV?$string_output_adapter@D@__crt_stdio_output@@@__crt_stdio_output@@IEAA_NAEA_J@Z 0000000140021be0 f i libucrt:output.obj
 0001:00020bf8       ??$extract_argument_from_va_list@_K_J@?$standard_base@_WV?$stream_output_adapter@_W@__crt_stdio_output@@@__crt_stdio_output@@IEAA_NAEA_J@Z 0000000140021bf8 f i libucrt:output.obj
 0001:00020c10       ??$extract_argument_from_va_list@_K_J@?$standard_base@_WV?$string_output_adapter@_W@__crt_stdio_output@@@__crt_stdio_output@@IEAA_NAEA_J@Z 0000000140021c10 f i libucrt:output.obj
 0001:00020c28       ??$extract_argument_from_va_list@_W_W@?$positional_parameter_base@DV?$stream_output_adapter@D@__crt_stdio_output@@@__crt_stdio_output@@IEAA_NAEA_W@Z 0000000140021c28 f i libucrt:output.obj
 0001:00020d14       ??$extract_argument_from_va_list@_W_W@?$positional_parameter_base@DV?$string_output_adapter@D@__crt_stdio_output@@@__crt_stdio_output@@IEAA_NAEA_W@Z 0000000140021d14 f i libucrt:output.obj
 0001:00020e00       ??$extract_argument_from_va_list@_W_W@?$positional_parameter_base@_WV?$stream_output_adapter@_W@__crt_stdio_output@@@__crt_stdio_output@@IEAA_NAEA_W@Z 0000000140021e00 f i libucrt:output.obj
 0001:00020ef0       ??$extract_argument_from_va_list@_W_W@?$positional_parameter_base@_WV?$string_output_adapter@_W@__crt_stdio_output@@@__crt_stdio_output@@IEAA_NAEA_W@Z 0000000140021ef0 f i libucrt:output.obj
 0001:00020fe0       ??$extract_argument_from_va_list@_W_W@?$standard_base@DV?$stream_output_adapter@D@__crt_stdio_output@@@__crt_stdio_output@@IEAA_NAEA_W@Z 0000000140021fe0 f i libucrt:output.obj
 0001:00020ff8       ??$extract_argument_from_va_list@_W_W@?$standard_base@DV?$string_output_adapter@D@__crt_stdio_output@@@__crt_stdio_output@@IEAA_NAEA_W@Z 0000000140021ff8 f i libucrt:output.obj
 0001:00021010       ??$extract_argument_from_va_list@_W_W@?$standard_base@_WV?$stream_output_adapter@_W@__crt_stdio_output@@@__crt_stdio_output@@IEAA_NAEA_W@Z 0000000140022010 f i libucrt:output.obj
 0001:00021028       ??$extract_argument_from_va_list@_W_W@?$standard_base@_WV?$string_output_adapter@_W@__crt_stdio_output@@@__crt_stdio_output@@IEAA_NAEA_W@Z 0000000140022028 f i libucrt:output.obj
 0001:00021040       ??$get_parameter_type@D@?$positional_parameter_base@DV?$stream_output_adapter@D@__crt_stdio_output@@@__crt_stdio_output@@CA?AW4parameter_type@01@PEAD@Z 0000000140022040 f i libucrt:output.obj
 0001:00021048       ??$get_parameter_type@D@?$positional_parameter_base@DV?$string_output_adapter@D@__crt_stdio_output@@@__crt_stdio_output@@CA?AW4parameter_type@01@PEAD@Z 0000000140022048 f i libucrt:output.obj
 0001:00021050       ??$get_parameter_type@D@?$positional_parameter_base@_WV?$stream_output_adapter@_W@__crt_stdio_output@@@__crt_stdio_output@@CA?AW4parameter_type@01@PEAD@Z 0000000140022050 f i libucrt:output.obj
 0001:00021058       ??$get_parameter_type@D@?$positional_parameter_base@_WV?$string_output_adapter@_W@__crt_stdio_output@@@__crt_stdio_output@@CA?AW4parameter_type@01@PEAD@Z 0000000140022058 f i libucrt:output.obj
 0001:00021060       ??$get_parameter_type@Uansi_string@?1??type_case_Z@?$output_processor@DV?$stream_output_adapter@D@__crt_stdio_output@@V?$positional_parameter_base@DV?$stream_output_adapter@D@__crt_stdio_output@@@2@@__crt_stdio_output@@AEAA_NXZ@@?$positional_parameter_base@DV?$stream_output_adapter@D@__crt_stdio_output@@@__crt_stdio_output@@CA?AW4parameter_type@01@PEAUansi_string@?1??type_case_Z@?$output_processor@DV?$stream_output_adapter@D@__crt_stdio_output@@V?$positional_parameter_base@DV?$stream_output_adapter@D@__crt_stdio_output@@@2@@1@AEAA_NXZ@@Z 0000000140022060 f i libucrt:output.obj
 0001:00021068       ??$get_parameter_type@Uansi_string@?1??type_case_Z@?$output_processor@DV?$string_output_adapter@D@__crt_stdio_output@@V?$positional_parameter_base@DV?$string_output_adapter@D@__crt_stdio_output@@@2@@__crt_stdio_output@@AEAA_NXZ@@?$positional_parameter_base@DV?$string_output_adapter@D@__crt_stdio_output@@@__crt_stdio_output@@CA?AW4parameter_type@01@PEAUansi_string@?1??type_case_Z@?$output_processor@DV?$string_output_adapter@D@__crt_stdio_output@@V?$positional_parameter_base@DV?$string_output_adapter@D@__crt_stdio_output@@@2@@1@AEAA_NXZ@@Z 0000000140022068 f i libucrt:output.obj
 0001:00021070       ??$get_parameter_type@Uansi_string@?1??type_case_Z@?$output_processor@_WV?$stream_output_adapter@_W@__crt_stdio_output@@V?$positional_parameter_base@_WV?$stream_output_adapter@_W@__crt_stdio_output@@@2@@__crt_stdio_output@@AEAA_NXZ@@?$positional_parameter_base@_WV?$stream_output_adapter@_W@__crt_stdio_output@@@__crt_stdio_output@@CA?AW4parameter_type@01@PEAUansi_string@?1??type_case_Z@?$output_processor@_WV?$stream_output_adapter@_W@__crt_stdio_output@@V?$positional_parameter_base@_WV?$stream_output_adapter@_W@__crt_stdio_output@@@2@@1@AEAA_NXZ@@Z 0000000140022070 f i libucrt:output.obj
 0001:00021078       ??$get_parameter_type@Uansi_string@?1??type_case_Z@?$output_processor@_WV?$string_output_adapter@_W@__crt_stdio_output@@V?$positional_parameter_base@_WV?$string_output_adapter@_W@__crt_stdio_output@@@2@@__crt_stdio_output@@AEAA_NXZ@@?$positional_parameter_base@_WV?$string_output_adapter@_W@__crt_stdio_output@@@__crt_stdio_output@@CA?AW4parameter_type@01@PEAUansi_string@?1??type_case_Z@?$output_processor@_WV?$string_output_adapter@_W@__crt_stdio_output@@V?$positional_parameter_base@_WV?$string_output_adapter@_W@__crt_stdio_output@@@2@@1@AEAA_NXZ@@Z 0000000140022078 f i libucrt:output.obj
 0001:00021080       ??$get_parameter_type@X@?$positional_parameter_base@DV?$stream_output_adapter@D@__crt_stdio_output@@@__crt_stdio_output@@CA?AW4parameter_type@01@PEAX@Z 0000000140022080 f i libucrt:output.obj
 0001:00021088       ??$get_parameter_type@X@?$positional_parameter_base@DV?$string_output_adapter@D@__crt_stdio_output@@@__crt_stdio_output@@CA?AW4parameter_type@01@PEAX@Z 0000000140022088 f i libucrt:output.obj
 0001:00021090       ??$get_parameter_type@X@?$positional_parameter_base@_WV?$stream_output_adapter@_W@__crt_stdio_output@@@__crt_stdio_output@@CA?AW4parameter_type@01@PEAX@Z 0000000140022090 f i libucrt:output.obj
 0001:00021098       ??$get_parameter_type@X@?$positional_parameter_base@_WV?$string_output_adapter@_W@__crt_stdio_output@@@__crt_stdio_output@@CA?AW4parameter_type@01@PEAX@Z 0000000140022098 f i libucrt:output.obj
 0001:000210a0       ??$is_character_specifier@D@?$positional_parameter_base@DV?$stream_output_adapter@D@__crt_stdio_output@@@__crt_stdio_output@@CA_ND@Z 00000001400220a0 f i libucrt:output.obj
 0001:000210ac       ??$is_character_specifier@D@?$positional_parameter_base@DV?$string_output_adapter@D@__crt_stdio_output@@@__crt_stdio_output@@CA_ND@Z 00000001400220ac f i libucrt:output.obj
 0001:000210b8       ??$is_character_specifier@_W@?$positional_parameter_base@_WV?$stream_output_adapter@_W@__crt_stdio_output@@@__crt_stdio_output@@CA_N_W@Z 00000001400220b8 f i libucrt:output.obj
 0001:000210cc       ??$is_character_specifier@_W@?$positional_parameter_base@_WV?$string_output_adapter@_W@__crt_stdio_output@@@__crt_stdio_output@@CA_N_W@Z 00000001400220cc f i libucrt:output.obj
 0001:000210e0       ??$is_integral_specifier@D@?$positional_parameter_base@DV?$stream_output_adapter@D@__crt_stdio_output@@@__crt_stdio_output@@CA_ND@Z 00000001400220e0 f i libucrt:output.obj
 0001:0002110c       ??$is_integral_specifier@D@?$positional_parameter_base@DV?$string_output_adapter@D@__crt_stdio_output@@@__crt_stdio_output@@CA_ND@Z 000000014002210c f i libucrt:output.obj
 0001:00021138       ??$is_integral_specifier@_W@?$positional_parameter_base@_WV?$stream_output_adapter@_W@__crt_stdio_output@@@__crt_stdio_output@@CA_N_W@Z 0000000140022138 f i libucrt:output.obj
 0001:00021168       ??$is_integral_specifier@_W@?$positional_parameter_base@_WV?$string_output_adapter@_W@__crt_stdio_output@@@__crt_stdio_output@@CA_N_W@Z 0000000140022168 f i libucrt:output.obj
 0001:00021198       ??$is_pointer_specifier@D@?$positional_parameter_base@DV?$stream_output_adapter@D@__crt_stdio_output@@@__crt_stdio_output@@CA_ND@Z 0000000140022198 f i libucrt:output.obj
 0001:000211a0       ??$is_pointer_specifier@D@?$positional_parameter_base@DV?$string_output_adapter@D@__crt_stdio_output@@@__crt_stdio_output@@CA_ND@Z 00000001400221a0 f i libucrt:output.obj
 0001:000211a8       ??$is_pointer_specifier@_W@?$positional_parameter_base@_WV?$stream_output_adapter@_W@__crt_stdio_output@@@__crt_stdio_output@@CA_N_W@Z 00000001400221a8 f i libucrt:output.obj
 0001:000211b4       ??$is_pointer_specifier@_W@?$positional_parameter_base@_WV?$string_output_adapter@_W@__crt_stdio_output@@@__crt_stdio_output@@CA_N_W@Z 00000001400221b4 f i libucrt:output.obj
 0001:000211c0       ??$is_string_specifier@D@?$positional_parameter_base@DV?$stream_output_adapter@D@__crt_stdio_output@@@__crt_stdio_output@@CA_ND@Z 00000001400221c0 f i libucrt:output.obj
 0001:000211cc       ??$is_string_specifier@D@?$positional_parameter_base@DV?$string_output_adapter@D@__crt_stdio_output@@@__crt_stdio_output@@CA_ND@Z 00000001400221cc f i libucrt:output.obj
 0001:000211d8       ??$is_string_specifier@_W@?$positional_parameter_base@_WV?$stream_output_adapter@_W@__crt_stdio_output@@@__crt_stdio_output@@CA_N_W@Z 00000001400221d8 f i libucrt:output.obj
 0001:000211ec       ??$is_string_specifier@_W@?$positional_parameter_base@_WV?$string_output_adapter@_W@__crt_stdio_output@@@__crt_stdio_output@@CA_N_W@Z 00000001400221ec f i libucrt:output.obj
 0001:00021200       ??$is_wide_character_specifier@D@__crt_stdio_output@@YA_N_KDW4length_modifier@0@@Z 0000000140022200 f i libucrt:output.obj
 0001:00021234       ??$is_wide_character_specifier@_W@__crt_stdio_output@@YA_N_K_WW4length_modifier@0@@Z 0000000140022234 f i libucrt:output.obj
 0001:00021284       ??$peek_va_arg@C@__crt_stdio_output@@YACPEAD@Z 0000000140022284 f i libucrt:output.obj
 0001:00021288       ??$peek_va_arg@E@__crt_stdio_output@@YAEPEAD@Z 0000000140022288 f i libucrt:output.obj
 0001:0002128c       ??$peek_va_arg@F@__crt_stdio_output@@YAFPEAD@Z 000000014002228c f i libucrt:output.obj
 0001:00021290       ??$peek_va_arg@G@__crt_stdio_output@@YAGPEAD@Z 0000000140022290 f i libucrt:output.obj
 0001:00021294       ??$peek_va_arg@H@__crt_stdio_output@@YAHPEAD@Z 0000000140022294 f i libucrt:output.obj
 0001:00021298       ??$peek_va_arg@I@__crt_stdio_output@@YAIPEAD@Z 0000000140022298 f i libucrt:output.obj
 0001:0002129c       ??$peek_va_arg@PEAD@__crt_stdio_output@@YAPEADPEAD@Z 000000014002229c f i libucrt:output.obj
 0001:000212a0       ??$peek_va_arg@PEAUansi_string@?1??type_case_Z@?$output_processor@DV?$stream_output_adapter@D@__crt_stdio_output@@V?$positional_parameter_base@DV?$stream_output_adapter@D@__crt_stdio_output@@@2@@__crt_stdio_output@@AEAA_NXZ@@__crt_stdio_output@@YAPEAUansi_string@?1??type_case_Z@?$output_processor@DV?$stream_output_adapter@D@__crt_stdio_output@@V?$positional_parameter_base@DV?$stream_output_adapter@D@__crt_stdio_output@@@2@@0@AEAA_NXZ@PEAD@Z 00000001400222a0 f i libucrt:output.obj
 0001:000212a4       ??$peek_va_arg@PEAUansi_string@?1??type_case_Z@?$output_processor@DV?$string_output_adapter@D@__crt_stdio_output@@V?$positional_parameter_base@DV?$string_output_adapter@D@__crt_stdio_output@@@2@@__crt_stdio_output@@AEAA_NXZ@@__crt_stdio_output@@YAPEAUansi_string@?1??type_case_Z@?$output_processor@DV?$string_output_adapter@D@__crt_stdio_output@@V?$positional_parameter_base@DV?$string_output_adapter@D@__crt_stdio_output@@@2@@0@AEAA_NXZ@PEAD@Z 00000001400222a4 f i libucrt:output.obj
 0001:000212a8       ??$peek_va_arg@PEAUansi_string@?1??type_case_Z@?$output_processor@_WV?$stream_output_adapter@_W@__crt_stdio_output@@V?$positional_parameter_base@_WV?$stream_output_adapter@_W@__crt_stdio_output@@@2@@__crt_stdio_output@@AEAA_NXZ@@__crt_stdio_output@@YAPEAUansi_string@?1??type_case_Z@?$output_processor@_WV?$stream_output_adapter@_W@__crt_stdio_output@@V?$positional_parameter_base@_WV?$stream_output_adapter@_W@__crt_stdio_output@@@2@@0@AEAA_NXZ@PEAD@Z 00000001400222a8 f i libucrt:output.obj
 0001:000212ac       ??$peek_va_arg@PEAUansi_string@?1??type_case_Z@?$output_processor@_WV?$string_output_adapter@_W@__crt_stdio_output@@V?$positional_parameter_base@_WV?$string_output_adapter@_W@__crt_stdio_output@@@2@@__crt_stdio_output@@AEAA_NXZ@@__crt_stdio_output@@YAPEAUansi_string@?1??type_case_Z@?$output_processor@_WV?$string_output_adapter@_W@__crt_stdio_output@@V?$positional_parameter_base@_WV?$string_output_adapter@_W@__crt_stdio_output@@@2@@0@AEAA_NXZ@PEAD@Z 00000001400222ac f i libucrt:output.obj
 0001:000212b0       ??$peek_va_arg@PEAX@__crt_stdio_output@@YAPEAXPEAD@Z 00000001400222b0 f i libucrt:output.obj
 0001:000212b4       ??$peek_va_arg@U_CRT_DOUBLE@@@__crt_stdio_output@@YA?AU_CRT_DOUBLE@@PEAD@Z 00000001400222b4 f i libucrt:output.obj
 0001:000212b8       ??$peek_va_arg@_J@__crt_stdio_output@@YA_JPEAD@Z 00000001400222b8 f i libucrt:output.obj
 0001:000212bc       ??$peek_va_arg@_K@__crt_stdio_output@@YA_KPEAD@Z 00000001400222bc f i libucrt:output.obj
 0001:000212c0       ??$peek_va_arg@_W@__crt_stdio_output@@YA_WPEAD@Z 00000001400222c0 f i libucrt:output.obj
 0001:000212c4       ??$puttc_nolock@AEBDPEAU_iobuf@@@?$__crt_char_traits@D@@SAHAEBD$$QEAPEAU_iobuf@@@Z 00000001400222c4 f i libucrt:output.obj
 0001:000212d4       ??$puttc_nolock@AEB_WPEAU_iobuf@@@?$__crt_char_traits@_W@@SAGAEB_W$$QEAPEAU_iobuf@@@Z 00000001400222d4 f i libucrt:output.obj
 0001:000212e4       ??$read_va_arg@C@__crt_stdio_output@@YACAEAPEAD@Z 00000001400222e4 f i libucrt:output.obj
 0001:000212f4       ??$read_va_arg@E@__crt_stdio_output@@YAEAEAPEAD@Z 00000001400222f4 f i libucrt:output.obj
 0001:00021304       ??$read_va_arg@F@__crt_stdio_output@@YAFAEAPEAD@Z 0000000140022304 f i libucrt:output.obj
 0001:00021314       ??$read_va_arg@G@__crt_stdio_output@@YAGAEAPEAD@Z 0000000140022314 f i libucrt:output.obj
 0001:00021324       ??$read_va_arg@H@__crt_stdio_output@@YAHAEAPEAD@Z 0000000140022324 f i libucrt:output.obj
 0001:00021334       ??$read_va_arg@I@__crt_stdio_output@@YAIAEAPEAD@Z 0000000140022334 f i libucrt:output.obj
 0001:00021344       ??$read_va_arg@PEAD@__crt_stdio_output@@YAPEADAEAPEAD@Z 0000000140022344 f i libucrt:output.obj
 0001:00021354       ??$read_va_arg@PEAUansi_string@?1??type_case_Z@?$output_processor@DV?$stream_output_adapter@D@__crt_stdio_output@@V?$format_validation_base@DV?$stream_output_adapter@D@__crt_stdio_output@@@2@@__crt_stdio_output@@AEAA_NXZ@@__crt_stdio_output@@YAPEAUansi_string@?1??type_case_Z@?$output_processor@DV?$stream_output_adapter@D@__crt_stdio_output@@V?$format_validation_base@DV?$stream_output_adapter@D@__crt_stdio_output@@@2@@0@AEAA_NXZ@AEAPEAD@Z 0000000140022354 f i libucrt:output.obj
 0001:00021364       ??$read_va_arg@PEAUansi_string@?1??type_case_Z@?$output_processor@DV?$stream_output_adapter@D@__crt_stdio_output@@V?$positional_parameter_base@DV?$stream_output_adapter@D@__crt_stdio_output@@@2@@__crt_stdio_output@@AEAA_NXZ@@__crt_stdio_output@@YAPEAUansi_string@?1??type_case_Z@?$output_processor@DV?$stream_output_adapter@D@__crt_stdio_output@@V?$positional_parameter_base@DV?$stream_output_adapter@D@__crt_stdio_output@@@2@@0@AEAA_NXZ@AEAPEAD@Z 0000000140022364 f i libucrt:output.obj
 0001:00021374       ??$read_va_arg@PEAUansi_string@?1??type_case_Z@?$output_processor@DV?$stream_output_adapter@D@__crt_stdio_output@@V?$standard_base@DV?$stream_output_adapter@D@__crt_stdio_output@@@2@@__crt_stdio_output@@AEAA_NXZ@@__crt_stdio_output@@YAPEAUansi_string@?1??type_case_Z@?$output_processor@DV?$stream_output_adapter@D@__crt_stdio_output@@V?$standard_base@DV?$stream_output_adapter@D@__crt_stdio_output@@@2@@0@AEAA_NXZ@AEAPEAD@Z 0000000140022374 f i libucrt:output.obj
 0001:00021384       ??$read_va_arg@PEAUansi_string@?1??type_case_Z@?$output_processor@DV?$string_output_adapter@D@__crt_stdio_output@@V?$format_validation_base@DV?$string_output_adapter@D@__crt_stdio_output@@@2@@__crt_stdio_output@@AEAA_NXZ@@__crt_stdio_output@@YAPEAUansi_string@?1??type_case_Z@?$output_processor@DV?$string_output_adapter@D@__crt_stdio_output@@V?$format_validation_base@DV?$string_output_adapter@D@__crt_stdio_output@@@2@@0@AEAA_NXZ@AEAPEAD@Z 0000000140022384 f i libucrt:output.obj
 0001:00021394       ??$read_va_arg@PEAUansi_string@?1??type_case_Z@?$output_processor@DV?$string_output_adapter@D@__crt_stdio_output@@V?$positional_parameter_base@DV?$string_output_adapter@D@__crt_stdio_output@@@2@@__crt_stdio_output@@AEAA_NXZ@@__crt_stdio_output@@YAPEAUansi_string@?1??type_case_Z@?$output_processor@DV?$string_output_adapter@D@__crt_stdio_output@@V?$positional_parameter_base@DV?$string_output_adapter@D@__crt_stdio_output@@@2@@0@AEAA_NXZ@AEAPEAD@Z 0000000140022394 f i libucrt:output.obj
 0001:000213a4       ??$read_va_arg@PEAUansi_string@?1??type_case_Z@?$output_processor@DV?$string_output_adapter@D@__crt_stdio_output@@V?$standard_base@DV?$string_output_adapter@D@__crt_stdio_output@@@2@@__crt_stdio_output@@AEAA_NXZ@@__crt_stdio_output@@YAPEAUansi_string@?1??type_case_Z@?$output_processor@DV?$string_output_adapter@D@__crt_stdio_output@@V?$standard_base@DV?$string_output_adapter@D@__crt_stdio_output@@@2@@0@AEAA_NXZ@AEAPEAD@Z 00000001400223a4 f i libucrt:output.obj
 0001:000213b4       ??$read_va_arg@PEAUansi_string@?1??type_case_Z@?$output_processor@_WV?$stream_output_adapter@_W@__crt_stdio_output@@V?$format_validation_base@_WV?$stream_output_adapter@_W@__crt_stdio_output@@@2@@__crt_stdio_output@@AEAA_NXZ@@__crt_stdio_output@@YAPEAUansi_string@?1??type_case_Z@?$output_processor@_WV?$stream_output_adapter@_W@__crt_stdio_output@@V?$format_validation_base@_WV?$stream_output_adapter@_W@__crt_stdio_output@@@2@@0@AEAA_NXZ@AEAPEAD@Z 00000001400223b4 f i libucrt:output.obj
 0001:000213c4       ??$read_va_arg@PEAUansi_string@?1??type_case_Z@?$output_processor@_WV?$stream_output_adapter@_W@__crt_stdio_output@@V?$positional_parameter_base@_WV?$stream_output_adapter@_W@__crt_stdio_output@@@2@@__crt_stdio_output@@AEAA_NXZ@@__crt_stdio_output@@YAPEAUansi_string@?1??type_case_Z@?$output_processor@_WV?$stream_output_adapter@_W@__crt_stdio_output@@V?$positional_parameter_base@_WV?$stream_output_adapter@_W@__crt_stdio_output@@@2@@0@AEAA_NXZ@AEAPEAD@Z 00000001400223c4 f i libucrt:output.obj
 0001:000213d4       ??$read_va_arg@PEAUansi_string@?1??type_case_Z@?$output_processor@_WV?$stream_output_adapter@_W@__crt_stdio_output@@V?$standard_base@_WV?$stream_output_adapter@_W@__crt_stdio_output@@@2@@__crt_stdio_output@@AEAA_NXZ@@__crt_stdio_output@@YAPEAUansi_string@?1??type_case_Z@?$output_processor@_WV?$stream_output_adapter@_W@__crt_stdio_output@@V?$standard_base@_WV?$stream_output_adapter@_W@__crt_stdio_output@@@2@@0@AEAA_NXZ@AEAPEAD@Z 00000001400223d4 f i libucrt:output.obj
 0001:000213e4       ??$read_va_arg@PEAUansi_string@?1??type_case_Z@?$output_processor@_WV?$string_output_adapter@_W@__crt_stdio_output@@V?$format_validation_base@_WV?$string_output_adapter@_W@__crt_stdio_output@@@2@@__crt_stdio_output@@AEAA_NXZ@@__crt_stdio_output@@YAPEAUansi_string@?1??type_case_Z@?$output_processor@_WV?$string_output_adapter@_W@__crt_stdio_output@@V?$format_validation_base@_WV?$string_output_adapter@_W@__crt_stdio_output@@@2@@0@AEAA_NXZ@AEAPEAD@Z 00000001400223e4 f i libucrt:output.obj
 0001:000213f4       ??$read_va_arg@PEAUansi_string@?1??type_case_Z@?$output_processor@_WV?$string_output_adapter@_W@__crt_stdio_output@@V?$positional_parameter_base@_WV?$string_output_adapter@_W@__crt_stdio_output@@@2@@__crt_stdio_output@@AEAA_NXZ@@__crt_stdio_output@@YAPEAUansi_string@?1??type_case_Z@?$output_processor@_WV?$string_output_adapter@_W@__crt_stdio_output@@V?$positional_parameter_base@_WV?$string_output_adapter@_W@__crt_stdio_output@@@2@@0@AEAA_NXZ@AEAPEAD@Z 00000001400223f4 f i libucrt:output.obj
 0001:00021404       ??$read_va_arg@PEAUansi_string@?1??type_case_Z@?$output_processor@_WV?$string_output_adapter@_W@__crt_stdio_output@@V?$standard_base@_WV?$string_output_adapter@_W@__crt_stdio_output@@@2@@__crt_stdio_output@@AEAA_NXZ@@__crt_stdio_output@@YAPEAUansi_string@?1??type_case_Z@?$output_processor@_WV?$string_output_adapter@_W@__crt_stdio_output@@V?$standard_base@_WV?$string_output_adapter@_W@__crt_stdio_output@@@2@@0@AEAA_NXZ@AEAPEAD@Z 0000000140022404 f i libucrt:output.obj
 0001:00021414       ??$read_va_arg@PEAX@__crt_stdio_output@@YAPEAXAEAPEAD@Z 0000000140022414 f i libucrt:output.obj
 0001:00021424       ??$read_va_arg@U_CRT_DOUBLE@@@__crt_stdio_output@@YA?AU_CRT_DOUBLE@@AEAPEAD@Z 0000000140022424 f i libucrt:output.obj
 0001:00021434       ??$read_va_arg@_J@__crt_stdio_output@@YA_JAEAPEAD@Z 0000000140022434 f i libucrt:output.obj
 0001:00021444       ??$read_va_arg@_K@__crt_stdio_output@@YA_KAEAPEAD@Z 0000000140022444 f i libucrt:output.obj
 0001:00021454       ??$read_va_arg@_W@__crt_stdio_output@@YA_WAEAPEAD@Z 0000000140022454 f i libucrt:output.obj
 0001:00021464       ??$scratch_count@D@formatting_buffer@__crt_stdio_output@@QEBA_KXZ 0000000140022464 f i libucrt:output.obj
 0001:00021488       ??$scratch_data@D@formatting_buffer@__crt_stdio_output@@QEAAPEADXZ 0000000140022488 f i libucrt:output.obj
 0001:000214b4       ??$tcstol@AEAPEBDPEAPEADH@?$__crt_char_traits@D@@SAJAEAPEBD$$QEAPEAPEAD$$QEAH@Z 00000001400224b4 f i libucrt:output.obj
 0001:000214c8       ??$tcstol@AEAPEB_WPEAPEA_WH@?$__crt_char_traits@_W@@SAJAEAPEB_W$$QEAPEAPEA_W$$QEAH@Z 00000001400224c8 f i libucrt:output.obj
 0001:000214dc       ??$tcstol@PEBDPEAPEADH@?$__crt_char_traits@D@@SAJ$$QEAPEBD$$QEAPEAPEAD$$QEAH@Z 00000001400224dc f i libucrt:output.obj
 0001:000214f0       ??$tcstol@PEB_WPEAPEA_WH@?$__crt_char_traits@_W@@SAJ$$QEAPEB_W$$QEAPEAPEA_W$$QEAH@Z 00000001400224f0 f i libucrt:output.obj
 0001:00021504       ??$type_case_integer_parse_into_buffer@I@?$output_processor@DV?$stream_output_adapter@D@__crt_stdio_output@@V?$format_validation_base@DV?$stream_output_adapter@D@__crt_stdio_output@@@2@@__crt_stdio_output@@AEAAXII_N@Z 0000000140022504 f i libucrt:output.obj
 0001:000215ac       ??$type_case_integer_parse_into_buffer@I@?$output_processor@DV?$stream_output_adapter@D@__crt_stdio_output@@V?$positional_parameter_base@DV?$stream_output_adapter@D@__crt_stdio_output@@@2@@__crt_stdio_output@@AEAAXII_N@Z 00000001400225ac f i libucrt:output.obj
 0001:00021654       ??$type_case_integer_parse_into_buffer@I@?$output_processor@DV?$stream_output_adapter@D@__crt_stdio_output@@V?$standard_base@DV?$stream_output_adapter@D@__crt_stdio_output@@@2@@__crt_stdio_output@@AEAAXII_N@Z 0000000140022654 f i libucrt:output.obj
 0001:000216fc       ??$type_case_integer_parse_into_buffer@I@?$output_processor@DV?$string_output_adapter@D@__crt_stdio_output@@V?$format_validation_base@DV?$string_output_adapter@D@__crt_stdio_output@@@2@@__crt_stdio_output@@AEAAXII_N@Z 00000001400226fc f i libucrt:output.obj
 0001:000217a4       ??$type_case_integer_parse_into_buffer@I@?$output_processor@DV?$string_output_adapter@D@__crt_stdio_output@@V?$positional_parameter_base@DV?$string_output_adapter@D@__crt_stdio_output@@@2@@__crt_stdio_output@@AEAAXII_N@Z 00000001400227a4 f i libucrt:output.obj
 0001:0002184c       ??$type_case_integer_parse_into_buffer@I@?$output_processor@DV?$string_output_adapter@D@__crt_stdio_output@@V?$standard_base@DV?$string_output_adapter@D@__crt_stdio_output@@@2@@__crt_stdio_output@@AEAAXII_N@Z 000000014002284c f i libucrt:output.obj
 0001:000218f4       ??$type_case_integer_parse_into_buffer@I@?$output_processor@_WV?$stream_output_adapter@_W@__crt_stdio_output@@V?$format_validation_base@_WV?$stream_output_adapter@_W@__crt_stdio_output@@@2@@__crt_stdio_output@@AEAAXII_N@Z 00000001400228f4 f i libucrt:output.obj
 0001:000219c0       ??$type_case_integer_parse_into_buffer@I@?$output_processor@_WV?$stream_output_adapter@_W@__crt_stdio_output@@V?$positional_parameter_base@_WV?$stream_output_adapter@_W@__crt_stdio_output@@@2@@__crt_stdio_output@@AEAAXII_N@Z 00000001400229c0 f i libucrt:output.obj
 0001:00021a8c       ??$type_case_integer_parse_into_buffer@I@?$output_processor@_WV?$stream_output_adapter@_W@__crt_stdio_output@@V?$standard_base@_WV?$stream_output_adapter@_W@__crt_stdio_output@@@2@@__crt_stdio_output@@AEAAXII_N@Z 0000000140022a8c f i libucrt:output.obj
 0001:00021b58       ??$type_case_integer_parse_into_buffer@I@?$output_processor@_WV?$string_output_adapter@_W@__crt_stdio_output@@V?$format_validation_base@_WV?$string_output_adapter@_W@__crt_stdio_output@@@2@@__crt_stdio_output@@AEAAXII_N@Z 0000000140022b58 f i libucrt:output.obj
 0001:00021c24       ??$type_case_integer_parse_into_buffer@I@?$output_processor@_WV?$string_output_adapter@_W@__crt_stdio_output@@V?$positional_parameter_base@_WV?$string_output_adapter@_W@__crt_stdio_output@@@2@@__crt_stdio_output@@AEAAXII_N@Z 0000000140022c24 f i libucrt:output.obj
 0001:00021cf0       ??$type_case_integer_parse_into_buffer@I@?$output_processor@_WV?$string_output_adapter@_W@__crt_stdio_output@@V?$standard_base@_WV?$string_output_adapter@_W@__crt_stdio_output@@@2@@__crt_stdio_output@@AEAAXII_N@Z 0000000140022cf0 f i libucrt:output.obj
 0001:00021dbc       ??$type_case_integer_parse_into_buffer@_K@?$output_processor@DV?$stream_output_adapter@D@__crt_stdio_output@@V?$format_validation_base@DV?$stream_output_adapter@D@__crt_stdio_output@@@2@@__crt_stdio_output@@AEAAX_KI_N@Z 0000000140022dbc f i libucrt:output.obj
 0001:00021e6c       ??$type_case_integer_parse_into_buffer@_K@?$output_processor@DV?$stream_output_adapter@D@__crt_stdio_output@@V?$positional_parameter_base@DV?$stream_output_adapter@D@__crt_stdio_output@@@2@@__crt_stdio_output@@AEAAX_KI_N@Z 0000000140022e6c f i libucrt:output.obj
 0001:00021f1c       ??$type_case_integer_parse_into_buffer@_K@?$output_processor@DV?$stream_output_adapter@D@__crt_stdio_output@@V?$standard_base@DV?$stream_output_adapter@D@__crt_stdio_output@@@2@@__crt_stdio_output@@AEAAX_KI_N@Z 0000000140022f1c f i libucrt:output.obj
 0001:00021fcc       ??$type_case_integer_parse_into_buffer@_K@?$output_processor@DV?$string_output_adapter@D@__crt_stdio_output@@V?$format_validation_base@DV?$string_output_adapter@D@__crt_stdio_output@@@2@@__crt_stdio_output@@AEAAX_KI_N@Z 0000000140022fcc f i libucrt:output.obj
 0001:0002207c       ??$type_case_integer_parse_into_buffer@_K@?$output_processor@DV?$string_output_adapter@D@__crt_stdio_output@@V?$positional_parameter_base@DV?$string_output_adapter@D@__crt_stdio_output@@@2@@__crt_stdio_output@@AEAAX_KI_N@Z 000000014002307c f i libucrt:output.obj
 0001:0002212c       ??$type_case_integer_parse_into_buffer@_K@?$output_processor@DV?$string_output_adapter@D@__crt_stdio_output@@V?$standard_base@DV?$string_output_adapter@D@__crt_stdio_output@@@2@@__crt_stdio_output@@AEAAX_KI_N@Z 000000014002312c f i libucrt:output.obj
 0001:000221dc       ??$type_case_integer_parse_into_buffer@_K@?$output_processor@_WV?$stream_output_adapter@_W@__crt_stdio_output@@V?$format_validation_base@_WV?$stream_output_adapter@_W@__crt_stdio_output@@@2@@__crt_stdio_output@@AEAAX_KI_N@Z 00000001400231dc f i libucrt:output.obj
 0001:000222ac       ??$type_case_integer_parse_into_buffer@_K@?$output_processor@_WV?$stream_output_adapter@_W@__crt_stdio_output@@V?$positional_parameter_base@_WV?$stream_output_adapter@_W@__crt_stdio_output@@@2@@__crt_stdio_output@@AEAAX_KI_N@Z 00000001400232ac f i libucrt:output.obj
 0001:0002237c       ??$type_case_integer_parse_into_buffer@_K@?$output_processor@_WV?$stream_output_adapter@_W@__crt_stdio_output@@V?$standard_base@_WV?$stream_output_adapter@_W@__crt_stdio_output@@@2@@__crt_stdio_output@@AEAAX_KI_N@Z 000000014002337c f i libucrt:output.obj
 0001:0002244c       ??$type_case_integer_parse_into_buffer@_K@?$output_processor@_WV?$string_output_adapter@_W@__crt_stdio_output@@V?$format_validation_base@_WV?$string_output_adapter@_W@__crt_stdio_output@@@2@@__crt_stdio_output@@AEAAX_KI_N@Z 000000014002344c f i libucrt:output.obj
 0001:0002251c       ??$type_case_integer_parse_into_buffer@_K@?$output_processor@_WV?$string_output_adapter@_W@__crt_stdio_output@@V?$positional_parameter_base@_WV?$string_output_adapter@_W@__crt_stdio_output@@@2@@__crt_stdio_output@@AEAAX_KI_N@Z 000000014002351c f i libucrt:output.obj
 0001:000225ec       ??$type_case_integer_parse_into_buffer@_K@?$output_processor@_WV?$string_output_adapter@_W@__crt_stdio_output@@V?$standard_base@_WV?$string_output_adapter@_W@__crt_stdio_output@@@2@@__crt_stdio_output@@AEAAX_KI_N@Z 00000001400235ec f i libucrt:output.obj
 0001:000226bc       ??$write_multiple_characters@V?$stream_output_adapter@D@__crt_stdio_output@@D@__crt_stdio_output@@YAXAEBV?$stream_output_adapter@D@0@DHQEAH@Z 00000001400236bc f i libucrt:output.obj
 0001:0002276c       ??$write_multiple_characters@V?$stream_output_adapter@_W@__crt_stdio_output@@D@__crt_stdio_output@@YAXAEBV?$stream_output_adapter@_W@0@DHQEAH@Z 000000014002376c f i libucrt:output.obj
 0001:00022824       ??$write_multiple_characters@V?$string_output_adapter@D@__crt_stdio_output@@D@__crt_stdio_output@@YAXAEBV?$string_output_adapter@D@0@DHQEAH@Z 0000000140023824 f i libucrt:output.obj
 0001:000228b8       ??$write_multiple_characters@V?$string_output_adapter@_W@__crt_stdio_output@@D@__crt_stdio_output@@YAXAEBV?$string_output_adapter@_W@0@DHQEAH@Z 00000001400238b8 f i libucrt:output.obj
 0001:00022ae4       ??0?$common_data@D@__crt_stdio_output@@IEAA@XZ 0000000140023ae4 f i libucrt:output.obj
 0001:00022b30       ??0?$common_data@_W@__crt_stdio_output@@IEAA@XZ 0000000140023b30 f i libucrt:output.obj
 0001:00022b80       ??0?$output_adapter_data@DV?$stream_output_adapter@D@__crt_stdio_output@@@__crt_stdio_output@@IEAA@AEBV?$stream_output_adapter@D@1@_KQEBDQEAU__crt_locale_pointers@@QEAD@Z 0000000140023b80 f i libucrt:output.obj
 0001:00022bf8       ??0?$output_adapter_data@DV?$string_output_adapter@D@__crt_stdio_output@@@__crt_stdio_output@@IEAA@AEBV?$string_output_adapter@D@1@_KQEBDQEAU__crt_locale_pointers@@QEAD@Z 0000000140023bf8 f i libucrt:output.obj
 0001:00022c70       ??0?$output_adapter_data@_WV?$stream_output_adapter@_W@__crt_stdio_output@@@__crt_stdio_output@@IEAA@AEBV?$stream_output_adapter@_W@1@_KQEB_WQEAU__crt_locale_pointers@@QEAD@Z 0000000140023c70 f i libucrt:output.obj
 0001:00022cec       ??0?$output_adapter_data@_WV?$string_output_adapter@_W@__crt_stdio_output@@@__crt_stdio_output@@IEAA@AEBV?$string_output_adapter@_W@1@_KQEB_WQEAU__crt_locale_pointers@@QEAD@Z 0000000140023cec f i libucrt:output.obj
 0001:00022d68       ??0?$output_processor@DV?$stream_output_adapter@D@__crt_stdio_output@@V?$format_validation_base@DV?$stream_output_adapter@D@__crt_stdio_output@@@2@@__crt_stdio_output@@QEAA@AEBV?$stream_output_adapter@D@1@_KQEBDQEAU__crt_locale_pointers@@QEAD@Z 0000000140023d68 f i libucrt:output.obj
 0001:00022df0       ??0?$output_processor@DV?$stream_output_adapter@D@__crt_stdio_output@@V?$positional_parameter_base@DV?$stream_output_adapter@D@__crt_stdio_output@@@2@@__crt_stdio_output@@QEAA@AEBV?$stream_output_adapter@D@1@_KQEBDQEAU__crt_locale_pointers@@QEAD@Z 0000000140023df0 f i libucrt:output.obj
 0001:00022e9c       ??0?$output_processor@DV?$stream_output_adapter@D@__crt_stdio_output@@V?$standard_base@DV?$stream_output_adapter@D@__crt_stdio_output@@@2@@__crt_stdio_output@@QEAA@AEBV?$stream_output_adapter@D@1@_KQEBDQEAU__crt_locale_pointers@@QEAD@Z 0000000140023e9c f i libucrt:output.obj
 0001:00022f24       ??0?$output_processor@DV?$string_output_adapter@D@__crt_stdio_output@@V?$format_validation_base@DV?$string_output_adapter@D@__crt_stdio_output@@@2@@__crt_stdio_output@@QEAA@AEBV?$string_output_adapter@D@1@_KQEBDQEAU__crt_locale_pointers@@QEAD@Z 0000000140023f24 f i libucrt:output.obj
 0001:00022fac       ??0?$output_processor@DV?$string_output_adapter@D@__crt_stdio_output@@V?$positional_parameter_base@DV?$string_output_adapter@D@__crt_stdio_output@@@2@@__crt_stdio_output@@QEAA@AEBV?$string_output_adapter@D@1@_KQEBDQEAU__crt_locale_pointers@@QEAD@Z 0000000140023fac f i libucrt:output.obj
 0001:00023058       ??0?$output_processor@DV?$string_output_adapter@D@__crt_stdio_output@@V?$standard_base@DV?$string_output_adapter@D@__crt_stdio_output@@@2@@__crt_stdio_output@@QEAA@AEBV?$string_output_adapter@D@1@_KQEBDQEAU__crt_locale_pointers@@QEAD@Z 0000000140024058 f i libucrt:output.obj
 0001:000230e0       ??0?$output_processor@_WV?$stream_output_adapter@_W@__crt_stdio_output@@V?$format_validation_base@_WV?$stream_output_adapter@_W@__crt_stdio_output@@@2@@__crt_stdio_output@@QEAA@AEBV?$stream_output_adapter@_W@1@_KQEB_WQEAU__crt_locale_pointers@@QEAD@Z 00000001400240e0 f i libucrt:output.obj
 0001:0002316c       ??0?$output_processor@_WV?$stream_output_adapter@_W@__crt_stdio_output@@V?$positional_parameter_base@_WV?$stream_output_adapter@_W@__crt_stdio_output@@@2@@__crt_stdio_output@@QEAA@AEBV?$stream_output_adapter@_W@1@_KQEB_WQEAU__crt_locale_pointers@@QEAD@Z 000000014002416c f i libucrt:output.obj
 0001:0002321c       ??0?$output_processor@_WV?$stream_output_adapter@_W@__crt_stdio_output@@V?$standard_base@_WV?$stream_output_adapter@_W@__crt_stdio_output@@@2@@__crt_stdio_output@@QEAA@AEBV?$stream_output_adapter@_W@1@_KQEB_WQEAU__crt_locale_pointers@@QEAD@Z 000000014002421c f i libucrt:output.obj
 0001:000232a8       ??0?$output_processor@_WV?$string_output_adapter@_W@__crt_stdio_output@@V?$format_validation_base@_WV?$string_output_adapter@_W@__crt_stdio_output@@@2@@__crt_stdio_output@@QEAA@AEBV?$string_output_adapter@_W@1@_KQEB_WQEAU__crt_locale_pointers@@QEAD@Z 00000001400242a8 f i libucrt:output.obj
 0001:00023334       ??0?$output_processor@_WV?$string_output_adapter@_W@__crt_stdio_output@@V?$positional_parameter_base@_WV?$string_output_adapter@_W@__crt_stdio_output@@@2@@__crt_stdio_output@@QEAA@AEBV?$string_output_adapter@_W@1@_KQEB_WQEAU__crt_locale_pointers@@QEAD@Z 0000000140024334 f i libucrt:output.obj
 0001:000233e4       ??0?$output_processor@_WV?$string_output_adapter@_W@__crt_stdio_output@@V?$standard_base@_WV?$string_output_adapter@_W@__crt_stdio_output@@@2@@__crt_stdio_output@@QEAA@AEBV?$string_output_adapter@_W@1@_KQEB_WQEAU__crt_locale_pointers@@QEAD@Z 00000001400243e4 f i libucrt:output.obj
 0001:00023470       ??0?$stream_output_adapter@D@__crt_stdio_output@@QEAA@QEAU_iobuf@@@Z 0000000140024470 f i libucrt:output.obj
 0001:00023478       ??0?$stream_output_adapter@_W@__crt_stdio_output@@QEAA@QEAU_iobuf@@@Z 0000000140024478 f i libucrt:output.obj
 0001:00023480       ??0?$string_output_adapter@D@__crt_stdio_output@@QEAA@QEAU?$string_output_adapter_context@D@1@@Z 0000000140024480 f i libucrt:output.obj
 0001:00023488       ??0?$string_output_adapter@_W@__crt_stdio_output@@QEAA@QEAU?$string_output_adapter_context@_W@1@@Z 0000000140024488 f i libucrt:output.obj
 0001:00023490       ??0_LocaleUpdate@@QEAA@QEAU__crt_locale_pointers@@@Z 0000000140024490 f i libucrt:output.obj
 0001:00023554       ??0__acrt_stdio_temporary_buffering_guard@@QEAA@QEAU_iobuf@@@Z 0000000140024554 f i libucrt:output.obj
 0001:0002357c       ??0__crt_deferred_errno_cache@@QEAA@XZ 000000014002457c f i libucrt:output.obj
 0001:00023588       ??0__crt_errno_guard@@QEAA@QEAH@Z 0000000140024588 f i libucrt:output.obj
 0001:000235a0       ??0formatting_buffer@__crt_stdio_output@@QEAA@XZ 00000001400245a0 f i libucrt:output.obj
 0001:000235bc       ??1?$common_data@D@__crt_stdio_output@@QEAA@XZ 00000001400245bc f i libucrt:output.obj
 0001:000235e8       ??1?$common_data@_W@__crt_stdio_output@@QEAA@XZ 00000001400245e8 f i libucrt:output.obj
 0001:00023614       ??1?$format_validation_base@DV?$stream_output_adapter@D@__crt_stdio_output@@@__crt_stdio_output@@QEAA@XZ 0000000140024614 f i libucrt:output.obj
 0001:00023640       ??1?$format_validation_base@DV?$string_output_adapter@D@__crt_stdio_output@@@__crt_stdio_output@@QEAA@XZ 0000000140024640 f i libucrt:output.obj
 0001:0002366c       ??1?$format_validation_base@_WV?$stream_output_adapter@_W@__crt_stdio_output@@@__crt_stdio_output@@QEAA@XZ 000000014002466c f i libucrt:output.obj
 0001:00023698       ??1?$format_validation_base@_WV?$string_output_adapter@_W@__crt_stdio_output@@@__crt_stdio_output@@QEAA@XZ 0000000140024698 f i libucrt:output.obj
 0001:000236c4       ??1?$output_adapter_data@DV?$stream_output_adapter@D@__crt_stdio_output@@@__crt_stdio_output@@QEAA@XZ 00000001400246c4 f i libucrt:output.obj
 0001:000236f0       ??1?$output_adapter_data@DV?$string_output_adapter@D@__crt_stdio_output@@@__crt_stdio_output@@QEAA@XZ 00000001400246f0 f i libucrt:output.obj
 0001:0002371c       ??1?$output_adapter_data@_WV?$stream_output_adapter@_W@__crt_stdio_output@@@__crt_stdio_output@@QEAA@XZ 000000014002471c f i libucrt:output.obj
 0001:00023748       ??1?$output_adapter_data@_WV?$string_output_adapter@_W@__crt_stdio_output@@@__crt_stdio_output@@QEAA@XZ 0000000140024748 f i libucrt:output.obj
 0001:00023774       ??1?$output_processor@DV?$stream_output_adapter@D@__crt_stdio_output@@V?$format_validation_base@DV?$stream_output_adapter@D@__crt_stdio_output@@@2@@__crt_stdio_output@@QEAA@XZ 0000000140024774 f i libucrt:output.obj
 0001:000237a0       ??1?$output_processor@DV?$stream_output_adapter@D@__crt_stdio_output@@V?$positional_parameter_base@DV?$stream_output_adapter@D@__crt_stdio_output@@@2@@__crt_stdio_output@@QEAA@XZ 00000001400247a0 f i libucrt:output.obj
 0001:000237cc       ??1?$output_processor@DV?$stream_output_adapter@D@__crt_stdio_output@@V?$standard_base@DV?$stream_output_adapter@D@__crt_stdio_output@@@2@@__crt_stdio_output@@QEAA@XZ 00000001400247cc f i libucrt:output.obj
 0001:000237f8       ??1?$output_processor@DV?$string_output_adapter@D@__crt_stdio_output@@V?$format_validation_base@DV?$string_output_adapter@D@__crt_stdio_output@@@2@@__crt_stdio_output@@QEAA@XZ 00000001400247f8 f i libucrt:output.obj
 0001:00023824       ??1?$output_processor@DV?$string_output_adapter@D@__crt_stdio_output@@V?$positional_parameter_base@DV?$string_output_adapter@D@__crt_stdio_output@@@2@@__crt_stdio_output@@QEAA@XZ 0000000140024824 f i libucrt:output.obj
 0001:00023850       ??1?$output_processor@DV?$string_output_adapter@D@__crt_stdio_output@@V?$standard_base@DV?$string_output_adapter@D@__crt_stdio_output@@@2@@__crt_stdio_output@@QEAA@XZ 0000000140024850 f i libucrt:output.obj
 0001:0002387c       ??1?$output_processor@_WV?$stream_output_adapter@_W@__crt_stdio_output@@V?$format_validation_base@_WV?$stream_output_adapter@_W@__crt_stdio_output@@@2@@__crt_stdio_output@@QEAA@XZ 000000014002487c f i libucrt:output.obj
 0001:000238a8       ??1?$output_processor@_WV?$stream_output_adapter@_W@__crt_stdio_output@@V?$positional_parameter_base@_WV?$stream_output_adapter@_W@__crt_stdio_output@@@2@@__crt_stdio_output@@QEAA@XZ 00000001400248a8 f i libucrt:output.obj
 0001:000238d4       ??1?$output_processor@_WV?$stream_output_adapter@_W@__crt_stdio_output@@V?$standard_base@_WV?$stream_output_adapter@_W@__crt_stdio_output@@@2@@__crt_stdio_output@@QEAA@XZ 00000001400248d4 f i libucrt:output.obj
 0001:00023900       ??1?$output_processor@_WV?$string_output_adapter@_W@__crt_stdio_output@@V?$format_validation_base@_WV?$string_output_adapter@_W@__crt_stdio_output@@@2@@__crt_stdio_output@@QEAA@XZ 0000000140024900 f i libucrt:output.obj
 0001:0002392c       ??1?$output_processor@_WV?$string_output_adapter@_W@__crt_stdio_output@@V?$positional_parameter_base@_WV?$string_output_adapter@_W@__crt_stdio_output@@@2@@__crt_stdio_output@@QEAA@XZ 000000014002492c f i libucrt:output.obj
 0001:00023958       ??1?$output_processor@_WV?$string_output_adapter@_W@__crt_stdio_output@@V?$standard_base@_WV?$string_output_adapter@_W@__crt_stdio_output@@@2@@__crt_stdio_output@@QEAA@XZ 0000000140024958 f i libucrt:output.obj
 0001:00023984       ??1?$positional_parameter_base@DV?$stream_output_adapter@D@__crt_stdio_output@@@__crt_stdio_output@@QEAA@XZ 0000000140024984 f i libucrt:output.obj
 0001:000239b0       ??1?$positional_parameter_base@DV?$string_output_adapter@D@__crt_stdio_output@@@__crt_stdio_output@@QEAA@XZ 00000001400249b0 f i libucrt:output.obj
 0001:000239dc       ??1?$positional_parameter_base@_WV?$stream_output_adapter@_W@__crt_stdio_output@@@__crt_stdio_output@@QEAA@XZ 00000001400249dc f i libucrt:output.obj
 0001:00023a08       ??1?$positional_parameter_base@_WV?$string_output_adapter@_W@__crt_stdio_output@@@__crt_stdio_output@@QEAA@XZ 0000000140024a08 f i libucrt:output.obj
 0001:00023a34       ??1?$standard_base@DV?$stream_output_adapter@D@__crt_stdio_output@@@__crt_stdio_output@@QEAA@XZ 0000000140024a34 f i libucrt:output.obj
 0001:00023a60       ??1?$standard_base@DV?$string_output_adapter@D@__crt_stdio_output@@@__crt_stdio_output@@QEAA@XZ 0000000140024a60 f i libucrt:output.obj
 0001:00023a8c       ??1?$standard_base@_WV?$stream_output_adapter@_W@__crt_stdio_output@@@__crt_stdio_output@@QEAA@XZ 0000000140024a8c f i libucrt:output.obj
 0001:00023ab8       ??1?$standard_base@_WV?$string_output_adapter@_W@__crt_stdio_output@@@__crt_stdio_output@@QEAA@XZ 0000000140024ab8 f i libucrt:output.obj
 0001:00023ae4       ??1_LocaleUpdate@@QEAA@XZ  0000000140024ae4 f i libucrt:output.obj
 0001:00023afc       ??1__acrt_stdio_temporary_buffering_guard@@QEAA@XZ 0000000140024afc f i libucrt:output.obj
 0001:00023b0c       ??1__crt_errno_guard@@QEAA@XZ 0000000140024b0c f i libucrt:output.obj
 0001:00023b24       ??1formatting_buffer@__crt_stdio_output@@QEAA@XZ 0000000140024b24 f i libucrt:output.obj
 0001:00023b50       ??4?$__crt_unique_heap_ptr@DU__crt_internal_free_policy@@@@QEAAAEAV0@$$QEAV0@@Z 0000000140024b50 f i libucrt:output.obj
 0001:00023b94       ??A?$spectre_mitigated_lookup_table@Ustate_transition_pair@__crt_stdio_output@@$0IA@@__crt_stdio_output@@QEBAAEBUstate_transition_pair@1@_K@Z 0000000140024b94 f i libucrt:output.obj
 0001:00024560       ?GetLocaleT@_LocaleUpdate@@QEAAPEAU__crt_locale_pointers@@XZ 0000000140025560 f i libucrt:output.obj
 0001:00024568       ?adjust_hexit@?$output_processor@DV?$stream_output_adapter@D@__crt_stdio_output@@V?$format_validation_base@DV?$stream_output_adapter@D@__crt_stdio_output@@@2@@__crt_stdio_output@@CADH_N@Z 0000000140025568 f i libucrt:output.obj
 0001:00024578       ?adjust_hexit@?$output_processor@DV?$stream_output_adapter@D@__crt_stdio_output@@V?$positional_parameter_base@DV?$stream_output_adapter@D@__crt_stdio_output@@@2@@__crt_stdio_output@@CADH_N@Z 0000000140025578 f i libucrt:output.obj
 0001:00024588       ?adjust_hexit@?$output_processor@DV?$stream_output_adapter@D@__crt_stdio_output@@V?$standard_base@DV?$stream_output_adapter@D@__crt_stdio_output@@@2@@__crt_stdio_output@@CADH_N@Z 0000000140025588 f i libucrt:output.obj
 0001:00024598       ?adjust_hexit@?$output_processor@DV?$string_output_adapter@D@__crt_stdio_output@@V?$format_validation_base@DV?$string_output_adapter@D@__crt_stdio_output@@@2@@__crt_stdio_output@@CADH_N@Z 0000000140025598 f i libucrt:output.obj
 0001:000245a8       ?adjust_hexit@?$output_processor@DV?$string_output_adapter@D@__crt_stdio_output@@V?$positional_parameter_base@DV?$string_output_adapter@D@__crt_stdio_output@@@2@@__crt_stdio_output@@CADH_N@Z 00000001400255a8 f i libucrt:output.obj
 0001:000245b8       ?adjust_hexit@?$output_processor@DV?$string_output_adapter@D@__crt_stdio_output@@V?$standard_base@DV?$string_output_adapter@D@__crt_stdio_output@@@2@@__crt_stdio_output@@CADH_N@Z 00000001400255b8 f i libucrt:output.obj
 0001:000245c8       ?adjust_hexit@?$output_processor@_WV?$stream_output_adapter@_W@__crt_stdio_output@@V?$format_validation_base@_WV?$stream_output_adapter@_W@__crt_stdio_output@@@2@@__crt_stdio_output@@CADH_N@Z 00000001400255c8 f i libucrt:output.obj
 0001:000245d8       ?adjust_hexit@?$output_processor@_WV?$stream_output_adapter@_W@__crt_stdio_output@@V?$positional_parameter_base@_WV?$stream_output_adapter@_W@__crt_stdio_output@@@2@@__crt_stdio_output@@CADH_N@Z 00000001400255d8 f i libucrt:output.obj
 0001:000245e8       ?adjust_hexit@?$output_processor@_WV?$stream_output_adapter@_W@__crt_stdio_output@@V?$standard_base@_WV?$stream_output_adapter@_W@__crt_stdio_output@@@2@@__crt_stdio_output@@CADH_N@Z 00000001400255e8 f i libucrt:output.obj
 0001:000245f8       ?adjust_hexit@?$output_processor@_WV?$string_output_adapter@_W@__crt_stdio_output@@V?$format_validation_base@_WV?$string_output_adapter@_W@__crt_stdio_output@@@2@@__crt_stdio_output@@CADH_N@Z 00000001400255f8 f i libucrt:output.obj
 0001:00024608       ?adjust_hexit@?$output_processor@_WV?$string_output_adapter@_W@__crt_stdio_output@@V?$positional_parameter_base@_WV?$string_output_adapter@_W@__crt_stdio_output@@@2@@__crt_stdio_output@@CADH_N@Z 0000000140025608 f i libucrt:output.obj
 0001:00024618       ?adjust_hexit@?$output_processor@_WV?$string_output_adapter@_W@__crt_stdio_output@@V?$standard_base@_WV?$string_output_adapter@_W@__crt_stdio_output@@@2@@__crt_stdio_output@@CADH_N@Z 0000000140025618 f i libucrt:output.obj
 0001:00024628       ?advance_to_next_pass@?$positional_parameter_base@DV?$stream_output_adapter@D@__crt_stdio_output@@@__crt_stdio_output@@IEAA_NXZ 0000000140025628 f i libucrt:output.obj
 0001:0002468c       ?advance_to_next_pass@?$positional_parameter_base@DV?$string_output_adapter@D@__crt_stdio_output@@@__crt_stdio_output@@IEAA_NXZ 000000014002568c f i libucrt:output.obj
 0001:000246f0       ?advance_to_next_pass@?$positional_parameter_base@_WV?$stream_output_adapter@_W@__crt_stdio_output@@@__crt_stdio_output@@IEAA_NXZ 00000001400256f0 f i libucrt:output.obj
 0001:00024754       ?advance_to_next_pass@?$positional_parameter_base@_WV?$string_output_adapter@_W@__crt_stdio_output@@@__crt_stdio_output@@IEAA_NXZ 0000000140025754 f i libucrt:output.obj
 0001:000247b8       ?advance_to_next_pass@?$standard_base@DV?$stream_output_adapter@D@__crt_stdio_output@@@__crt_stdio_output@@IEAA_NXZ 00000001400257b8 f i libucrt:output.obj
 0001:000247d0       ?advance_to_next_pass@?$standard_base@DV?$string_output_adapter@D@__crt_stdio_output@@@__crt_stdio_output@@IEAA_NXZ 00000001400257d0 f i libucrt:output.obj
 0001:000247e8       ?advance_to_next_pass@?$standard_base@_WV?$stream_output_adapter@_W@__crt_stdio_output@@@__crt_stdio_output@@IEAA_NXZ 00000001400257e8 f i libucrt:output.obj
 0001:00024800       ?advance_to_next_pass@?$standard_base@_WV?$string_output_adapter@_W@__crt_stdio_output@@@__crt_stdio_output@@IEAA_NXZ 0000000140025800 f i libucrt:output.obj
 0001:00024820       ?crop_zeroes@__crt_stdio_output@@YAXPEADQEAU__crt_locale_pointers@@@Z 0000000140025820 f i libucrt:output.obj
 0001:000248d8       ?find_next_state@?$output_processor@DV?$stream_output_adapter@D@__crt_stdio_output@@V?$format_validation_base@DV?$stream_output_adapter@D@__crt_stdio_output@@@2@@__crt_stdio_output@@AEBA?AW4state@2@DW432@@Z 00000001400258d8 f i libucrt:output.obj
 0001:00024914       ?find_next_state@?$output_processor@DV?$stream_output_adapter@D@__crt_stdio_output@@V?$positional_parameter_base@DV?$stream_output_adapter@D@__crt_stdio_output@@@2@@__crt_stdio_output@@AEBA?AW4state@2@DW432@@Z 0000000140025914 f i libucrt:output.obj
 0001:00024950       ?find_next_state@?$output_processor@DV?$stream_output_adapter@D@__crt_stdio_output@@V?$standard_base@DV?$stream_output_adapter@D@__crt_stdio_output@@@2@@__crt_stdio_output@@AEBA?AW4state@2@DW432@@Z 0000000140025950 f i libucrt:output.obj
 0001:0002498c       ?find_next_state@?$output_processor@DV?$string_output_adapter@D@__crt_stdio_output@@V?$format_validation_base@DV?$string_output_adapter@D@__crt_stdio_output@@@2@@__crt_stdio_output@@AEBA?AW4state@2@DW432@@Z 000000014002598c f i libucrt:output.obj
 0001:000249c8       ?find_next_state@?$output_processor@DV?$string_output_adapter@D@__crt_stdio_output@@V?$positional_parameter_base@DV?$string_output_adapter@D@__crt_stdio_output@@@2@@__crt_stdio_output@@AEBA?AW4state@2@DW432@@Z 00000001400259c8 f i libucrt:output.obj
 0001:00024a04       ?find_next_state@?$output_processor@DV?$string_output_adapter@D@__crt_stdio_output@@V?$standard_base@DV?$string_output_adapter@D@__crt_stdio_output@@@2@@__crt_stdio_output@@AEBA?AW4state@2@DW432@@Z 0000000140025a04 f i libucrt:output.obj
 0001:00024a40       ?find_next_state@?$output_processor@_WV?$stream_output_adapter@_W@__crt_stdio_output@@V?$format_validation_base@_WV?$stream_output_adapter@_W@__crt_stdio_output@@@2@@__crt_stdio_output@@AEBA?AW4state@2@_WW432@@Z 0000000140025a40 f i libucrt:output.obj
 0001:00024a88       ?find_next_state@?$output_processor@_WV?$stream_output_adapter@_W@__crt_stdio_output@@V?$positional_parameter_base@_WV?$stream_output_adapter@_W@__crt_stdio_output@@@2@@__crt_stdio_output@@AEBA?AW4state@2@_WW432@@Z 0000000140025a88 f i libucrt:output.obj
 0001:00024ad0       ?find_next_state@?$output_processor@_WV?$stream_output_adapter@_W@__crt_stdio_output@@V?$standard_base@_WV?$stream_output_adapter@_W@__crt_stdio_output@@@2@@__crt_stdio_output@@AEBA?AW4state@2@_WW432@@Z 0000000140025ad0 f i libucrt:output.obj
 0001:00024b14       ?find_next_state@?$output_processor@_WV?$string_output_adapter@_W@__crt_stdio_output@@V?$format_validation_base@_WV?$string_output_adapter@_W@__crt_stdio_output@@@2@@__crt_stdio_output@@AEBA?AW4state@2@_WW432@@Z 0000000140025b14 f i libucrt:output.obj
 0001:00024b5c       ?find_next_state@?$output_processor@_WV?$string_output_adapter@_W@__crt_stdio_output@@V?$positional_parameter_base@_WV?$string_output_adapter@_W@__crt_stdio_output@@@2@@__crt_stdio_output@@AEBA?AW4state@2@_WW432@@Z 0000000140025b5c f i libucrt:output.obj
 0001:00024ba4       ?find_next_state@?$output_processor@_WV?$string_output_adapter@_W@__crt_stdio_output@@V?$standard_base@_WV?$string_output_adapter@_W@__crt_stdio_output@@@2@@__crt_stdio_output@@AEBA?AW4state@2@_WW432@@Z 0000000140025ba4 f i libucrt:output.obj
 0001:00024bf0       ?force_decimal_point@__crt_stdio_output@@YAXPEADQEAU__crt_locale_pointers@@@Z 0000000140025bf0 f i libucrt:output.obj
 0001:00024c84       ?get@__crt_deferred_errno_cache@@QEAAAEAHXZ 0000000140025c84 f i libucrt:output.obj
 0001:00024cac       ?get_parameter_type@?$positional_parameter_base@DV?$stream_output_adapter@D@__crt_stdio_output@@@__crt_stdio_output@@CA?AW4parameter_type@12@F@Z 0000000140025cac f i libucrt:output.obj
 0001:00024cb4       ?get_parameter_type@?$positional_parameter_base@DV?$stream_output_adapter@D@__crt_stdio_output@@@__crt_stdio_output@@CA?AW4parameter_type@12@G@Z 0000000140025cb4 f i libucrt:output.obj
 0001:00024cbc       ?get_parameter_type@?$positional_parameter_base@DV?$stream_output_adapter@D@__crt_stdio_output@@@__crt_stdio_output@@CA?AW4parameter_type@12@H@Z 0000000140025cbc f i libucrt:output.obj
 0001:00024cc4       ?get_parameter_type@?$positional_parameter_base@DV?$stream_output_adapter@D@__crt_stdio_output@@@__crt_stdio_output@@CA?AW4parameter_type@12@I@Z 0000000140025cc4 f i libucrt:output.obj
 0001:00024ccc       ?get_parameter_type@?$positional_parameter_base@DV?$stream_output_adapter@D@__crt_stdio_output@@@__crt_stdio_output@@CA?AW4parameter_type@12@U_CRT_DOUBLE@@@Z 0000000140025ccc f i libucrt:output.obj
 0001:00024cd4       ?get_parameter_type@?$positional_parameter_base@DV?$stream_output_adapter@D@__crt_stdio_output@@@__crt_stdio_output@@CA?AW4parameter_type@12@_J@Z 0000000140025cd4 f i libucrt:output.obj
 0001:00024cdc       ?get_parameter_type@?$positional_parameter_base@DV?$stream_output_adapter@D@__crt_stdio_output@@@__crt_stdio_output@@CA?AW4parameter_type@12@_K@Z 0000000140025cdc f i libucrt:output.obj
 0001:00024ce4       ?get_parameter_type@?$positional_parameter_base@DV?$stream_output_adapter@D@__crt_stdio_output@@@__crt_stdio_output@@CA?AW4parameter_type@12@_W@Z 0000000140025ce4 f i libucrt:output.obj
 0001:00024cec       ?get_parameter_type@?$positional_parameter_base@DV?$string_output_adapter@D@__crt_stdio_output@@@__crt_stdio_output@@CA?AW4parameter_type@12@F@Z 0000000140025cec f i libucrt:output.obj
 0001:00024cf4       ?get_parameter_type@?$positional_parameter_base@DV?$string_output_adapter@D@__crt_stdio_output@@@__crt_stdio_output@@CA?AW4parameter_type@12@G@Z 0000000140025cf4 f i libucrt:output.obj
 0001:00024cfc       ?get_parameter_type@?$positional_parameter_base@DV?$string_output_adapter@D@__crt_stdio_output@@@__crt_stdio_output@@CA?AW4parameter_type@12@H@Z 0000000140025cfc f i libucrt:output.obj
 0001:00024d04       ?get_parameter_type@?$positional_parameter_base@DV?$string_output_adapter@D@__crt_stdio_output@@@__crt_stdio_output@@CA?AW4parameter_type@12@I@Z 0000000140025d04 f i libucrt:output.obj
 0001:00024d0c       ?get_parameter_type@?$positional_parameter_base@DV?$string_output_adapter@D@__crt_stdio_output@@@__crt_stdio_output@@CA?AW4parameter_type@12@U_CRT_DOUBLE@@@Z 0000000140025d0c f i libucrt:output.obj
 0001:00024d14       ?get_parameter_type@?$positional_parameter_base@DV?$string_output_adapter@D@__crt_stdio_output@@@__crt_stdio_output@@CA?AW4parameter_type@12@_J@Z 0000000140025d14 f i libucrt:output.obj
 0001:00024d1c       ?get_parameter_type@?$positional_parameter_base@DV?$string_output_adapter@D@__crt_stdio_output@@@__crt_stdio_output@@CA?AW4parameter_type@12@_K@Z 0000000140025d1c f i libucrt:output.obj
 0001:00024d24       ?get_parameter_type@?$positional_parameter_base@DV?$string_output_adapter@D@__crt_stdio_output@@@__crt_stdio_output@@CA?AW4parameter_type@12@_W@Z 0000000140025d24 f i libucrt:output.obj
 0001:00024d2c       ?get_parameter_type@?$positional_parameter_base@_WV?$stream_output_adapter@_W@__crt_stdio_output@@@__crt_stdio_output@@CA?AW4parameter_type@12@F@Z 0000000140025d2c f i libucrt:output.obj
 0001:00024d34       ?get_parameter_type@?$positional_parameter_base@_WV?$stream_output_adapter@_W@__crt_stdio_output@@@__crt_stdio_output@@CA?AW4parameter_type@12@G@Z 0000000140025d34 f i libucrt:output.obj
 0001:00024d3c       ?get_parameter_type@?$positional_parameter_base@_WV?$stream_output_adapter@_W@__crt_stdio_output@@@__crt_stdio_output@@CA?AW4parameter_type@12@H@Z 0000000140025d3c f i libucrt:output.obj
 0001:00024d44       ?get_parameter_type@?$positional_parameter_base@_WV?$stream_output_adapter@_W@__crt_stdio_output@@@__crt_stdio_output@@CA?AW4parameter_type@12@I@Z 0000000140025d44 f i libucrt:output.obj
 0001:00024d4c       ?get_parameter_type@?$positional_parameter_base@_WV?$stream_output_adapter@_W@__crt_stdio_output@@@__crt_stdio_output@@CA?AW4parameter_type@12@U_CRT_DOUBLE@@@Z 0000000140025d4c f i libucrt:output.obj
 0001:00024d54       ?get_parameter_type@?$positional_parameter_base@_WV?$stream_output_adapter@_W@__crt_stdio_output@@@__crt_stdio_output@@CA?AW4parameter_type@12@_J@Z 0000000140025d54 f i libucrt:output.obj
 0001:00024d5c       ?get_parameter_type@?$positional_parameter_base@_WV?$stream_output_adapter@_W@__crt_stdio_output@@@__crt_stdio_output@@CA?AW4parameter_type@12@_K@Z 0000000140025d5c f i libucrt:output.obj
 0001:00024d64       ?get_parameter_type@?$positional_parameter_base@_WV?$stream_output_adapter@_W@__crt_stdio_output@@@__crt_stdio_output@@CA?AW4parameter_type@12@_W@Z 0000000140025d64 f i libucrt:output.obj
 0001:00024d6c       ?get_parameter_type@?$positional_parameter_base@_WV?$string_output_adapter@_W@__crt_stdio_output@@@__crt_stdio_output@@CA?AW4parameter_type@12@F@Z 0000000140025d6c f i libucrt:output.obj
 0001:00024d74       ?get_parameter_type@?$positional_parameter_base@_WV?$string_output_adapter@_W@__crt_stdio_output@@@__crt_stdio_output@@CA?AW4parameter_type@12@G@Z 0000000140025d74 f i libucrt:output.obj
 0001:00024d7c       ?get_parameter_type@?$positional_parameter_base@_WV?$string_output_adapter@_W@__crt_stdio_output@@@__crt_stdio_output@@CA?AW4parameter_type@12@H@Z 0000000140025d7c f i libucrt:output.obj
 0001:00024d84       ?get_parameter_type@?$positional_parameter_base@_WV?$string_output_adapter@_W@__crt_stdio_output@@@__crt_stdio_output@@CA?AW4parameter_type@12@I@Z 0000000140025d84 f i libucrt:output.obj
 0001:00024d8c       ?get_parameter_type@?$positional_parameter_base@_WV?$string_output_adapter@_W@__crt_stdio_output@@@__crt_stdio_output@@CA?AW4parameter_type@12@U_CRT_DOUBLE@@@Z 0000000140025d8c f i libucrt:output.obj
 0001:00024d94       ?get_parameter_type@?$positional_parameter_base@_WV?$string_output_adapter@_W@__crt_stdio_output@@@__crt_stdio_output@@CA?AW4parameter_type@12@_J@Z 0000000140025d94 f i libucrt:output.obj
 0001:00024d9c       ?get_parameter_type@?$positional_parameter_base@_WV?$string_output_adapter@_W@__crt_stdio_output@@@__crt_stdio_output@@CA?AW4parameter_type@12@_K@Z 0000000140025d9c f i libucrt:output.obj
 0001:00024da4       ?get_parameter_type@?$positional_parameter_base@_WV?$string_output_adapter@_W@__crt_stdio_output@@@__crt_stdio_output@@CA?AW4parameter_type@12@_W@Z 0000000140025da4 f i libucrt:output.obj
 0001:00024dac       ?has_flag@?$output_processor@DV?$stream_output_adapter@D@__crt_stdio_output@@V?$format_validation_base@DV?$stream_output_adapter@D@__crt_stdio_output@@@2@@__crt_stdio_output@@AEBA_NI@Z 0000000140025dac f i libucrt:output.obj
 0001:00024db4       ?has_flag@?$output_processor@DV?$stream_output_adapter@D@__crt_stdio_output@@V?$positional_parameter_base@DV?$stream_output_adapter@D@__crt_stdio_output@@@2@@__crt_stdio_output@@AEBA_NI@Z 0000000140025db4 f i libucrt:output.obj
 0001:00024dbc       ?has_flag@?$output_processor@DV?$stream_output_adapter@D@__crt_stdio_output@@V?$standard_base@DV?$stream_output_adapter@D@__crt_stdio_output@@@2@@__crt_stdio_output@@AEBA_NI@Z 0000000140025dbc f i libucrt:output.obj
 0001:00024dc4       ?has_flag@?$output_processor@DV?$string_output_adapter@D@__crt_stdio_output@@V?$format_validation_base@DV?$string_output_adapter@D@__crt_stdio_output@@@2@@__crt_stdio_output@@AEBA_NI@Z 0000000140025dc4 f i libucrt:output.obj
 0001:00024dcc       ?has_flag@?$output_processor@DV?$string_output_adapter@D@__crt_stdio_output@@V?$positional_parameter_base@DV?$string_output_adapter@D@__crt_stdio_output@@@2@@__crt_stdio_output@@AEBA_NI@Z 0000000140025dcc f i libucrt:output.obj
 0001:00024dd4       ?has_flag@?$output_processor@DV?$string_output_adapter@D@__crt_stdio_output@@V?$standard_base@DV?$string_output_adapter@D@__crt_stdio_output@@@2@@__crt_stdio_output@@AEBA_NI@Z 0000000140025dd4 f i libucrt:output.obj
 0001:00024ddc       ?has_flag@?$output_processor@_WV?$stream_output_adapter@_W@__crt_stdio_output@@V?$format_validation_base@_WV?$stream_output_adapter@_W@__crt_stdio_output@@@2@@__crt_stdio_output@@AEBA_NI@Z 0000000140025ddc f i libucrt:output.obj
 0001:00024de4       ?has_flag@?$output_processor@_WV?$stream_output_adapter@_W@__crt_stdio_output@@V?$positional_parameter_base@_WV?$stream_output_adapter@_W@__crt_stdio_output@@@2@@__crt_stdio_output@@AEBA_NI@Z 0000000140025de4 f i libucrt:output.obj
 0001:00024dec       ?has_flag@?$output_processor@_WV?$stream_output_adapter@_W@__crt_stdio_output@@V?$standard_base@_WV?$stream_output_adapter@_W@__crt_stdio_output@@@2@@__crt_stdio_output@@AEBA_NI@Z 0000000140025dec f i libucrt:output.obj
 0001:00024df4       ?has_flag@?$output_processor@_WV?$string_output_adapter@_W@__crt_stdio_output@@V?$format_validation_base@_WV?$string_output_adapter@_W@__crt_stdio_output@@@2@@__crt_stdio_output@@AEBA_NI@Z 0000000140025df4 f i libucrt:output.obj
 0001:00024dfc       ?has_flag@?$output_processor@_WV?$string_output_adapter@_W@__crt_stdio_output@@V?$positional_parameter_base@_WV?$string_output_adapter@_W@__crt_stdio_output@@@2@@__crt_stdio_output@@AEBA_NI@Z 0000000140025dfc f i libucrt:output.obj
 0001:00024e04       ?has_flag@?$output_processor@_WV?$string_output_adapter@_W@__crt_stdio_output@@V?$standard_base@_WV?$string_output_adapter@_W@__crt_stdio_output@@@2@@__crt_stdio_output@@AEBA_NI@Z 0000000140025e04 f i libucrt:output.obj
 0001:00024e0c       ?is_positional_parameter_reappearance_consistent@?$positional_parameter_base@DV?$stream_output_adapter@D@__crt_stdio_output@@@__crt_stdio_output@@AEAA_NAEBUparameter_data@12@W4parameter_type@12@DW4length_modifier@2@@Z 0000000140025e0c f i libucrt:output.obj
 0001:00025014       ?is_positional_parameter_reappearance_consistent@?$positional_parameter_base@DV?$string_output_adapter@D@__crt_stdio_output@@@__crt_stdio_output@@AEAA_NAEBUparameter_data@12@W4parameter_type@12@DW4length_modifier@2@@Z 0000000140026014 f i libucrt:output.obj
 0001:0002521c       ?is_positional_parameter_reappearance_consistent@?$positional_parameter_base@_WV?$stream_output_adapter@_W@__crt_stdio_output@@@__crt_stdio_output@@AEAA_NAEBUparameter_data@12@W4parameter_type@12@_WW4length_modifier@2@@Z 000000014002621c f i libucrt:output.obj
 0001:000253e4       ?is_positional_parameter_reappearance_consistent@?$positional_parameter_base@_WV?$string_output_adapter@_W@__crt_stdio_output@@@__crt_stdio_output@@AEAA_NAEBUparameter_data@12@W4parameter_type@12@_WW4length_modifier@2@@Z 00000001400263e4 f i libucrt:output.obj
 0001:000255ac       ?narrow_null_string@?$output_processor@DV?$stream_output_adapter@D@__crt_stdio_output@@V?$format_validation_base@DV?$stream_output_adapter@D@__crt_stdio_output@@@2@@__crt_stdio_output@@CAPEADXZ 00000001400265ac f i libucrt:output.obj
 0001:000255b8       ?narrow_null_string@?$output_processor@DV?$stream_output_adapter@D@__crt_stdio_output@@V?$positional_parameter_base@DV?$stream_output_adapter@D@__crt_stdio_output@@@2@@__crt_stdio_output@@CAPEADXZ 00000001400265b8 f i libucrt:output.obj
 0001:000255c4       ?narrow_null_string@?$output_processor@DV?$stream_output_adapter@D@__crt_stdio_output@@V?$standard_base@DV?$stream_output_adapter@D@__crt_stdio_output@@@2@@__crt_stdio_output@@CAPEADXZ 00000001400265c4 f i libucrt:output.obj
 0001:000255d0       ?narrow_null_string@?$output_processor@DV?$string_output_adapter@D@__crt_stdio_output@@V?$format_validation_base@DV?$string_output_adapter@D@__crt_stdio_output@@@2@@__crt_stdio_output@@CAPEADXZ 00000001400265d0 f i libucrt:output.obj
 0001:000255dc       ?narrow_null_string@?$output_processor@DV?$string_output_adapter@D@__crt_stdio_output@@V?$positional_parameter_base@DV?$string_output_adapter@D@__crt_stdio_output@@@2@@__crt_stdio_output@@CAPEADXZ 00000001400265dc f i libucrt:output.obj
 0001:000255e8       ?narrow_null_string@?$output_processor@DV?$string_output_adapter@D@__crt_stdio_output@@V?$standard_base@DV?$string_output_adapter@D@__crt_stdio_output@@@2@@__crt_stdio_output@@CAPEADXZ 00000001400265e8 f i libucrt:output.obj
 0001:000255f4       ?narrow_null_string@?$output_processor@_WV?$stream_output_adapter@_W@__crt_stdio_output@@V?$format_validation_base@_WV?$stream_output_adapter@_W@__crt_stdio_output@@@2@@__crt_stdio_output@@CAPEADXZ 00000001400265f4 f i libucrt:output.obj
 0001:00025600       ?narrow_null_string@?$output_processor@_WV?$stream_output_adapter@_W@__crt_stdio_output@@V?$positional_parameter_base@_WV?$stream_output_adapter@_W@__crt_stdio_output@@@2@@__crt_stdio_output@@CAPEADXZ 0000000140026600 f i libucrt:output.obj
 0001:0002560c       ?narrow_null_string@?$output_processor@_WV?$stream_output_adapter@_W@__crt_stdio_output@@V?$standard_base@_WV?$stream_output_adapter@_W@__crt_stdio_output@@@2@@__crt_stdio_output@@CAPEADXZ 000000014002660c f i libucrt:output.obj
 0001:00025618       ?narrow_null_string@?$output_processor@_WV?$string_output_adapter@_W@__crt_stdio_output@@V?$format_validation_base@_WV?$string_output_adapter@_W@__crt_stdio_output@@@2@@__crt_stdio_output@@CAPEADXZ 0000000140026618 f i libucrt:output.obj
 0001:00025624       ?narrow_null_string@?$output_processor@_WV?$string_output_adapter@_W@__crt_stdio_output@@V?$positional_parameter_base@_WV?$string_output_adapter@_W@__crt_stdio_output@@@2@@__crt_stdio_output@@CAPEADXZ 0000000140026624 f i libucrt:output.obj
 0001:00025630       ?narrow_null_string@?$output_processor@_WV?$string_output_adapter@_W@__crt_stdio_output@@V?$standard_base@_WV?$string_output_adapter@_W@__crt_stdio_output@@@2@@__crt_stdio_output@@CAPEADXZ 0000000140026630 f i libucrt:output.obj
 0001:0002563c       ?parse_int_from_format_string@?$output_processor@DV?$stream_output_adapter@D@__crt_stdio_output@@V?$format_validation_base@DV?$stream_output_adapter@D@__crt_stdio_output@@@2@@__crt_stdio_output@@AEAA_NQEAH@Z 000000014002663c f i libucrt:output.obj
 0001:00025708       ?parse_int_from_format_string@?$output_processor@DV?$stream_output_adapter@D@__crt_stdio_output@@V?$positional_parameter_base@DV?$stream_output_adapter@D@__crt_stdio_output@@@2@@__crt_stdio_output@@AEAA_NQEAH@Z 0000000140026708 f i libucrt:output.obj
 0001:000257d4       ?parse_int_from_format_string@?$output_processor@DV?$stream_output_adapter@D@__crt_stdio_output@@V?$standard_base@DV?$stream_output_adapter@D@__crt_stdio_output@@@2@@__crt_stdio_output@@AEAA_NQEAH@Z 00000001400267d4 f i libucrt:output.obj
 0001:000258a0       ?parse_int_from_format_string@?$output_processor@DV?$string_output_adapter@D@__crt_stdio_output@@V?$format_validation_base@DV?$string_output_adapter@D@__crt_stdio_output@@@2@@__crt_stdio_output@@AEAA_NQEAH@Z 00000001400268a0 f i libucrt:output.obj
 0001:0002596c       ?parse_int_from_format_string@?$output_processor@DV?$string_output_adapter@D@__crt_stdio_output@@V?$positional_parameter_base@DV?$string_output_adapter@D@__crt_stdio_output@@@2@@__crt_stdio_output@@AEAA_NQEAH@Z 000000014002696c f i libucrt:output.obj
 0001:00025a38       ?parse_int_from_format_string@?$output_processor@DV?$string_output_adapter@D@__crt_stdio_output@@V?$standard_base@DV?$string_output_adapter@D@__crt_stdio_output@@@2@@__crt_stdio_output@@AEAA_NQEAH@Z 0000000140026a38 f i libucrt:output.obj
 0001:00025b04       ?parse_int_from_format_string@?$output_processor@_WV?$stream_output_adapter@_W@__crt_stdio_output@@V?$format_validation_base@_WV?$stream_output_adapter@_W@__crt_stdio_output@@@2@@__crt_stdio_output@@AEAA_NQEAH@Z 0000000140026b04 f i libucrt:output.obj
 0001:00025bd0       ?parse_int_from_format_string@?$output_processor@_WV?$stream_output_adapter@_W@__crt_stdio_output@@V?$positional_parameter_base@_WV?$stream_output_adapter@_W@__crt_stdio_output@@@2@@__crt_stdio_output@@AEAA_NQEAH@Z 0000000140026bd0 f i libucrt:output.obj
 0001:00025c9c       ?parse_int_from_format_string@?$output_processor@_WV?$stream_output_adapter@_W@__crt_stdio_output@@V?$standard_base@_WV?$stream_output_adapter@_W@__crt_stdio_output@@@2@@__crt_stdio_output@@AEAA_NQEAH@Z 0000000140026c9c f i libucrt:output.obj
 0001:00025d68       ?parse_int_from_format_string@?$output_processor@_WV?$string_output_adapter@_W@__crt_stdio_output@@V?$format_validation_base@_WV?$string_output_adapter@_W@__crt_stdio_output@@@2@@__crt_stdio_output@@AEAA_NQEAH@Z 0000000140026d68 f i libucrt:output.obj
 0001:00025e34       ?parse_int_from_format_string@?$output_processor@_WV?$string_output_adapter@_W@__crt_stdio_output@@V?$positional_parameter_base@_WV?$string_output_adapter@_W@__crt_stdio_output@@@2@@__crt_stdio_output@@AEAA_NQEAH@Z 0000000140026e34 f i libucrt:output.obj
 0001:00025f00       ?parse_int_from_format_string@?$output_processor@_WV?$string_output_adapter@_W@__crt_stdio_output@@V?$standard_base@_WV?$string_output_adapter@_W@__crt_stdio_output@@@2@@__crt_stdio_output@@AEAA_NQEAH@Z 0000000140026f00 f i libucrt:output.obj
 0001:00025fcc       ?process@?$output_processor@DV?$stream_output_adapter@D@__crt_stdio_output@@V?$format_validation_base@DV?$stream_output_adapter@D@__crt_stdio_output@@@2@@__crt_stdio_output@@QEAAHXZ 0000000140026fcc f i libucrt:output.obj
 0001:00026278       ?process@?$output_processor@DV?$stream_output_adapter@D@__crt_stdio_output@@V?$positional_parameter_base@DV?$stream_output_adapter@D@__crt_stdio_output@@@2@@__crt_stdio_output@@QEAAHXZ 0000000140027278 f i libucrt:output.obj
 0001:000265c4       ?process@?$output_processor@DV?$stream_output_adapter@D@__crt_stdio_output@@V?$standard_base@DV?$stream_output_adapter@D@__crt_stdio_output@@@2@@__crt_stdio_output@@QEAAHXZ 00000001400275c4 f i libucrt:output.obj
 0001:0002685c       ?process@?$output_processor@DV?$string_output_adapter@D@__crt_stdio_output@@V?$format_validation_base@DV?$string_output_adapter@D@__crt_stdio_output@@@2@@__crt_stdio_output@@QEAAHXZ 000000014002785c f i libucrt:output.obj
 0001:00026af4       ?process@?$output_processor@DV?$string_output_adapter@D@__crt_stdio_output@@V?$positional_parameter_base@DV?$string_output_adapter@D@__crt_stdio_output@@@2@@__crt_stdio_output@@QEAAHXZ 0000000140027af4 f i libucrt:output.obj
 0001:00026e2c       ?process@?$output_processor@DV?$string_output_adapter@D@__crt_stdio_output@@V?$standard_base@DV?$string_output_adapter@D@__crt_stdio_output@@@2@@__crt_stdio_output@@QEAAHXZ 0000000140027e2c f i libucrt:output.obj
 0001:000270b4       ?process@?$output_processor@_WV?$stream_output_adapter@_W@__crt_stdio_output@@V?$format_validation_base@_WV?$stream_output_adapter@_W@__crt_stdio_output@@@2@@__crt_stdio_output@@QEAAHXZ 00000001400280b4 f i libucrt:output.obj
 0001:000273d8       ?process@?$output_processor@_WV?$stream_output_adapter@_W@__crt_stdio_output@@V?$positional_parameter_base@_WV?$stream_output_adapter@_W@__crt_stdio_output@@@2@@__crt_stdio_output@@QEAAHXZ 00000001400283d8 f i libucrt:output.obj
 0001:00027744       ?process@?$output_processor@_WV?$stream_output_adapter@_W@__crt_stdio_output@@V?$standard_base@_WV?$stream_output_adapter@_W@__crt_stdio_output@@@2@@__crt_stdio_output@@QEAAHXZ 0000000140028744 f i libucrt:output.obj
 0001:00027a58       ?process@?$output_processor@_WV?$string_output_adapter@_W@__crt_stdio_output@@V?$format_validation_base@_WV?$string_output_adapter@_W@__crt_stdio_output@@@2@@__crt_stdio_output@@QEAAHXZ 0000000140028a58 f i libucrt:output.obj
 0001:00027d6c       ?process@?$output_processor@_WV?$string_output_adapter@_W@__crt_stdio_output@@V?$positional_parameter_base@_WV?$string_output_adapter@_W@__crt_stdio_output@@@2@@__crt_stdio_output@@QEAAHXZ 0000000140028d6c f i libucrt:output.obj
 0001:000280d8       ?process@?$output_processor@_WV?$string_output_adapter@_W@__crt_stdio_output@@V?$standard_base@_WV?$string_output_adapter@_W@__crt_stdio_output@@@2@@__crt_stdio_output@@QEAAHXZ 00000001400290d8 f i libucrt:output.obj
 0001:000283e0       ?set_flag@?$output_processor@DV?$stream_output_adapter@D@__crt_stdio_output@@V?$format_validation_base@DV?$stream_output_adapter@D@__crt_stdio_output@@@2@@__crt_stdio_output@@AEAAXI@Z 00000001400293e0 f i libucrt:output.obj
 0001:000283e4       ?set_flag@?$output_processor@DV?$stream_output_adapter@D@__crt_stdio_output@@V?$positional_parameter_base@DV?$stream_output_adapter@D@__crt_stdio_output@@@2@@__crt_stdio_output@@AEAAXI@Z 00000001400293e4 f i libucrt:output.obj
 0001:000283e8       ?set_flag@?$output_processor@DV?$stream_output_adapter@D@__crt_stdio_output@@V?$standard_base@DV?$stream_output_adapter@D@__crt_stdio_output@@@2@@__crt_stdio_output@@AEAAXI@Z 00000001400293e8 f i libucrt:output.obj
 0001:000283ec       ?set_flag@?$output_processor@DV?$string_output_adapter@D@__crt_stdio_output@@V?$format_validation_base@DV?$string_output_adapter@D@__crt_stdio_output@@@2@@__crt_stdio_output@@AEAAXI@Z 00000001400293ec f i libucrt:output.obj
 0001:000283f0       ?set_flag@?$output_processor@DV?$string_output_adapter@D@__crt_stdio_output@@V?$positional_parameter_base@DV?$string_output_adapter@D@__crt_stdio_output@@@2@@__crt_stdio_output@@AEAAXI@Z 00000001400293f0 f i libucrt:output.obj
 0001:000283f4       ?set_flag@?$output_processor@DV?$string_output_adapter@D@__crt_stdio_output@@V?$standard_base@DV?$string_output_adapter@D@__crt_stdio_output@@@2@@__crt_stdio_output@@AEAAXI@Z 00000001400293f4 f i libucrt:output.obj
 0001:000283f8       ?set_flag@?$output_processor@_WV?$stream_output_adapter@_W@__crt_stdio_output@@V?$format_validation_base@_WV?$stream_output_adapter@_W@__crt_stdio_output@@@2@@__crt_stdio_output@@AEAAXI@Z 00000001400293f8 f i libucrt:output.obj
 0001:000283fc       ?set_flag@?$output_processor@_WV?$stream_output_adapter@_W@__crt_stdio_output@@V?$positional_parameter_base@_WV?$stream_output_adapter@_W@__crt_stdio_output@@@2@@__crt_stdio_output@@AEAAXI@Z 00000001400293fc f i libucrt:output.obj
 0001:00028400       ?set_flag@?$output_processor@_WV?$stream_output_adapter@_W@__crt_stdio_output@@V?$standard_base@_WV?$stream_output_adapter@_W@__crt_stdio_output@@@2@@__crt_stdio_output@@AEAAXI@Z 0000000140029400 f i libucrt:output.obj
 0001:00028404       ?set_flag@?$output_processor@_WV?$string_output_adapter@_W@__crt_stdio_output@@V?$format_validation_base@_WV?$string_output_adapter@_W@__crt_stdio_output@@@2@@__crt_stdio_output@@AEAAXI@Z 0000000140029404 f i libucrt:output.obj
 0001:00028408       ?set_flag@?$output_processor@_WV?$string_output_adapter@_W@__crt_stdio_output@@V?$positional_parameter_base@_WV?$string_output_adapter@_W@__crt_stdio_output@@@2@@__crt_stdio_output@@AEAAXI@Z 0000000140029408 f i libucrt:output.obj
 0001:0002840c       ?set_flag@?$output_processor@_WV?$string_output_adapter@_W@__crt_stdio_output@@V?$standard_base@_WV?$string_output_adapter@_W@__crt_stdio_output@@@2@@__crt_stdio_output@@AEAAXI@Z 000000014002940c f i libucrt:output.obj
 0001:00028410       ?should_format@?$positional_parameter_base@DV?$stream_output_adapter@D@__crt_stdio_output@@@__crt_stdio_output@@IEAA_NXZ 0000000140029410 f i libucrt:output.obj
 0001:00028430       ?should_format@?$positional_parameter_base@DV?$string_output_adapter@D@__crt_stdio_output@@@__crt_stdio_output@@IEAA_NXZ 0000000140029430 f i libucrt:output.obj
 0001:00028450       ?should_format@?$positional_parameter_base@_WV?$stream_output_adapter@_W@__crt_stdio_output@@@__crt_stdio_output@@IEAA_NXZ 0000000140029450 f i libucrt:output.obj
 0001:00028470       ?should_format@?$positional_parameter_base@_WV?$string_output_adapter@_W@__crt_stdio_output@@@__crt_stdio_output@@IEAA_NXZ 0000000140029470 f i libucrt:output.obj
 0001:00028490       ?should_format@?$standard_base@DV?$stream_output_adapter@D@__crt_stdio_output@@@__crt_stdio_output@@IEAA_NXZ 0000000140029490 f i libucrt:output.obj
 0001:00028494       ?should_format@?$standard_base@DV?$string_output_adapter@D@__crt_stdio_output@@@__crt_stdio_output@@IEAA_NXZ 0000000140029494 f i libucrt:output.obj
 0001:00028498       ?should_format@?$standard_base@_WV?$stream_output_adapter@_W@__crt_stdio_output@@@__crt_stdio_output@@IEAA_NXZ 0000000140029498 f i libucrt:output.obj
 0001:0002849c       ?should_format@?$standard_base@_WV?$string_output_adapter@_W@__crt_stdio_output@@@__crt_stdio_output@@IEAA_NXZ 000000014002949c f i libucrt:output.obj
 0001:000284a0       ?should_skip_normal_state_processing@?$positional_parameter_base@DV?$stream_output_adapter@D@__crt_stdio_output@@@__crt_stdio_output@@IEAA_NXZ 00000001400294a0 f i libucrt:output.obj
 0001:000284d4       ?should_skip_normal_state_processing@?$positional_parameter_base@DV?$string_output_adapter@D@__crt_stdio_output@@@__crt_stdio_output@@IEAA_NXZ 00000001400294d4 f i libucrt:output.obj
 0001:00028508       ?should_skip_normal_state_processing@?$positional_parameter_base@_WV?$stream_output_adapter@_W@__crt_stdio_output@@@__crt_stdio_output@@IEAA_NXZ 0000000140029508 f i libucrt:output.obj
 0001:0002853c       ?should_skip_normal_state_processing@?$positional_parameter_base@_WV?$string_output_adapter@_W@__crt_stdio_output@@@__crt_stdio_output@@IEAA_NXZ 000000014002953c f i libucrt:output.obj
 0001:00028570       ?should_skip_normal_state_processing@?$standard_base@DV?$stream_output_adapter@D@__crt_stdio_output@@@__crt_stdio_output@@IEAA_NXZ 0000000140029570 f i libucrt:output.obj
 0001:00028574       ?should_skip_normal_state_processing@?$standard_base@DV?$string_output_adapter@D@__crt_stdio_output@@@__crt_stdio_output@@IEAA_NXZ 0000000140029574 f i libucrt:output.obj
 0001:00028578       ?should_skip_normal_state_processing@?$standard_base@_WV?$stream_output_adapter@_W@__crt_stdio_output@@@__crt_stdio_output@@IEAA_NXZ 0000000140029578 f i libucrt:output.obj
 0001:0002857c       ?should_skip_normal_state_processing@?$standard_base@_WV?$string_output_adapter@_W@__crt_stdio_output@@@__crt_stdio_output@@IEAA_NXZ 000000014002957c f i libucrt:output.obj
 0001:00028580       ?should_skip_type_state_output@?$positional_parameter_base@DV?$stream_output_adapter@D@__crt_stdio_output@@@__crt_stdio_output@@IEBA_NXZ 0000000140029580 f i libucrt:output.obj
 0001:000285a0       ?should_skip_type_state_output@?$positional_parameter_base@DV?$string_output_adapter@D@__crt_stdio_output@@@__crt_stdio_output@@IEBA_NXZ 00000001400295a0 f i libucrt:output.obj
 0001:000285c0       ?should_skip_type_state_output@?$positional_parameter_base@_WV?$stream_output_adapter@_W@__crt_stdio_output@@@__crt_stdio_output@@IEBA_NXZ 00000001400295c0 f i libucrt:output.obj
 0001:000285e0       ?should_skip_type_state_output@?$positional_parameter_base@_WV?$string_output_adapter@_W@__crt_stdio_output@@@__crt_stdio_output@@IEBA_NXZ 00000001400295e0 f i libucrt:output.obj
 0001:00028600       ?should_skip_type_state_output@?$standard_base@DV?$stream_output_adapter@D@__crt_stdio_output@@@__crt_stdio_output@@IEBA_NXZ 0000000140029600 f i libucrt:output.obj
 0001:00028604       ?should_skip_type_state_output@?$standard_base@DV?$string_output_adapter@D@__crt_stdio_output@@@__crt_stdio_output@@IEBA_NXZ 0000000140029604 f i libucrt:output.obj
 0001:00028608       ?should_skip_type_state_output@?$standard_base@_WV?$stream_output_adapter@_W@__crt_stdio_output@@@__crt_stdio_output@@IEBA_NXZ 0000000140029608 f i libucrt:output.obj
 0001:0002860c       ?should_skip_type_state_output@?$standard_base@_WV?$string_output_adapter@_W@__crt_stdio_output@@@__crt_stdio_output@@IEBA_NXZ 000000014002960c f i libucrt:output.obj
 0001:00028610       ?state_case_dot@?$output_processor@DV?$stream_output_adapter@D@__crt_stdio_output@@V?$format_validation_base@DV?$stream_output_adapter@D@__crt_stdio_output@@@2@@__crt_stdio_output@@AEAA_NXZ 0000000140029610 f i libucrt:output.obj
 0001:00028618       ?state_case_dot@?$output_processor@DV?$stream_output_adapter@D@__crt_stdio_output@@V?$positional_parameter_base@DV?$stream_output_adapter@D@__crt_stdio_output@@@2@@__crt_stdio_output@@AEAA_NXZ 0000000140029618 f i libucrt:output.obj
 0001:00028620       ?state_case_dot@?$output_processor@DV?$stream_output_adapter@D@__crt_stdio_output@@V?$standard_base@DV?$stream_output_adapter@D@__crt_stdio_output@@@2@@__crt_stdio_output@@AEAA_NXZ 0000000140029620 f i libucrt:output.obj
 0001:00028628       ?state_case_dot@?$output_processor@DV?$string_output_adapter@D@__crt_stdio_output@@V?$format_validation_base@DV?$string_output_adapter@D@__crt_stdio_output@@@2@@__crt_stdio_output@@AEAA_NXZ 0000000140029628 f i libucrt:output.obj
 0001:00028630       ?state_case_dot@?$output_processor@DV?$string_output_adapter@D@__crt_stdio_output@@V?$positional_parameter_base@DV?$string_output_adapter@D@__crt_stdio_output@@@2@@__crt_stdio_output@@AEAA_NXZ 0000000140029630 f i libucrt:output.obj
 0001:00028638       ?state_case_dot@?$output_processor@DV?$string_output_adapter@D@__crt_stdio_output@@V?$standard_base@DV?$string_output_adapter@D@__crt_stdio_output@@@2@@__crt_stdio_output@@AEAA_NXZ 0000000140029638 f i libucrt:output.obj
 0001:00028640       ?state_case_dot@?$output_processor@_WV?$stream_output_adapter@_W@__crt_stdio_output@@V?$format_validation_base@_WV?$stream_output_adapter@_W@__crt_stdio_output@@@2@@__crt_stdio_output@@AEAA_NXZ 0000000140029640 f i libucrt:output.obj
 0001:00028648       ?state_case_dot@?$output_processor@_WV?$stream_output_adapter@_W@__crt_stdio_output@@V?$positional_parameter_base@_WV?$stream_output_adapter@_W@__crt_stdio_output@@@2@@__crt_stdio_output@@AEAA_NXZ 0000000140029648 f i libucrt:output.obj
 0001:00028650       ?state_case_dot@?$output_processor@_WV?$stream_output_adapter@_W@__crt_stdio_output@@V?$standard_base@_WV?$stream_output_adapter@_W@__crt_stdio_output@@@2@@__crt_stdio_output@@AEAA_NXZ 0000000140029650 f i libucrt:output.obj
 0001:00028658       ?state_case_dot@?$output_processor@_WV?$string_output_adapter@_W@__crt_stdio_output@@V?$format_validation_base@_WV?$string_output_adapter@_W@__crt_stdio_output@@@2@@__crt_stdio_output@@AEAA_NXZ 0000000140029658 f i libucrt:output.obj
 0001:00028660       ?state_case_dot@?$output_processor@_WV?$string_output_adapter@_W@__crt_stdio_output@@V?$positional_parameter_base@_WV?$string_output_adapter@_W@__crt_stdio_output@@@2@@__crt_stdio_output@@AEAA_NXZ 0000000140029660 f i libucrt:output.obj
 0001:00028668       ?state_case_dot@?$output_processor@_WV?$string_output_adapter@_W@__crt_stdio_output@@V?$standard_base@_WV?$string_output_adapter@_W@__crt_stdio_output@@@2@@__crt_stdio_output@@AEAA_NXZ 0000000140029668 f i libucrt:output.obj
 0001:00028670       ?state_case_flag@?$output_processor@DV?$stream_output_adapter@D@__crt_stdio_output@@V?$format_validation_base@DV?$stream_output_adapter@D@__crt_stdio_output@@@2@@__crt_stdio_output@@AEAA_NXZ 0000000140029670 f i libucrt:output.obj
 0001:000286b4       ?state_case_flag@?$output_processor@DV?$stream_output_adapter@D@__crt_stdio_output@@V?$positional_parameter_base@DV?$stream_output_adapter@D@__crt_stdio_output@@@2@@__crt_stdio_output@@AEAA_NXZ 00000001400296b4 f i libucrt:output.obj
 0001:000286f8       ?state_case_flag@?$output_processor@DV?$stream_output_adapter@D@__crt_stdio_output@@V?$standard_base@DV?$stream_output_adapter@D@__crt_stdio_output@@@2@@__crt_stdio_output@@AEAA_NXZ 00000001400296f8 f i libucrt:output.obj
 0001:0002873c       ?state_case_flag@?$output_processor@DV?$string_output_adapter@D@__crt_stdio_output@@V?$format_validation_base@DV?$string_output_adapter@D@__crt_stdio_output@@@2@@__crt_stdio_output@@AEAA_NXZ 000000014002973c f i libucrt:output.obj
 0001:00028780       ?state_case_flag@?$output_processor@DV?$string_output_adapter@D@__crt_stdio_output@@V?$positional_parameter_base@DV?$string_output_adapter@D@__crt_stdio_output@@@2@@__crt_stdio_output@@AEAA_NXZ 0000000140029780 f i libucrt:output.obj
 0001:000287c4       ?state_case_flag@?$output_processor@DV?$string_output_adapter@D@__crt_stdio_output@@V?$standard_base@DV?$string_output_adapter@D@__crt_stdio_output@@@2@@__crt_stdio_output@@AEAA_NXZ 00000001400297c4 f i libucrt:output.obj
 0001:00028808       ?state_case_flag@?$output_processor@_WV?$stream_output_adapter@_W@__crt_stdio_output@@V?$format_validation_base@_WV?$stream_output_adapter@_W@__crt_stdio_output@@@2@@__crt_stdio_output@@AEAA_NXZ 0000000140029808 f i libucrt:output.obj
 0001:00028860       ?state_case_flag@?$output_processor@_WV?$stream_output_adapter@_W@__crt_stdio_output@@V?$positional_parameter_base@_WV?$stream_output_adapter@_W@__crt_stdio_output@@@2@@__crt_stdio_output@@AEAA_NXZ 0000000140029860 f i libucrt:output.obj
 0001:000288b8       ?state_case_flag@?$output_processor@_WV?$stream_output_adapter@_W@__crt_stdio_output@@V?$standard_base@_WV?$stream_output_adapter@_W@__crt_stdio_output@@@2@@__crt_stdio_output@@AEAA_NXZ 00000001400298b8 f i libucrt:output.obj
 0001:00028910       ?state_case_flag@?$output_processor@_WV?$string_output_adapter@_W@__crt_stdio_output@@V?$format_validation_base@_WV?$string_output_adapter@_W@__crt_stdio_output@@@2@@__crt_stdio_output@@AEAA_NXZ 0000000140029910 f i libucrt:output.obj
 0001:00028968       ?state_case_flag@?$output_processor@_WV?$string_output_adapter@_W@__crt_stdio_output@@V?$positional_parameter_base@_WV?$string_output_adapter@_W@__crt_stdio_output@@@2@@__crt_stdio_output@@AEAA_NXZ 0000000140029968 f i libucrt:output.obj
 0001:000289c0       ?state_case_flag@?$output_processor@_WV?$string_output_adapter@_W@__crt_stdio_output@@V?$standard_base@_WV?$string_output_adapter@_W@__crt_stdio_output@@@2@@__crt_stdio_output@@AEAA_NXZ 00000001400299c0 f i libucrt:output.obj
 0001:00028a18       ?state_case_normal@?$output_processor@DV?$stream_output_adapter@D@__crt_stdio_output@@V?$format_validation_base@DV?$stream_output_adapter@D@__crt_stdio_output@@@2@@__crt_stdio_output@@AEAA_NXZ 0000000140029a18 f i libucrt:output.obj
 0001:00028aa4       ?state_case_normal@?$output_processor@DV?$stream_output_adapter@D@__crt_stdio_output@@V?$positional_parameter_base@DV?$stream_output_adapter@D@__crt_stdio_output@@@2@@__crt_stdio_output@@AEAA_NXZ 0000000140029aa4 f i libucrt:output.obj
 0001:00028b60       ?state_case_normal@?$output_processor@DV?$stream_output_adapter@D@__crt_stdio_output@@V?$standard_base@DV?$stream_output_adapter@D@__crt_stdio_output@@@2@@__crt_stdio_output@@AEAA_NXZ 0000000140029b60 f i libucrt:output.obj
 0001:00028bec       ?state_case_normal@?$output_processor@DV?$string_output_adapter@D@__crt_stdio_output@@V?$format_validation_base@DV?$string_output_adapter@D@__crt_stdio_output@@@2@@__crt_stdio_output@@AEAA_NXZ 0000000140029bec f i libucrt:output.obj
 0001:00028c80       ?state_case_normal@?$output_processor@DV?$string_output_adapter@D@__crt_stdio_output@@V?$positional_parameter_base@DV?$string_output_adapter@D@__crt_stdio_output@@@2@@__crt_stdio_output@@AEAA_NXZ 0000000140029c80 f i libucrt:output.obj
 0001:00028d40       ?state_case_normal@?$output_processor@DV?$string_output_adapter@D@__crt_stdio_output@@V?$standard_base@DV?$string_output_adapter@D@__crt_stdio_output@@@2@@__crt_stdio_output@@AEAA_NXZ 0000000140029d40 f i libucrt:output.obj
 0001:00028dd4       ?state_case_normal@?$output_processor@_WV?$stream_output_adapter@_W@__crt_stdio_output@@V?$format_validation_base@_WV?$stream_output_adapter@_W@__crt_stdio_output@@@2@@__crt_stdio_output@@AEAA_NXZ 0000000140029dd4 f i libucrt:output.obj
 0001:00028e44       ?state_case_normal@?$output_processor@_WV?$stream_output_adapter@_W@__crt_stdio_output@@V?$positional_parameter_base@_WV?$stream_output_adapter@_W@__crt_stdio_output@@@2@@__crt_stdio_output@@AEAA_NXZ 0000000140029e44 f i libucrt:output.obj
 0001:00028ee0       ?state_case_normal@?$output_processor@_WV?$stream_output_adapter@_W@__crt_stdio_output@@V?$standard_base@_WV?$stream_output_adapter@_W@__crt_stdio_output@@@2@@__crt_stdio_output@@AEAA_NXZ 0000000140029ee0 f i libucrt:output.obj
 0001:00028f50       ?state_case_normal@?$output_processor@_WV?$string_output_adapter@_W@__crt_stdio_output@@V?$format_validation_base@_WV?$string_output_adapter@_W@__crt_stdio_output@@@2@@__crt_stdio_output@@AEAA_NXZ 0000000140029f50 f i libucrt:output.obj
 0001:00028fbc       ?state_case_normal@?$output_processor@_WV?$string_output_adapter@_W@__crt_stdio_output@@V?$positional_parameter_base@_WV?$string_output_adapter@_W@__crt_stdio_output@@@2@@__crt_stdio_output@@AEAA_NXZ 0000000140029fbc f i libucrt:output.obj
 0001:00029054       ?state_case_normal@?$output_processor@_WV?$string_output_adapter@_W@__crt_stdio_output@@V?$standard_base@_WV?$string_output_adapter@_W@__crt_stdio_output@@@2@@__crt_stdio_output@@AEAA_NXZ 000000014002a054 f i libucrt:output.obj
 0001:000290c0       ?state_case_normal_common@?$output_processor@DV?$stream_output_adapter@D@__crt_stdio_output@@V?$format_validation_base@DV?$stream_output_adapter@D@__crt_stdio_output@@@2@@__crt_stdio_output@@AEAA_NXZ 000000014002a0c0 f i libucrt:output.obj
 0001:00029134       ?state_case_normal_common@?$output_processor@DV?$stream_output_adapter@D@__crt_stdio_output@@V?$positional_parameter_base@DV?$stream_output_adapter@D@__crt_stdio_output@@@2@@__crt_stdio_output@@AEAA_NXZ 000000014002a134 f i libucrt:output.obj
 0001:000291a8       ?state_case_normal_common@?$output_processor@DV?$stream_output_adapter@D@__crt_stdio_output@@V?$standard_base@DV?$stream_output_adapter@D@__crt_stdio_output@@@2@@__crt_stdio_output@@AEAA_NXZ 000000014002a1a8 f i libucrt:output.obj
 0001:0002921c       ?state_case_normal_common@?$output_processor@DV?$string_output_adapter@D@__crt_stdio_output@@V?$format_validation_base@DV?$string_output_adapter@D@__crt_stdio_output@@@2@@__crt_stdio_output@@AEAA_NXZ 000000014002a21c f i libucrt:output.obj
 0001:00029294       ?state_case_normal_common@?$output_processor@DV?$string_output_adapter@D@__crt_stdio_output@@V?$positional_parameter_base@DV?$string_output_adapter@D@__crt_stdio_output@@@2@@__crt_stdio_output@@AEAA_NXZ 000000014002a294 f i libucrt:output.obj
 0001:0002930c       ?state_case_normal_common@?$output_processor@DV?$string_output_adapter@D@__crt_stdio_output@@V?$standard_base@DV?$string_output_adapter@D@__crt_stdio_output@@@2@@__crt_stdio_output@@AEAA_NXZ 000000014002a30c f i libucrt:output.obj
 0001:00029384       ?state_case_normal_common@?$output_processor@_WV?$stream_output_adapter@_W@__crt_stdio_output@@V?$format_validation_base@_WV?$stream_output_adapter@_W@__crt_stdio_output@@@2@@__crt_stdio_output@@AEAA_NXZ 000000014002a384 f i libucrt:output.obj
 0001:000293f4       ?state_case_normal_common@?$output_processor@_WV?$stream_output_adapter@_W@__crt_stdio_output@@V?$positional_parameter_base@_WV?$stream_output_adapter@_W@__crt_stdio_output@@@2@@__crt_stdio_output@@AEAA_NXZ 000000014002a3f4 f i libucrt:output.obj
 0001:00029464       ?state_case_normal_common@?$output_processor@_WV?$stream_output_adapter@_W@__crt_stdio_output@@V?$standard_base@_WV?$stream_output_adapter@_W@__crt_stdio_output@@@2@@__crt_stdio_output@@AEAA_NXZ 000000014002a464 f i libucrt:output.obj
 0001:000294d4       ?state_case_normal_common@?$output_processor@_WV?$string_output_adapter@_W@__crt_stdio_output@@V?$format_validation_base@_WV?$string_output_adapter@_W@__crt_stdio_output@@@2@@__crt_stdio_output@@AEAA_NXZ 000000014002a4d4 f i libucrt:output.obj
 0001:00029540       ?state_case_normal_common@?$output_processor@_WV?$string_output_adapter@_W@__crt_stdio_output@@V?$positional_parameter_base@_WV?$string_output_adapter@_W@__crt_stdio_output@@@2@@__crt_stdio_output@@AEAA_NXZ 000000014002a540 f i libucrt:output.obj
 0001:000295ac       ?state_case_normal_common@?$output_processor@_WV?$string_output_adapter@_W@__crt_stdio_output@@V?$standard_base@_WV?$string_output_adapter@_W@__crt_stdio_output@@@2@@__crt_stdio_output@@AEAA_NXZ 000000014002a5ac f i libucrt:output.obj
 0001:00029618       ?state_case_normal_tchar@?$output_processor@DV?$stream_output_adapter@D@__crt_stdio_output@@V?$format_validation_base@DV?$stream_output_adapter@D@__crt_stdio_output@@@2@@__crt_stdio_output@@AEAA_ND@Z 000000014002a618 f i libucrt:output.obj
 0001:000296e4       ?state_case_normal_tchar@?$output_processor@DV?$stream_output_adapter@D@__crt_stdio_output@@V?$positional_parameter_base@DV?$stream_output_adapter@D@__crt_stdio_output@@@2@@__crt_stdio_output@@AEAA_ND@Z 000000014002a6e4 f i libucrt:output.obj
 0001:000297b0       ?state_case_normal_tchar@?$output_processor@DV?$stream_output_adapter@D@__crt_stdio_output@@V?$standard_base@DV?$stream_output_adapter@D@__crt_stdio_output@@@2@@__crt_stdio_output@@AEAA_ND@Z 000000014002a7b0 f i libucrt:output.obj
 0001:0002987c       ?state_case_normal_tchar@?$output_processor@DV?$string_output_adapter@D@__crt_stdio_output@@V?$format_validation_base@DV?$string_output_adapter@D@__crt_stdio_output@@@2@@__crt_stdio_output@@AEAA_ND@Z 000000014002a87c f i libucrt:output.obj
 0001:0002994c       ?state_case_normal_tchar@?$output_processor@DV?$string_output_adapter@D@__crt_stdio_output@@V?$positional_parameter_base@DV?$string_output_adapter@D@__crt_stdio_output@@@2@@__crt_stdio_output@@AEAA_ND@Z 000000014002a94c f i libucrt:output.obj
 0001:00029a1c       ?state_case_normal_tchar@?$output_processor@DV?$string_output_adapter@D@__crt_stdio_output@@V?$standard_base@DV?$string_output_adapter@D@__crt_stdio_output@@@2@@__crt_stdio_output@@AEAA_ND@Z 000000014002aa1c f i libucrt:output.obj
 0001:00029aec       ?state_case_normal_tchar@?$output_processor@_WV?$stream_output_adapter@_W@__crt_stdio_output@@V?$format_validation_base@_WV?$stream_output_adapter@_W@__crt_stdio_output@@@2@@__crt_stdio_output@@AEAA_N_W@Z 000000014002aaec f i libucrt:output.obj
 0001:00029af4       ?state_case_normal_tchar@?$output_processor@_WV?$stream_output_adapter@_W@__crt_stdio_output@@V?$positional_parameter_base@_WV?$stream_output_adapter@_W@__crt_stdio_output@@@2@@__crt_stdio_output@@AEAA_N_W@Z 000000014002aaf4 f i libucrt:output.obj
 0001:00029afc       ?state_case_normal_tchar@?$output_processor@_WV?$stream_output_adapter@_W@__crt_stdio_output@@V?$standard_base@_WV?$stream_output_adapter@_W@__crt_stdio_output@@@2@@__crt_stdio_output@@AEAA_N_W@Z 000000014002aafc f i libucrt:output.obj
 0001:00029b04       ?state_case_normal_tchar@?$output_processor@_WV?$string_output_adapter@_W@__crt_stdio_output@@V?$format_validation_base@_WV?$string_output_adapter@_W@__crt_stdio_output@@@2@@__crt_stdio_output@@AEAA_N_W@Z 000000014002ab04 f i libucrt:output.obj
 0001:00029b0c       ?state_case_normal_tchar@?$output_processor@_WV?$string_output_adapter@_W@__crt_stdio_output@@V?$positional_parameter_base@_WV?$string_output_adapter@_W@__crt_stdio_output@@@2@@__crt_stdio_output@@AEAA_N_W@Z 000000014002ab0c f i libucrt:output.obj
 0001:00029b14       ?state_case_normal_tchar@?$output_processor@_WV?$string_output_adapter@_W@__crt_stdio_output@@V?$standard_base@_WV?$string_output_adapter@_W@__crt_stdio_output@@@2@@__crt_stdio_output@@AEAA_N_W@Z 000000014002ab14 f i libucrt:output.obj
 0001:00029b1c       ?state_case_percent@?$output_processor@DV?$stream_output_adapter@D@__crt_stdio_output@@V?$format_validation_base@DV?$stream_output_adapter@D@__crt_stdio_output@@@2@@__crt_stdio_output@@AEAA_NXZ 000000014002ab1c f i libucrt:output.obj
 0001:00029b38       ?state_case_percent@?$output_processor@DV?$stream_output_adapter@D@__crt_stdio_output@@V?$positional_parameter_base@DV?$stream_output_adapter@D@__crt_stdio_output@@@2@@__crt_stdio_output@@AEAA_NXZ 000000014002ab38 f i libucrt:output.obj
 0001:00029b54       ?state_case_percent@?$output_processor@DV?$stream_output_adapter@D@__crt_stdio_output@@V?$standard_base@DV?$stream_output_adapter@D@__crt_stdio_output@@@2@@__crt_stdio_output@@AEAA_NXZ 000000014002ab54 f i libucrt:output.obj
 0001:00029b70       ?state_case_percent@?$output_processor@DV?$string_output_adapter@D@__crt_stdio_output@@V?$format_validation_base@DV?$string_output_adapter@D@__crt_stdio_output@@@2@@__crt_stdio_output@@AEAA_NXZ 000000014002ab70 f i libucrt:output.obj
 0001:00029b8c       ?state_case_percent@?$output_processor@DV?$string_output_adapter@D@__crt_stdio_output@@V?$positional_parameter_base@DV?$string_output_adapter@D@__crt_stdio_output@@@2@@__crt_stdio_output@@AEAA_NXZ 000000014002ab8c f i libucrt:output.obj
 0001:00029ba8       ?state_case_percent@?$output_processor@DV?$string_output_adapter@D@__crt_stdio_output@@V?$standard_base@DV?$string_output_adapter@D@__crt_stdio_output@@@2@@__crt_stdio_output@@AEAA_NXZ 000000014002aba8 f i libucrt:output.obj
 0001:00029bc4       ?state_case_percent@?$output_processor@_WV?$stream_output_adapter@_W@__crt_stdio_output@@V?$format_validation_base@_WV?$stream_output_adapter@_W@__crt_stdio_output@@@2@@__crt_stdio_output@@AEAA_NXZ 000000014002abc4 f i libucrt:output.obj
 0001:00029be0       ?state_case_percent@?$output_processor@_WV?$stream_output_adapter@_W@__crt_stdio_output@@V?$positional_parameter_base@_WV?$stream_output_adapter@_W@__crt_stdio_output@@@2@@__crt_stdio_output@@AEAA_NXZ 000000014002abe0 f i libucrt:output.obj
 0001:00029bfc       ?state_case_percent@?$output_processor@_WV?$stream_output_adapter@_W@__crt_stdio_output@@V?$standard_base@_WV?$stream_output_adapter@_W@__crt_stdio_output@@@2@@__crt_stdio_output@@AEAA_NXZ 000000014002abfc f i libucrt:output.obj
 0001:00029c18       ?state_case_percent@?$output_processor@_WV?$string_output_adapter@_W@__crt_stdio_output@@V?$format_validation_base@_WV?$string_output_adapter@_W@__crt_stdio_output@@@2@@__crt_stdio_output@@AEAA_NXZ 000000014002ac18 f i libucrt:output.obj
 0001:00029c34       ?state_case_percent@?$output_processor@_WV?$string_output_adapter@_W@__crt_stdio_output@@V?$positional_parameter_base@_WV?$string_output_adapter@_W@__crt_stdio_output@@@2@@__crt_stdio_output@@AEAA_NXZ 000000014002ac34 f i libucrt:output.obj
 0001:00029c50       ?state_case_percent@?$output_processor@_WV?$string_output_adapter@_W@__crt_stdio_output@@V?$standard_base@_WV?$string_output_adapter@_W@__crt_stdio_output@@@2@@__crt_stdio_output@@AEAA_NXZ 000000014002ac50 f i libucrt:output.obj
 0001:00029c6c       ?state_case_precision@?$output_processor@DV?$stream_output_adapter@D@__crt_stdio_output@@V?$format_validation_base@DV?$stream_output_adapter@D@__crt_stdio_output@@@2@@__crt_stdio_output@@AEAA_NXZ 000000014002ac6c f i libucrt:output.obj
 0001:00029c9c       ?state_case_precision@?$output_processor@DV?$stream_output_adapter@D@__crt_stdio_output@@V?$positional_parameter_base@DV?$stream_output_adapter@D@__crt_stdio_output@@@2@@__crt_stdio_output@@AEAA_NXZ 000000014002ac9c f i libucrt:output.obj
 0001:00029cf8       ?state_case_precision@?$output_processor@DV?$stream_output_adapter@D@__crt_stdio_output@@V?$standard_base@DV?$stream_output_adapter@D@__crt_stdio_output@@@2@@__crt_stdio_output@@AEAA_NXZ 000000014002acf8 f i libucrt:output.obj
 0001:00029d28       ?state_case_precision@?$output_processor@DV?$string_output_adapter@D@__crt_stdio_output@@V?$format_validation_base@DV?$string_output_adapter@D@__crt_stdio_output@@@2@@__crt_stdio_output@@AEAA_NXZ 000000014002ad28 f i libucrt:output.obj
 0001:00029d58       ?state_case_precision@?$output_processor@DV?$string_output_adapter@D@__crt_stdio_output@@V?$positional_parameter_base@DV?$string_output_adapter@D@__crt_stdio_output@@@2@@__crt_stdio_output@@AEAA_NXZ 000000014002ad58 f i libucrt:output.obj
 0001:00029db4       ?state_case_precision@?$output_processor@DV?$string_output_adapter@D@__crt_stdio_output@@V?$standard_base@DV?$string_output_adapter@D@__crt_stdio_output@@@2@@__crt_stdio_output@@AEAA_NXZ 000000014002adb4 f i libucrt:output.obj
 0001:00029de4       ?state_case_precision@?$output_processor@_WV?$stream_output_adapter@_W@__crt_stdio_output@@V?$format_validation_base@_WV?$stream_output_adapter@_W@__crt_stdio_output@@@2@@__crt_stdio_output@@AEAA_NXZ 000000014002ade4 f i libucrt:output.obj
 0001:00029e18       ?state_case_precision@?$output_processor@_WV?$stream_output_adapter@_W@__crt_stdio_output@@V?$positional_parameter_base@_WV?$stream_output_adapter@_W@__crt_stdio_output@@@2@@__crt_stdio_output@@AEAA_NXZ 000000014002ae18 f i libucrt:output.obj
 0001:00029e78       ?state_case_precision@?$output_processor@_WV?$stream_output_adapter@_W@__crt_stdio_output@@V?$standard_base@_WV?$stream_output_adapter@_W@__crt_stdio_output@@@2@@__crt_stdio_output@@AEAA_NXZ 000000014002ae78 f i libucrt:output.obj
 0001:00029eac       ?state_case_precision@?$output_processor@_WV?$string_output_adapter@_W@__crt_stdio_output@@V?$format_validation_base@_WV?$string_output_adapter@_W@__crt_stdio_output@@@2@@__crt_stdio_output@@AEAA_NXZ 000000014002aeac f i libucrt:output.obj
 0001:00029ee0       ?state_case_precision@?$output_processor@_WV?$string_output_adapter@_W@__crt_stdio_output@@V?$positional_parameter_base@_WV?$string_output_adapter@_W@__crt_stdio_output@@@2@@__crt_stdio_output@@AEAA_NXZ 000000014002aee0 f i libucrt:output.obj
 0001:00029f40       ?state_case_precision@?$output_processor@_WV?$string_output_adapter@_W@__crt_stdio_output@@V?$standard_base@_WV?$string_output_adapter@_W@__crt_stdio_output@@@2@@__crt_stdio_output@@AEAA_NXZ 000000014002af40 f i libucrt:output.obj
 0001:00029f74       ?state_case_size@?$output_processor@DV?$stream_output_adapter@D@__crt_stdio_output@@V?$format_validation_base@DV?$stream_output_adapter@D@__crt_stdio_output@@@2@@__crt_stdio_output@@AEAA_NXZ 000000014002af74 f i libucrt:output.obj
 0001:0002a13c       ?state_case_size@?$output_processor@DV?$stream_output_adapter@D@__crt_stdio_output@@V?$positional_parameter_base@DV?$stream_output_adapter@D@__crt_stdio_output@@@2@@__crt_stdio_output@@AEAA_NXZ 000000014002b13c f i libucrt:output.obj
 0001:0002a304       ?state_case_size@?$output_processor@DV?$stream_output_adapter@D@__crt_stdio_output@@V?$standard_base@DV?$stream_output_adapter@D@__crt_stdio_output@@@2@@__crt_stdio_output@@AEAA_NXZ 000000014002b304 f i libucrt:output.obj
 0001:0002a4cc       ?state_case_size@?$output_processor@DV?$string_output_adapter@D@__crt_stdio_output@@V?$format_validation_base@DV?$string_output_adapter@D@__crt_stdio_output@@@2@@__crt_stdio_output@@AEAA_NXZ 000000014002b4cc f i libucrt:output.obj
 0001:0002a694       ?state_case_size@?$output_processor@DV?$string_output_adapter@D@__crt_stdio_output@@V?$positional_parameter_base@DV?$string_output_adapter@D@__crt_stdio_output@@@2@@__crt_stdio_output@@AEAA_NXZ 000000014002b694 f i libucrt:output.obj
 0001:0002a85c       ?state_case_size@?$output_processor@DV?$string_output_adapter@D@__crt_stdio_output@@V?$standard_base@DV?$string_output_adapter@D@__crt_stdio_output@@@2@@__crt_stdio_output@@AEAA_NXZ 000000014002b85c f i libucrt:output.obj
 0001:0002aa24       ?state_case_size@?$output_processor@_WV?$stream_output_adapter@_W@__crt_stdio_output@@V?$format_validation_base@_WV?$stream_output_adapter@_W@__crt_stdio_output@@@2@@__crt_stdio_output@@AEAA_NXZ 000000014002ba24 f i libucrt:output.obj
 0001:0002ac1c       ?state_case_size@?$output_processor@_WV?$stream_output_adapter@_W@__crt_stdio_output@@V?$positional_parameter_base@_WV?$stream_output_adapter@_W@__crt_stdio_output@@@2@@__crt_stdio_output@@AEAA_NXZ 000000014002bc1c f i libucrt:output.obj
 0001:0002ae14       ?state_case_size@?$output_processor@_WV?$stream_output_adapter@_W@__crt_stdio_output@@V?$standard_base@_WV?$stream_output_adapter@_W@__crt_stdio_output@@@2@@__crt_stdio_output@@AEAA_NXZ 000000014002be14 f i libucrt:output.obj
 0001:0002b00c       ?state_case_size@?$output_processor@_WV?$string_output_adapter@_W@__crt_stdio_output@@V?$format_validation_base@_WV?$string_output_adapter@_W@__crt_stdio_output@@@2@@__crt_stdio_output@@AEAA_NXZ 000000014002c00c f i libucrt:output.obj
 0001:0002b204       ?state_case_size@?$output_processor@_WV?$string_output_adapter@_W@__crt_stdio_output@@V?$positional_parameter_base@_WV?$string_output_adapter@_W@__crt_stdio_output@@@2@@__crt_stdio_output@@AEAA_NXZ 000000014002c204 f i libucrt:output.obj
 0001:0002b3fc       ?state_case_size@?$output_processor@_WV?$string_output_adapter@_W@__crt_stdio_output@@V?$standard_base@_WV?$string_output_adapter@_W@__crt_stdio_output@@@2@@__crt_stdio_output@@AEAA_NXZ 000000014002c3fc f i libucrt:output.obj
 0001:0002b5f4       ?state_case_type@?$output_processor@DV?$stream_output_adapter@D@__crt_stdio_output@@V?$format_validation_base@DV?$stream_output_adapter@D@__crt_stdio_output@@@2@@__crt_stdio_output@@AEAA_NXZ 000000014002c5f4 f i libucrt:output.obj
 0001:0002b91c       ?state_case_type@?$output_processor@DV?$stream_output_adapter@D@__crt_stdio_output@@V?$positional_parameter_base@DV?$stream_output_adapter@D@__crt_stdio_output@@@2@@__crt_stdio_output@@AEAA_NXZ 000000014002c91c f i libucrt:output.obj
 0001:0002bc5c       ?state_case_type@?$output_processor@DV?$stream_output_adapter@D@__crt_stdio_output@@V?$standard_base@DV?$stream_output_adapter@D@__crt_stdio_output@@@2@@__crt_stdio_output@@AEAA_NXZ 000000014002cc5c f i libucrt:output.obj
 0001:0002bf84       ?state_case_type@?$output_processor@DV?$string_output_adapter@D@__crt_stdio_output@@V?$format_validation_base@DV?$string_output_adapter@D@__crt_stdio_output@@@2@@__crt_stdio_output@@AEAA_NXZ 000000014002cf84 f i libucrt:output.obj
 0001:0002c284       ?state_case_type@?$output_processor@DV?$string_output_adapter@D@__crt_stdio_output@@V?$positional_parameter_base@DV?$string_output_adapter@D@__crt_stdio_output@@@2@@__crt_stdio_output@@AEAA_NXZ 000000014002d284 f i libucrt:output.obj
 0001:0002c5a0       ?state_case_type@?$output_processor@DV?$string_output_adapter@D@__crt_stdio_output@@V?$standard_base@DV?$string_output_adapter@D@__crt_stdio_output@@@2@@__crt_stdio_output@@AEAA_NXZ 000000014002d5a0 f i libucrt:output.obj
 0001:0002c8a0       ?state_case_type@?$output_processor@_WV?$stream_output_adapter@_W@__crt_stdio_output@@V?$format_validation_base@_WV?$stream_output_adapter@_W@__crt_stdio_output@@@2@@__crt_stdio_output@@AEAA_NXZ 000000014002d8a0 f i libucrt:output.obj
 0001:0002cc34       ?state_case_type@?$output_processor@_WV?$stream_output_adapter@_W@__crt_stdio_output@@V?$positional_parameter_base@_WV?$stream_output_adapter@_W@__crt_stdio_output@@@2@@__crt_stdio_output@@AEAA_NXZ 000000014002dc34 f i libucrt:output.obj
 0001:0002cfe4       ?state_case_type@?$output_processor@_WV?$stream_output_adapter@_W@__crt_stdio_output@@V?$standard_base@_WV?$stream_output_adapter@_W@__crt_stdio_output@@@2@@__crt_stdio_output@@AEAA_NXZ 000000014002dfe4 f i libucrt:output.obj
 0001:0002d378       ?state_case_type@?$output_processor@_WV?$string_output_adapter@_W@__crt_stdio_output@@V?$format_validation_base@_WV?$string_output_adapter@_W@__crt_stdio_output@@@2@@__crt_stdio_output@@AEAA_NXZ 000000014002e378 f i libucrt:output.obj
 0001:0002d6f4       ?state_case_type@?$output_processor@_WV?$string_output_adapter@_W@__crt_stdio_output@@V?$positional_parameter_base@_WV?$string_output_adapter@_W@__crt_stdio_output@@@2@@__crt_stdio_output@@AEAA_NXZ 000000014002e6f4 f i libucrt:output.obj
 0001:0002da8c       ?state_case_type@?$output_processor@_WV?$string_output_adapter@_W@__crt_stdio_output@@V?$standard_base@_WV?$string_output_adapter@_W@__crt_stdio_output@@@2@@__crt_stdio_output@@AEAA_NXZ 000000014002ea8c f i libucrt:output.obj
 0001:0002de08       ?state_case_width@?$output_processor@DV?$stream_output_adapter@D@__crt_stdio_output@@V?$format_validation_base@DV?$stream_output_adapter@D@__crt_stdio_output@@@2@@__crt_stdio_output@@AEAA_NXZ 000000014002ee08 f i libucrt:output.obj
 0001:0002de48       ?state_case_width@?$output_processor@DV?$stream_output_adapter@D@__crt_stdio_output@@V?$positional_parameter_base@DV?$stream_output_adapter@D@__crt_stdio_output@@@2@@__crt_stdio_output@@AEAA_NXZ 000000014002ee48 f i libucrt:output.obj
 0001:0002deac       ?state_case_width@?$output_processor@DV?$stream_output_adapter@D@__crt_stdio_output@@V?$standard_base@DV?$stream_output_adapter@D@__crt_stdio_output@@@2@@__crt_stdio_output@@AEAA_NXZ 000000014002eeac f i libucrt:output.obj
 0001:0002deec       ?state_case_width@?$output_processor@DV?$string_output_adapter@D@__crt_stdio_output@@V?$format_validation_base@DV?$string_output_adapter@D@__crt_stdio_output@@@2@@__crt_stdio_output@@AEAA_NXZ 000000014002eeec f i libucrt:output.obj
 0001:0002df2c       ?state_case_width@?$output_processor@DV?$string_output_adapter@D@__crt_stdio_output@@V?$positional_parameter_base@DV?$string_output_adapter@D@__crt_stdio_output@@@2@@__crt_stdio_output@@AEAA_NXZ 000000014002ef2c f i libucrt:output.obj
 0001:0002df90       ?state_case_width@?$output_processor@DV?$string_output_adapter@D@__crt_stdio_output@@V?$standard_base@DV?$string_output_adapter@D@__crt_stdio_output@@@2@@__crt_stdio_output@@AEAA_NXZ 000000014002ef90 f i libucrt:output.obj
 0001:0002dfd0       ?state_case_width@?$output_processor@_WV?$stream_output_adapter@_W@__crt_stdio_output@@V?$format_validation_base@_WV?$stream_output_adapter@_W@__crt_stdio_output@@@2@@__crt_stdio_output@@AEAA_NXZ 000000014002efd0 f i libucrt:output.obj
 0001:0002e010       ?state_case_width@?$output_processor@_WV?$stream_output_adapter@_W@__crt_stdio_output@@V?$positional_parameter_base@_WV?$stream_output_adapter@_W@__crt_stdio_output@@@2@@__crt_stdio_output@@AEAA_NXZ 000000014002f010 f i libucrt:output.obj
 0001:0002e078       ?state_case_width@?$output_processor@_WV?$stream_output_adapter@_W@__crt_stdio_output@@V?$standard_base@_WV?$stream_output_adapter@_W@__crt_stdio_output@@@2@@__crt_stdio_output@@AEAA_NXZ 000000014002f078 f i libucrt:output.obj
 0001:0002e0b8       ?state_case_width@?$output_processor@_WV?$string_output_adapter@_W@__crt_stdio_output@@V?$format_validation_base@_WV?$string_output_adapter@_W@__crt_stdio_output@@@2@@__crt_stdio_output@@AEAA_NXZ 000000014002f0b8 f i libucrt:output.obj
 0001:0002e0f8       ?state_case_width@?$output_processor@_WV?$string_output_adapter@_W@__crt_stdio_output@@V?$positional_parameter_base@_WV?$string_output_adapter@_W@__crt_stdio_output@@@2@@__crt_stdio_output@@AEAA_NXZ 000000014002f0f8 f i libucrt:output.obj
 0001:0002e160       ?state_case_width@?$output_processor@_WV?$string_output_adapter@_W@__crt_stdio_output@@V?$standard_base@_WV?$string_output_adapter@_W@__crt_stdio_output@@@2@@__crt_stdio_output@@AEAA_NXZ 000000014002f160 f i libucrt:output.obj
 0001:0002e1a0       ?state_count@?$format_validation_base@DV?$stream_output_adapter@D@__crt_stdio_output@@@__crt_stdio_output@@KAIXZ 000000014002f1a0 f i libucrt:output.obj
 0001:0002e1a8       ?state_count@?$format_validation_base@DV?$string_output_adapter@D@__crt_stdio_output@@@__crt_stdio_output@@KAIXZ 000000014002f1a8 f i libucrt:output.obj
 0001:0002e1b0       ?state_count@?$format_validation_base@_WV?$stream_output_adapter@_W@__crt_stdio_output@@@__crt_stdio_output@@KAIXZ 000000014002f1b0 f i libucrt:output.obj
 0001:0002e1b8       ?state_count@?$format_validation_base@_WV?$string_output_adapter@_W@__crt_stdio_output@@@__crt_stdio_output@@KAIXZ 000000014002f1b8 f i libucrt:output.obj
 0001:0002e1c0       ?state_count@?$standard_base@DV?$stream_output_adapter@D@__crt_stdio_output@@@__crt_stdio_output@@KAIXZ 000000014002f1c0 f i libucrt:output.obj
 0001:0002e1c8       ?state_count@?$standard_base@DV?$string_output_adapter@D@__crt_stdio_output@@@__crt_stdio_output@@KAIXZ 000000014002f1c8 f i libucrt:output.obj
 0001:0002e1d0       ?state_count@?$standard_base@_WV?$stream_output_adapter@_W@__crt_stdio_output@@@__crt_stdio_output@@KAIXZ 000000014002f1d0 f i libucrt:output.obj
 0001:0002e1d8       ?state_count@?$standard_base@_WV?$string_output_adapter@_W@__crt_stdio_output@@@__crt_stdio_output@@KAIXZ 000000014002f1d8 f i libucrt:output.obj
 0001:0002e1e0       ?state_transition_table@?$format_validation_base@DV?$stream_output_adapter@D@__crt_stdio_output@@@__crt_stdio_output@@KAAEBV?$spectre_mitigated_lookup_table@Ustate_transition_pair@__crt_stdio_output@@$0IA@@2@XZ 000000014002f1e0 f i libucrt:output.obj
 0001:0002e1ec       ?state_transition_table@?$format_validation_base@DV?$string_output_adapter@D@__crt_stdio_output@@@__crt_stdio_output@@KAAEBV?$spectre_mitigated_lookup_table@Ustate_transition_pair@__crt_stdio_output@@$0IA@@2@XZ 000000014002f1ec f i libucrt:output.obj
 0001:0002e1f8       ?state_transition_table@?$format_validation_base@_WV?$stream_output_adapter@_W@__crt_stdio_output@@@__crt_stdio_output@@KAAEBV?$spectre_mitigated_lookup_table@Ustate_transition_pair@__crt_stdio_output@@$0IA@@2@XZ 000000014002f1f8 f i libucrt:output.obj
 0001:0002e204       ?state_transition_table@?$format_validation_base@_WV?$string_output_adapter@_W@__crt_stdio_output@@@__crt_stdio_output@@KAAEBV?$spectre_mitigated_lookup_table@Ustate_transition_pair@__crt_stdio_output@@$0IA@@2@XZ 000000014002f204 f i libucrt:output.obj
 0001:0002e210       ?state_transition_table@?$standard_base@DV?$stream_output_adapter@D@__crt_stdio_output@@@__crt_stdio_output@@KAAEBV?$spectre_mitigated_lookup_table@Ustate_transition_pair@__crt_stdio_output@@$0IA@@2@XZ 000000014002f210 f i libucrt:output.obj
 0001:0002e21c       ?state_transition_table@?$standard_base@DV?$string_output_adapter@D@__crt_stdio_output@@@__crt_stdio_output@@KAAEBV?$spectre_mitigated_lookup_table@Ustate_transition_pair@__crt_stdio_output@@$0IA@@2@XZ 000000014002f21c f i libucrt:output.obj
 0001:0002e228       ?state_transition_table@?$standard_base@_WV?$stream_output_adapter@_W@__crt_stdio_output@@@__crt_stdio_output@@KAAEBV?$spectre_mitigated_lookup_table@Ustate_transition_pair@__crt_stdio_output@@$0IA@@2@XZ 000000014002f228 f i libucrt:output.obj
 0001:0002e234       ?state_transition_table@?$standard_base@_WV?$string_output_adapter@_W@__crt_stdio_output@@@__crt_stdio_output@@KAAEBV?$spectre_mitigated_lookup_table@Ustate_transition_pair@__crt_stdio_output@@$0IA@@2@XZ 000000014002f234 f i libucrt:output.obj
 0001:0002e240       ?tchar_string@?$common_data@D@__crt_stdio_output@@IEAAAEAPEADD@Z 000000014002f240 f i libucrt:output.obj
 0001:0002e248       ?tchar_string@?$common_data@D@__crt_stdio_output@@IEAAAEAPEADXZ 000000014002f248 f i libucrt:output.obj
 0001:0002e250       ?tchar_string@?$common_data@_W@__crt_stdio_output@@IEAAAEAPEA_WXZ 000000014002f250 f i libucrt:output.obj
 0001:0002e258       ?tchar_string@?$common_data@_W@__crt_stdio_output@@IEAAAEAPEA_W_W@Z 000000014002f258 f i libucrt:output.obj
 0001:0002e260       ?to_integer_size@__crt_stdio_output@@YA_KW4length_modifier@1@@Z 000000014002f260 f i libucrt:output.obj
 0001:0002e2e4       ?type_case_X@?$output_processor@DV?$stream_output_adapter@D@__crt_stdio_output@@V?$format_validation_base@DV?$stream_output_adapter@D@__crt_stdio_output@@@2@@__crt_stdio_output@@AEAA_NXZ 000000014002f2e4 f i libucrt:output.obj
 0001:0002e2f4       ?type_case_X@?$output_processor@DV?$stream_output_adapter@D@__crt_stdio_output@@V?$positional_parameter_base@DV?$stream_output_adapter@D@__crt_stdio_output@@@2@@__crt_stdio_output@@AEAA_NXZ 000000014002f2f4 f i libucrt:output.obj
 0001:0002e304       ?type_case_X@?$output_processor@DV?$stream_output_adapter@D@__crt_stdio_output@@V?$standard_base@DV?$stream_output_adapter@D@__crt_stdio_output@@@2@@__crt_stdio_output@@AEAA_NXZ 000000014002f304 f i libucrt:output.obj
 0001:0002e314       ?type_case_X@?$output_processor@DV?$string_output_adapter@D@__crt_stdio_output@@V?$format_validation_base@DV?$string_output_adapter@D@__crt_stdio_output@@@2@@__crt_stdio_output@@AEAA_NXZ 000000014002f314 f i libucrt:output.obj
 0001:0002e324       ?type_case_X@?$output_processor@DV?$string_output_adapter@D@__crt_stdio_output@@V?$positional_parameter_base@DV?$string_output_adapter@D@__crt_stdio_output@@@2@@__crt_stdio_output@@AEAA_NXZ 000000014002f324 f i libucrt:output.obj
 0001:0002e334       ?type_case_X@?$output_processor@DV?$string_output_adapter@D@__crt_stdio_output@@V?$standard_base@DV?$string_output_adapter@D@__crt_stdio_output@@@2@@__crt_stdio_output@@AEAA_NXZ 000000014002f334 f i libucrt:output.obj
 0001:0002e344       ?type_case_X@?$output_processor@_WV?$stream_output_adapter@_W@__crt_stdio_output@@V?$format_validation_base@_WV?$stream_output_adapter@_W@__crt_stdio_output@@@2@@__crt_stdio_output@@AEAA_NXZ 000000014002f344 f i libucrt:output.obj
 0001:0002e354       ?type_case_X@?$output_processor@_WV?$stream_output_adapter@_W@__crt_stdio_output@@V?$positional_parameter_base@_WV?$stream_output_adapter@_W@__crt_stdio_output@@@2@@__crt_stdio_output@@AEAA_NXZ 000000014002f354 f i libucrt:output.obj
 0001:0002e364       ?type_case_X@?$output_processor@_WV?$stream_output_adapter@_W@__crt_stdio_output@@V?$standard_base@_WV?$stream_output_adapter@_W@__crt_stdio_output@@@2@@__crt_stdio_output@@AEAA_NXZ 000000014002f364 f i libucrt:output.obj
 0001:0002e374       ?type_case_X@?$output_processor@_WV?$string_output_adapter@_W@__crt_stdio_output@@V?$format_validation_base@_WV?$string_output_adapter@_W@__crt_stdio_output@@@2@@__crt_stdio_output@@AEAA_NXZ 000000014002f374 f i libucrt:output.obj
 0001:0002e384       ?type_case_X@?$output_processor@_WV?$string_output_adapter@_W@__crt_stdio_output@@V?$positional_parameter_base@_WV?$string_output_adapter@_W@__crt_stdio_output@@@2@@__crt_stdio_output@@AEAA_NXZ 000000014002f384 f i libucrt:output.obj
 0001:0002e394       ?type_case_X@?$output_processor@_WV?$string_output_adapter@_W@__crt_stdio_output@@V?$standard_base@_WV?$string_output_adapter@_W@__crt_stdio_output@@@2@@__crt_stdio_output@@AEAA_NXZ 000000014002f394 f i libucrt:output.obj
 0001:0002e3a4       ?type_case_Z@?$output_processor@DV?$stream_output_adapter@D@__crt_stdio_output@@V?$format_validation_base@DV?$stream_output_adapter@D@__crt_stdio_output@@@2@@__crt_stdio_output@@AEAA_NXZ 000000014002f3a4 f i libucrt:output.obj
 0001:0002e434       ?type_case_Z@?$output_processor@DV?$stream_output_adapter@D@__crt_stdio_output@@V?$positional_parameter_base@DV?$stream_output_adapter@D@__crt_stdio_output@@@2@@__crt_stdio_output@@AEAA_NXZ 000000014002f434 f i libucrt:output.obj
 0001:0002e4fc       ?type_case_Z@?$output_processor@DV?$stream_output_adapter@D@__crt_stdio_output@@V?$standard_base@DV?$stream_output_adapter@D@__crt_stdio_output@@@2@@__crt_stdio_output@@AEAA_NXZ 000000014002f4fc f i libucrt:output.obj
 0001:0002e58c       ?type_case_Z@?$output_processor@DV?$string_output_adapter@D@__crt_stdio_output@@V?$format_validation_base@DV?$string_output_adapter@D@__crt_stdio_output@@@2@@__crt_stdio_output@@AEAA_NXZ 000000014002f58c f i libucrt:output.obj
 0001:0002e61c       ?type_case_Z@?$output_processor@DV?$string_output_adapter@D@__crt_stdio_output@@V?$positional_parameter_base@DV?$string_output_adapter@D@__crt_stdio_output@@@2@@__crt_stdio_output@@AEAA_NXZ 000000014002f61c f i libucrt:output.obj
 0001:0002e6e4       ?type_case_Z@?$output_processor@DV?$string_output_adapter@D@__crt_stdio_output@@V?$standard_base@DV?$string_output_adapter@D@__crt_stdio_output@@@2@@__crt_stdio_output@@AEAA_NXZ 000000014002f6e4 f i libucrt:output.obj
 0001:0002e774       ?type_case_Z@?$output_processor@_WV?$stream_output_adapter@_W@__crt_stdio_output@@V?$format_validation_base@_WV?$stream_output_adapter@_W@__crt_stdio_output@@@2@@__crt_stdio_output@@AEAA_NXZ 000000014002f774 f i libucrt:output.obj
 0001:0002e80c       ?type_case_Z@?$output_processor@_WV?$stream_output_adapter@_W@__crt_stdio_output@@V?$positional_parameter_base@_WV?$stream_output_adapter@_W@__crt_stdio_output@@@2@@__crt_stdio_output@@AEAA_NXZ 000000014002f80c f i libucrt:output.obj
 0001:0002e8c8       ?type_case_Z@?$output_processor@_WV?$stream_output_adapter@_W@__crt_stdio_output@@V?$standard_base@_WV?$stream_output_adapter@_W@__crt_stdio_output@@@2@@__crt_stdio_output@@AEAA_NXZ 000000014002f8c8 f i libucrt:output.obj
 0001:0002e960       ?type_case_Z@?$output_processor@_WV?$string_output_adapter@_W@__crt_stdio_output@@V?$format_validation_base@_WV?$string_output_adapter@_W@__crt_stdio_output@@@2@@__crt_stdio_output@@AEAA_NXZ 000000014002f960 f i libucrt:output.obj
 0001:0002e9f8       ?type_case_Z@?$output_processor@_WV?$string_output_adapter@_W@__crt_stdio_output@@V?$positional_parameter_base@_WV?$string_output_adapter@_W@__crt_stdio_output@@@2@@__crt_stdio_output@@AEAA_NXZ 000000014002f9f8 f i libucrt:output.obj
 0001:0002eab4       ?type_case_Z@?$output_processor@_WV?$string_output_adapter@_W@__crt_stdio_output@@V?$standard_base@_WV?$string_output_adapter@_W@__crt_stdio_output@@@2@@__crt_stdio_output@@AEAA_NXZ 000000014002fab4 f i libucrt:output.obj
 0001:0002eb4c       ?type_case_a@?$output_processor@DV?$stream_output_adapter@D@__crt_stdio_output@@V?$format_validation_base@DV?$stream_output_adapter@D@__crt_stdio_output@@@2@@__crt_stdio_output@@AEAA_NXZ 000000014002fb4c f i libucrt:output.obj
 0001:0002ed78       ?type_case_a@?$output_processor@DV?$stream_output_adapter@D@__crt_stdio_output@@V?$positional_parameter_base@DV?$stream_output_adapter@D@__crt_stdio_output@@@2@@__crt_stdio_output@@AEAA_NXZ 000000014002fd78 f i libucrt:output.obj
 0001:0002eff0       ?type_case_a@?$output_processor@DV?$stream_output_adapter@D@__crt_stdio_output@@V?$standard_base@DV?$stream_output_adapter@D@__crt_stdio_output@@@2@@__crt_stdio_output@@AEAA_NXZ 000000014002fff0 f i libucrt:output.obj
 0001:0002f21c       ?type_case_a@?$output_processor@DV?$string_output_adapter@D@__crt_stdio_output@@V?$format_validation_base@DV?$string_output_adapter@D@__crt_stdio_output@@@2@@__crt_stdio_output@@AEAA_NXZ 000000014003021c f i libucrt:output.obj
 0001:0002f448       ?type_case_a@?$output_processor@DV?$string_output_adapter@D@__crt_stdio_output@@V?$positional_parameter_base@DV?$string_output_adapter@D@__crt_stdio_output@@@2@@__crt_stdio_output@@AEAA_NXZ 0000000140030448 f i libucrt:output.obj
 0001:0002f6c0       ?type_case_a@?$output_processor@DV?$string_output_adapter@D@__crt_stdio_output@@V?$standard_base@DV?$string_output_adapter@D@__crt_stdio_output@@@2@@__crt_stdio_output@@AEAA_NXZ 00000001400306c0 f i libucrt:output.obj
 0001:0002f8ec       ?type_case_a@?$output_processor@_WV?$stream_output_adapter@_W@__crt_stdio_output@@V?$format_validation_base@_WV?$stream_output_adapter@_W@__crt_stdio_output@@@2@@__crt_stdio_output@@AEAA_NXZ 00000001400308ec f i libucrt:output.obj
 0001:0002fb44       ?type_case_a@?$output_processor@_WV?$stream_output_adapter@_W@__crt_stdio_output@@V?$positional_parameter_base@_WV?$stream_output_adapter@_W@__crt_stdio_output@@@2@@__crt_stdio_output@@AEAA_NXZ 0000000140030b44 f i libucrt:output.obj
 0001:0002fde8       ?type_case_a@?$output_processor@_WV?$stream_output_adapter@_W@__crt_stdio_output@@V?$standard_base@_WV?$stream_output_adapter@_W@__crt_stdio_output@@@2@@__crt_stdio_output@@AEAA_NXZ 0000000140030de8 f i libucrt:output.obj
 0001:00030040       ?type_case_a@?$output_processor@_WV?$string_output_adapter@_W@__crt_stdio_output@@V?$format_validation_base@_WV?$string_output_adapter@_W@__crt_stdio_output@@@2@@__crt_stdio_output@@AEAA_NXZ 0000000140031040 f i libucrt:output.obj
 0001:00030298       ?type_case_a@?$output_processor@_WV?$string_output_adapter@_W@__crt_stdio_output@@V?$positional_parameter_base@_WV?$string_output_adapter@_W@__crt_stdio_output@@@2@@__crt_stdio_output@@AEAA_NXZ 0000000140031298 f i libucrt:output.obj
 0001:0003053c       ?type_case_a@?$output_processor@_WV?$string_output_adapter@_W@__crt_stdio_output@@V?$standard_base@_WV?$string_output_adapter@_W@__crt_stdio_output@@@2@@__crt_stdio_output@@AEAA_NXZ 000000014003153c f i libucrt:output.obj
 0001:00030794       ?type_case_c@?$output_processor@DV?$stream_output_adapter@D@__crt_stdio_output@@V?$format_validation_base@DV?$stream_output_adapter@D@__crt_stdio_output@@@2@@__crt_stdio_output@@AEAA_NXZ 0000000140031794 f i libucrt:output.obj
 0001:0003079c       ?type_case_c@?$output_processor@DV?$stream_output_adapter@D@__crt_stdio_output@@V?$positional_parameter_base@DV?$stream_output_adapter@D@__crt_stdio_output@@@2@@__crt_stdio_output@@AEAA_NXZ 000000014003179c f i libucrt:output.obj
 0001:000307a4       ?type_case_c@?$output_processor@DV?$stream_output_adapter@D@__crt_stdio_output@@V?$standard_base@DV?$stream_output_adapter@D@__crt_stdio_output@@@2@@__crt_stdio_output@@AEAA_NXZ 00000001400317a4 f i libucrt:output.obj
 0001:000307ac       ?type_case_c@?$output_processor@DV?$string_output_adapter@D@__crt_stdio_output@@V?$format_validation_base@DV?$string_output_adapter@D@__crt_stdio_output@@@2@@__crt_stdio_output@@AEAA_NXZ 00000001400317ac f i libucrt:output.obj
 0001:000307b4       ?type_case_c@?$output_processor@DV?$string_output_adapter@D@__crt_stdio_output@@V?$positional_parameter_base@DV?$string_output_adapter@D@__crt_stdio_output@@@2@@__crt_stdio_output@@AEAA_NXZ 00000001400317b4 f i libucrt:output.obj
 0001:000307bc       ?type_case_c@?$output_processor@DV?$string_output_adapter@D@__crt_stdio_output@@V?$standard_base@DV?$string_output_adapter@D@__crt_stdio_output@@@2@@__crt_stdio_output@@AEAA_NXZ 00000001400317bc f i libucrt:output.obj
 0001:000307c4       ?type_case_c@?$output_processor@_WV?$stream_output_adapter@_W@__crt_stdio_output@@V?$format_validation_base@_WV?$stream_output_adapter@_W@__crt_stdio_output@@@2@@__crt_stdio_output@@AEAA_NXZ 00000001400317c4 f i libucrt:output.obj
 0001:000307cc       ?type_case_c@?$output_processor@_WV?$stream_output_adapter@_W@__crt_stdio_output@@V?$positional_parameter_base@_WV?$stream_output_adapter@_W@__crt_stdio_output@@@2@@__crt_stdio_output@@AEAA_NXZ 00000001400317cc f i libucrt:output.obj
 0001:000307d4       ?type_case_c@?$output_processor@_WV?$stream_output_adapter@_W@__crt_stdio_output@@V?$standard_base@_WV?$stream_output_adapter@_W@__crt_stdio_output@@@2@@__crt_stdio_output@@AEAA_NXZ 00000001400317d4 f i libucrt:output.obj
 0001:000307dc       ?type_case_c@?$output_processor@_WV?$string_output_adapter@_W@__crt_stdio_output@@V?$format_validation_base@_WV?$string_output_adapter@_W@__crt_stdio_output@@@2@@__crt_stdio_output@@AEAA_NXZ 00000001400317dc f i libucrt:output.obj
 0001:000307e4       ?type_case_c@?$output_processor@_WV?$string_output_adapter@_W@__crt_stdio_output@@V?$positional_parameter_base@_WV?$string_output_adapter@_W@__crt_stdio_output@@@2@@__crt_stdio_output@@AEAA_NXZ 00000001400317e4 f i libucrt:output.obj
 0001:000307ec       ?type_case_c@?$output_processor@_WV?$string_output_adapter@_W@__crt_stdio_output@@V?$standard_base@_WV?$string_output_adapter@_W@__crt_stdio_output@@@2@@__crt_stdio_output@@AEAA_NXZ 00000001400317ec f i libucrt:output.obj
 0001:000307f4       ?type_case_c_tchar@?$output_processor@DV?$stream_output_adapter@D@__crt_stdio_output@@V?$format_validation_base@DV?$stream_output_adapter@D@__crt_stdio_output@@@2@@__crt_stdio_output@@AEAA_ND@Z 00000001400317f4 f i libucrt:output.obj
 0001:000308ec       ?type_case_c_tchar@?$output_processor@DV?$stream_output_adapter@D@__crt_stdio_output@@V?$positional_parameter_base@DV?$stream_output_adapter@D@__crt_stdio_output@@@2@@__crt_stdio_output@@AEAA_ND@Z 00000001400318ec f i libucrt:output.obj
 0001:00030a3c       ?type_case_c_tchar@?$output_processor@DV?$stream_output_adapter@D@__crt_stdio_output@@V?$standard_base@DV?$stream_output_adapter@D@__crt_stdio_output@@@2@@__crt_stdio_output@@AEAA_ND@Z 0000000140031a3c f i libucrt:output.obj
 0001:00030b34       ?type_case_c_tchar@?$output_processor@DV?$string_output_adapter@D@__crt_stdio_output@@V?$format_validation_base@DV?$string_output_adapter@D@__crt_stdio_output@@@2@@__crt_stdio_output@@AEAA_ND@Z 0000000140031b34 f i libucrt:output.obj
 0001:00030c2c       ?type_case_c_tchar@?$output_processor@DV?$string_output_adapter@D@__crt_stdio_output@@V?$positional_parameter_base@DV?$string_output_adapter@D@__crt_stdio_output@@@2@@__crt_stdio_output@@AEAA_ND@Z 0000000140031c2c f i libucrt:output.obj
 0001:00030d7c       ?type_case_c_tchar@?$output_processor@DV?$string_output_adapter@D@__crt_stdio_output@@V?$standard_base@DV?$string_output_adapter@D@__crt_stdio_output@@@2@@__crt_stdio_output@@AEAA_ND@Z 0000000140031d7c f i libucrt:output.obj
 0001:00030e74       ?type_case_c_tchar@?$output_processor@_WV?$stream_output_adapter@_W@__crt_stdio_output@@V?$format_validation_base@_WV?$stream_output_adapter@_W@__crt_stdio_output@@@2@@__crt_stdio_output@@AEAA_N_W@Z 0000000140031e74 f i libucrt:output.obj
 0001:00030f44       ?type_case_c_tchar@?$output_processor@_WV?$stream_output_adapter@_W@__crt_stdio_output@@V?$positional_parameter_base@_WV?$stream_output_adapter@_W@__crt_stdio_output@@@2@@__crt_stdio_output@@AEAA_N_W@Z 0000000140031f44 f i libucrt:output.obj
 0001:00031044       ?type_case_c_tchar@?$output_processor@_WV?$stream_output_adapter@_W@__crt_stdio_output@@V?$standard_base@_WV?$stream_output_adapter@_W@__crt_stdio_output@@@2@@__crt_stdio_output@@AEAA_N_W@Z 0000000140032044 f i libucrt:output.obj
 0001:00031114       ?type_case_c_tchar@?$output_processor@_WV?$string_output_adapter@_W@__crt_stdio_output@@V?$format_validation_base@_WV?$string_output_adapter@_W@__crt_stdio_output@@@2@@__crt_stdio_output@@AEAA_N_W@Z 0000000140032114 f i libucrt:output.obj
 0001:000311e4       ?type_case_c_tchar@?$output_processor@_WV?$string_output_adapter@_W@__crt_stdio_output@@V?$positional_parameter_base@_WV?$string_output_adapter@_W@__crt_stdio_output@@@2@@__crt_stdio_output@@AEAA_N_W@Z 00000001400321e4 f i libucrt:output.obj
 0001:000312e4       ?type_case_c_tchar@?$output_processor@_WV?$string_output_adapter@_W@__crt_stdio_output@@V?$standard_base@_WV?$string_output_adapter@_W@__crt_stdio_output@@@2@@__crt_stdio_output@@AEAA_N_W@Z 00000001400322e4 f i libucrt:output.obj
 0001:000313b4       ?type_case_d@?$output_processor@DV?$stream_output_adapter@D@__crt_stdio_output@@V?$format_validation_base@DV?$stream_output_adapter@D@__crt_stdio_output@@@2@@__crt_stdio_output@@AEAA_NXZ 00000001400323b4 f i libucrt:output.obj
 0001:000313c8       ?type_case_d@?$output_processor@DV?$stream_output_adapter@D@__crt_stdio_output@@V?$positional_parameter_base@DV?$stream_output_adapter@D@__crt_stdio_output@@@2@@__crt_stdio_output@@AEAA_NXZ 00000001400323c8 f i libucrt:output.obj
 0001:000313dc       ?type_case_d@?$output_processor@DV?$stream_output_adapter@D@__crt_stdio_output@@V?$standard_base@DV?$stream_output_adapter@D@__crt_stdio_output@@@2@@__crt_stdio_output@@AEAA_NXZ 00000001400323dc f i libucrt:output.obj
 0001:000313f0       ?type_case_d@?$output_processor@DV?$string_output_adapter@D@__crt_stdio_output@@V?$format_validation_base@DV?$string_output_adapter@D@__crt_stdio_output@@@2@@__crt_stdio_output@@AEAA_NXZ 00000001400323f0 f i libucrt:output.obj
 0001:00031404       ?type_case_d@?$output_processor@DV?$string_output_adapter@D@__crt_stdio_output@@V?$positional_parameter_base@DV?$string_output_adapter@D@__crt_stdio_output@@@2@@__crt_stdio_output@@AEAA_NXZ 0000000140032404 f i libucrt:output.obj
 0001:00031418       ?type_case_d@?$output_processor@DV?$string_output_adapter@D@__crt_stdio_output@@V?$standard_base@DV?$string_output_adapter@D@__crt_stdio_output@@@2@@__crt_stdio_output@@AEAA_NXZ 0000000140032418 f i libucrt:output.obj
 0001:0003142c       ?type_case_d@?$output_processor@_WV?$stream_output_adapter@_W@__crt_stdio_output@@V?$format_validation_base@_WV?$stream_output_adapter@_W@__crt_stdio_output@@@2@@__crt_stdio_output@@AEAA_NXZ 000000014003242c f i libucrt:output.obj
 0001:00031440       ?type_case_d@?$output_processor@_WV?$stream_output_adapter@_W@__crt_stdio_output@@V?$positional_parameter_base@_WV?$stream_output_adapter@_W@__crt_stdio_output@@@2@@__crt_stdio_output@@AEAA_NXZ 0000000140032440 f i libucrt:output.obj
 0001:00031454       ?type_case_d@?$output_processor@_WV?$stream_output_adapter@_W@__crt_stdio_output@@V?$standard_base@_WV?$stream_output_adapter@_W@__crt_stdio_output@@@2@@__crt_stdio_output@@AEAA_NXZ 0000000140032454 f i libucrt:output.obj
 0001:00031468       ?type_case_d@?$output_processor@_WV?$string_output_adapter@_W@__crt_stdio_output@@V?$format_validation_base@_WV?$string_output_adapter@_W@__crt_stdio_output@@@2@@__crt_stdio_output@@AEAA_NXZ 0000000140032468 f i libucrt:output.obj
 0001:0003147c       ?type_case_d@?$output_processor@_WV?$string_output_adapter@_W@__crt_stdio_output@@V?$positional_parameter_base@_WV?$string_output_adapter@_W@__crt_stdio_output@@@2@@__crt_stdio_output@@AEAA_NXZ 000000014003247c f i libucrt:output.obj
 0001:00031490       ?type_case_d@?$output_processor@_WV?$string_output_adapter@_W@__crt_stdio_output@@V?$standard_base@_WV?$string_output_adapter@_W@__crt_stdio_output@@@2@@__crt_stdio_output@@AEAA_NXZ 0000000140032490 f i libucrt:output.obj
 0001:000314a4       ?type_case_integer@?$output_processor@DV?$stream_output_adapter@D@__crt_stdio_output@@V?$format_validation_base@DV?$stream_output_adapter@D@__crt_stdio_output@@@2@@__crt_stdio_output@@AEAA_NI_N@Z 00000001400324a4 f i libucrt:output.obj
 0001:00031684       ?type_case_integer@?$output_processor@DV?$stream_output_adapter@D@__crt_stdio_output@@V?$positional_parameter_base@DV?$stream_output_adapter@D@__crt_stdio_output@@@2@@__crt_stdio_output@@AEAA_NI_N@Z 0000000140032684 f i libucrt:output.obj
 0001:00031898       ?type_case_integer@?$output_processor@DV?$stream_output_adapter@D@__crt_stdio_output@@V?$standard_base@DV?$stream_output_adapter@D@__crt_stdio_output@@@2@@__crt_stdio_output@@AEAA_NI_N@Z 0000000140032898 f i libucrt:output.obj
 0001:00031a78       ?type_case_integer@?$output_processor@DV?$string_output_adapter@D@__crt_stdio_output@@V?$format_validation_base@DV?$string_output_adapter@D@__crt_stdio_output@@@2@@__crt_stdio_output@@AEAA_NI_N@Z 0000000140032a78 f i libucrt:output.obj
 0001:00031c58       ?type_case_integer@?$output_processor@DV?$string_output_adapter@D@__crt_stdio_output@@V?$positional_parameter_base@DV?$string_output_adapter@D@__crt_stdio_output@@@2@@__crt_stdio_output@@AEAA_NI_N@Z 0000000140032c58 f i libucrt:output.obj
 0001:00031e6c       ?type_case_integer@?$output_processor@DV?$string_output_adapter@D@__crt_stdio_output@@V?$standard_base@DV?$string_output_adapter@D@__crt_stdio_output@@@2@@__crt_stdio_output@@AEAA_NI_N@Z 0000000140032e6c f i libucrt:output.obj
 0001:0003204c       ?type_case_integer@?$output_processor@_WV?$stream_output_adapter@_W@__crt_stdio_output@@V?$format_validation_base@_WV?$stream_output_adapter@_W@__crt_stdio_output@@@2@@__crt_stdio_output@@AEAA_NI_N@Z 000000014003304c f i libucrt:output.obj
 0001:00032234       ?type_case_integer@?$output_processor@_WV?$stream_output_adapter@_W@__crt_stdio_output@@V?$positional_parameter_base@_WV?$stream_output_adapter@_W@__crt_stdio_output@@@2@@__crt_stdio_output@@AEAA_NI_N@Z 0000000140033234 f i libucrt:output.obj
 0001:00032450       ?type_case_integer@?$output_processor@_WV?$stream_output_adapter@_W@__crt_stdio_output@@V?$standard_base@_WV?$stream_output_adapter@_W@__crt_stdio_output@@@2@@__crt_stdio_output@@AEAA_NI_N@Z 0000000140033450 f i libucrt:output.obj
 0001:00032638       ?type_case_integer@?$output_processor@_WV?$string_output_adapter@_W@__crt_stdio_output@@V?$format_validation_base@_WV?$string_output_adapter@_W@__crt_stdio_output@@@2@@__crt_stdio_output@@AEAA_NI_N@Z 0000000140033638 f i libucrt:output.obj
 0001:00032820       ?type_case_integer@?$output_processor@_WV?$string_output_adapter@_W@__crt_stdio_output@@V?$positional_parameter_base@_WV?$string_output_adapter@_W@__crt_stdio_output@@@2@@__crt_stdio_output@@AEAA_NI_N@Z 0000000140033820 f i libucrt:output.obj
 0001:00032a3c       ?type_case_integer@?$output_processor@_WV?$string_output_adapter@_W@__crt_stdio_output@@V?$standard_base@_WV?$string_output_adapter@_W@__crt_stdio_output@@@2@@__crt_stdio_output@@AEAA_NI_N@Z 0000000140033a3c f i libucrt:output.obj
 0001:00032c24       ?type_case_n@?$output_processor@DV?$stream_output_adapter@D@__crt_stdio_output@@V?$format_validation_base@DV?$stream_output_adapter@D@__crt_stdio_output@@@2@@__crt_stdio_output@@AEAA_NXZ 0000000140033c24 f i libucrt:output.obj
 0001:00032ccc       ?type_case_n@?$output_processor@DV?$stream_output_adapter@D@__crt_stdio_output@@V?$positional_parameter_base@DV?$stream_output_adapter@D@__crt_stdio_output@@@2@@__crt_stdio_output@@AEAA_NXZ 0000000140033ccc f i libucrt:output.obj
 0001:00032da8       ?type_case_n@?$output_processor@DV?$stream_output_adapter@D@__crt_stdio_output@@V?$standard_base@DV?$stream_output_adapter@D@__crt_stdio_output@@@2@@__crt_stdio_output@@AEAA_NXZ 0000000140033da8 f i libucrt:output.obj
 0001:00032e50       ?type_case_n@?$output_processor@DV?$string_output_adapter@D@__crt_stdio_output@@V?$format_validation_base@DV?$string_output_adapter@D@__crt_stdio_output@@@2@@__crt_stdio_output@@AEAA_NXZ 0000000140033e50 f i libucrt:output.obj
 0001:00032ef8       ?type_case_n@?$output_processor@DV?$string_output_adapter@D@__crt_stdio_output@@V?$positional_parameter_base@DV?$string_output_adapter@D@__crt_stdio_output@@@2@@__crt_stdio_output@@AEAA_NXZ 0000000140033ef8 f i libucrt:output.obj
 0001:00032fd4       ?type_case_n@?$output_processor@DV?$string_output_adapter@D@__crt_stdio_output@@V?$standard_base@DV?$string_output_adapter@D@__crt_stdio_output@@@2@@__crt_stdio_output@@AEAA_NXZ 0000000140033fd4 f i libucrt:output.obj
 0001:0003307c       ?type_case_n@?$output_processor@_WV?$stream_output_adapter@_W@__crt_stdio_output@@V?$format_validation_base@_WV?$stream_output_adapter@_W@__crt_stdio_output@@@2@@__crt_stdio_output@@AEAA_NXZ 000000014003407c f i libucrt:output.obj
 0001:00033124       ?type_case_n@?$output_processor@_WV?$stream_output_adapter@_W@__crt_stdio_output@@V?$positional_parameter_base@_WV?$stream_output_adapter@_W@__crt_stdio_output@@@2@@__crt_stdio_output@@AEAA_NXZ 0000000140034124 f i libucrt:output.obj
 0001:00033200       ?type_case_n@?$output_processor@_WV?$stream_output_adapter@_W@__crt_stdio_output@@V?$standard_base@_WV?$stream_output_adapter@_W@__crt_stdio_output@@@2@@__crt_stdio_output@@AEAA_NXZ 0000000140034200 f i libucrt:output.obj
 0001:000332a8       ?type_case_n@?$output_processor@_WV?$string_output_adapter@_W@__crt_stdio_output@@V?$format_validation_base@_WV?$string_output_adapter@_W@__crt_stdio_output@@@2@@__crt_stdio_output@@AEAA_NXZ 00000001400342a8 f i libucrt:output.obj
 0001:00033350       ?type_case_n@?$output_processor@_WV?$string_output_adapter@_W@__crt_stdio_output@@V?$positional_parameter_base@_WV?$string_output_adapter@_W@__crt_stdio_output@@@2@@__crt_stdio_output@@AEAA_NXZ 0000000140034350 f i libucrt:output.obj
 0001:0003342c       ?type_case_n@?$output_processor@_WV?$string_output_adapter@_W@__crt_stdio_output@@V?$standard_base@_WV?$string_output_adapter@_W@__crt_stdio_output@@@2@@__crt_stdio_output@@AEAA_NXZ 000000014003442c f i libucrt:output.obj
 0001:000334d4       ?type_case_o@?$output_processor@DV?$stream_output_adapter@D@__crt_stdio_output@@V?$format_validation_base@DV?$stream_output_adapter@D@__crt_stdio_output@@@2@@__crt_stdio_output@@AEAA_NXZ 00000001400344d4 f i libucrt:output.obj
 0001:000334fc       ?type_case_o@?$output_processor@DV?$stream_output_adapter@D@__crt_stdio_output@@V?$positional_parameter_base@DV?$stream_output_adapter@D@__crt_stdio_output@@@2@@__crt_stdio_output@@AEAA_NXZ 00000001400344fc f i libucrt:output.obj
 0001:00033524       ?type_case_o@?$output_processor@DV?$stream_output_adapter@D@__crt_stdio_output@@V?$standard_base@DV?$stream_output_adapter@D@__crt_stdio_output@@@2@@__crt_stdio_output@@AEAA_NXZ 0000000140034524 f i libucrt:output.obj
 0001:0003354c       ?type_case_o@?$output_processor@DV?$string_output_adapter@D@__crt_stdio_output@@V?$format_validation_base@DV?$string_output_adapter@D@__crt_stdio_output@@@2@@__crt_stdio_output@@AEAA_NXZ 000000014003454c f i libucrt:output.obj
 0001:00033574       ?type_case_o@?$output_processor@DV?$string_output_adapter@D@__crt_stdio_output@@V?$positional_parameter_base@DV?$string_output_adapter@D@__crt_stdio_output@@@2@@__crt_stdio_output@@AEAA_NXZ 0000000140034574 f i libucrt:output.obj
 0001:0003359c       ?type_case_o@?$output_processor@DV?$string_output_adapter@D@__crt_stdio_output@@V?$standard_base@DV?$string_output_adapter@D@__crt_stdio_output@@@2@@__crt_stdio_output@@AEAA_NXZ 000000014003459c f i libucrt:output.obj
 0001:000335c4       ?type_case_o@?$output_processor@_WV?$stream_output_adapter@_W@__crt_stdio_output@@V?$format_validation_base@_WV?$stream_output_adapter@_W@__crt_stdio_output@@@2@@__crt_stdio_output@@AEAA_NXZ 00000001400345c4 f i libucrt:output.obj
 0001:000335ec       ?type_case_o@?$output_processor@_WV?$stream_output_adapter@_W@__crt_stdio_output@@V?$positional_parameter_base@_WV?$stream_output_adapter@_W@__crt_stdio_output@@@2@@__crt_stdio_output@@AEAA_NXZ 00000001400345ec f i libucrt:output.obj
 0001:00033614       ?type_case_o@?$output_processor@_WV?$stream_output_adapter@_W@__crt_stdio_output@@V?$standard_base@_WV?$stream_output_adapter@_W@__crt_stdio_output@@@2@@__crt_stdio_output@@AEAA_NXZ 0000000140034614 f i libucrt:output.obj
 0001:0003363c       ?type_case_o@?$output_processor@_WV?$string_output_adapter@_W@__crt_stdio_output@@V?$format_validation_base@_WV?$string_output_adapter@_W@__crt_stdio_output@@@2@@__crt_stdio_output@@AEAA_NXZ 000000014003463c f i libucrt:output.obj
 0001:00033664       ?type_case_o@?$output_processor@_WV?$string_output_adapter@_W@__crt_stdio_output@@V?$positional_parameter_base@_WV?$string_output_adapter@_W@__crt_stdio_output@@@2@@__crt_stdio_output@@AEAA_NXZ 0000000140034664 f i libucrt:output.obj
 0001:0003368c       ?type_case_o@?$output_processor@_WV?$string_output_adapter@_W@__crt_stdio_output@@V?$standard_base@_WV?$string_output_adapter@_W@__crt_stdio_output@@@2@@__crt_stdio_output@@AEAA_NXZ 000000014003468c f i libucrt:output.obj
 0001:000336b4       ?type_case_p@?$output_processor@DV?$stream_output_adapter@D@__crt_stdio_output@@V?$format_validation_base@DV?$stream_output_adapter@D@__crt_stdio_output@@@2@@__crt_stdio_output@@AEAA_NXZ 00000001400346b4 f i libucrt:output.obj
 0001:000336d0       ?type_case_p@?$output_processor@DV?$stream_output_adapter@D@__crt_stdio_output@@V?$positional_parameter_base@DV?$stream_output_adapter@D@__crt_stdio_output@@@2@@__crt_stdio_output@@AEAA_NXZ 00000001400346d0 f i libucrt:output.obj
 0001:000336ec       ?type_case_p@?$output_processor@DV?$stream_output_adapter@D@__crt_stdio_output@@V?$standard_base@DV?$stream_output_adapter@D@__crt_stdio_output@@@2@@__crt_stdio_output@@AEAA_NXZ 00000001400346ec f i libucrt:output.obj
 0001:00033708       ?type_case_p@?$output_processor@DV?$string_output_adapter@D@__crt_stdio_output@@V?$format_validation_base@DV?$string_output_adapter@D@__crt_stdio_output@@@2@@__crt_stdio_output@@AEAA_NXZ 0000000140034708 f i libucrt:output.obj
 0001:00033724       ?type_case_p@?$output_processor@DV?$string_output_adapter@D@__crt_stdio_output@@V?$positional_parameter_base@DV?$string_output_adapter@D@__crt_stdio_output@@@2@@__crt_stdio_output@@AEAA_NXZ 0000000140034724 f i libucrt:output.obj
 0001:00033740       ?type_case_p@?$output_processor@DV?$string_output_adapter@D@__crt_stdio_output@@V?$standard_base@DV?$string_output_adapter@D@__crt_stdio_output@@@2@@__crt_stdio_output@@AEAA_NXZ 0000000140034740 f i libucrt:output.obj
 0001:0003375c       ?type_case_p@?$output_processor@_WV?$stream_output_adapter@_W@__crt_stdio_output@@V?$format_validation_base@_WV?$stream_output_adapter@_W@__crt_stdio_output@@@2@@__crt_stdio_output@@AEAA_NXZ 000000014003475c f i libucrt:output.obj
 0001:00033778       ?type_case_p@?$output_processor@_WV?$stream_output_adapter@_W@__crt_stdio_output@@V?$positional_parameter_base@_WV?$stream_output_adapter@_W@__crt_stdio_output@@@2@@__crt_stdio_output@@AEAA_NXZ 0000000140034778 f i libucrt:output.obj
 0001:00033794       ?type_case_p@?$output_processor@_WV?$stream_output_adapter@_W@__crt_stdio_output@@V?$standard_base@_WV?$stream_output_adapter@_W@__crt_stdio_output@@@2@@__crt_stdio_output@@AEAA_NXZ 0000000140034794 f i libucrt:output.obj
 0001:000337b0       ?type_case_p@?$output_processor@_WV?$string_output_adapter@_W@__crt_stdio_output@@V?$format_validation_base@_WV?$string_output_adapter@_W@__crt_stdio_output@@@2@@__crt_stdio_output@@AEAA_NXZ 00000001400347b0 f i libucrt:output.obj
 0001:000337cc       ?type_case_p@?$output_processor@_WV?$string_output_adapter@_W@__crt_stdio_output@@V?$positional_parameter_base@_WV?$string_output_adapter@_W@__crt_stdio_output@@@2@@__crt_stdio_output@@AEAA_NXZ 00000001400347cc f i libucrt:output.obj
 0001:000337e8       ?type_case_p@?$output_processor@_WV?$string_output_adapter@_W@__crt_stdio_output@@V?$standard_base@_WV?$string_output_adapter@_W@__crt_stdio_output@@@2@@__crt_stdio_output@@AEAA_NXZ 00000001400347e8 f i libucrt:output.obj
 0001:00033804       ?type_case_s@?$output_processor@DV?$stream_output_adapter@D@__crt_stdio_output@@V?$format_validation_base@DV?$stream_output_adapter@D@__crt_stdio_output@@@2@@__crt_stdio_output@@AEAA_NXZ 0000000140034804 f i libucrt:output.obj
 0001:000338c0       ?type_case_s@?$output_processor@DV?$stream_output_adapter@D@__crt_stdio_output@@V?$positional_parameter_base@DV?$stream_output_adapter@D@__crt_stdio_output@@@2@@__crt_stdio_output@@AEAA_NXZ 00000001400348c0 f i libucrt:output.obj
 0001:000339a4       ?type_case_s@?$output_processor@DV?$stream_output_adapter@D@__crt_stdio_output@@V?$standard_base@DV?$stream_output_adapter@D@__crt_stdio_output@@@2@@__crt_stdio_output@@AEAA_NXZ 00000001400349a4 f i libucrt:output.obj
 0001:00033a60       ?type_case_s@?$output_processor@DV?$string_output_adapter@D@__crt_stdio_output@@V?$format_validation_base@DV?$string_output_adapter@D@__crt_stdio_output@@@2@@__crt_stdio_output@@AEAA_NXZ 0000000140034a60 f i libucrt:output.obj
 0001:00033b1c       ?type_case_s@?$output_processor@DV?$string_output_adapter@D@__crt_stdio_output@@V?$positional_parameter_base@DV?$string_output_adapter@D@__crt_stdio_output@@@2@@__crt_stdio_output@@AEAA_NXZ 0000000140034b1c f i libucrt:output.obj
 0001:00033c00       ?type_case_s@?$output_processor@DV?$string_output_adapter@D@__crt_stdio_output@@V?$standard_base@DV?$string_output_adapter@D@__crt_stdio_output@@@2@@__crt_stdio_output@@AEAA_NXZ 0000000140034c00 f i libucrt:output.obj
 0001:00033cbc       ?type_case_s@?$output_processor@_WV?$stream_output_adapter@_W@__crt_stdio_output@@V?$format_validation_base@_WV?$stream_output_adapter@_W@__crt_stdio_output@@@2@@__crt_stdio_output@@AEAA_NXZ 0000000140034cbc f i libucrt:output.obj
 0001:00033db4       ?type_case_s@?$output_processor@_WV?$stream_output_adapter@_W@__crt_stdio_output@@V?$positional_parameter_base@_WV?$stream_output_adapter@_W@__crt_stdio_output@@@2@@__crt_stdio_output@@AEAA_NXZ 0000000140034db4 f i libucrt:output.obj
 0001:00033ed8       ?type_case_s@?$output_processor@_WV?$stream_output_adapter@_W@__crt_stdio_output@@V?$standard_base@_WV?$stream_output_adapter@_W@__crt_stdio_output@@@2@@__crt_stdio_output@@AEAA_NXZ 0000000140034ed8 f i libucrt:output.obj
 0001:00033fd0       ?type_case_s@?$output_processor@_WV?$string_output_adapter@_W@__crt_stdio_output@@V?$format_validation_base@_WV?$string_output_adapter@_W@__crt_stdio_output@@@2@@__crt_stdio_output@@AEAA_NXZ 0000000140034fd0 f i libucrt:output.obj
 0001:000340c8       ?type_case_s@?$output_processor@_WV?$string_output_adapter@_W@__crt_stdio_output@@V?$positional_parameter_base@_WV?$string_output_adapter@_W@__crt_stdio_output@@@2@@__crt_stdio_output@@AEAA_NXZ 00000001400350c8 f i libucrt:output.obj
 0001:000341ec       ?type_case_s@?$output_processor@_WV?$string_output_adapter@_W@__crt_stdio_output@@V?$standard_base@_WV?$string_output_adapter@_W@__crt_stdio_output@@@2@@__crt_stdio_output@@AEAA_NXZ 00000001400351ec f i libucrt:output.obj
 0001:000342e4       ?type_case_s_compute_narrow_string_length@?$output_processor@DV?$stream_output_adapter@D@__crt_stdio_output@@V?$format_validation_base@DV?$stream_output_adapter@D@__crt_stdio_output@@@2@@__crt_stdio_output@@AEBAHHD@Z 00000001400352e4 f i libucrt:output.obj
 0001:000342f4       ?type_case_s_compute_narrow_string_length@?$output_processor@DV?$stream_output_adapter@D@__crt_stdio_output@@V?$positional_parameter_base@DV?$stream_output_adapter@D@__crt_stdio_output@@@2@@__crt_stdio_output@@AEBAHHD@Z 00000001400352f4 f i libucrt:output.obj
 0001:00034304       ?type_case_s_compute_narrow_string_length@?$output_processor@DV?$stream_output_adapter@D@__crt_stdio_output@@V?$standard_base@DV?$stream_output_adapter@D@__crt_stdio_output@@@2@@__crt_stdio_output@@AEBAHHD@Z 0000000140035304 f i libucrt:output.obj
 0001:00034314       ?type_case_s_compute_narrow_string_length@?$output_processor@DV?$string_output_adapter@D@__crt_stdio_output@@V?$format_validation_base@DV?$string_output_adapter@D@__crt_stdio_output@@@2@@__crt_stdio_output@@AEBAHHD@Z 0000000140035314 f i libucrt:output.obj
 0001:00034324       ?type_case_s_compute_narrow_string_length@?$output_processor@DV?$string_output_adapter@D@__crt_stdio_output@@V?$positional_parameter_base@DV?$string_output_adapter@D@__crt_stdio_output@@@2@@__crt_stdio_output@@AEBAHHD@Z 0000000140035324 f i libucrt:output.obj
 0001:00034334       ?type_case_s_compute_narrow_string_length@?$output_processor@DV?$string_output_adapter@D@__crt_stdio_output@@V?$standard_base@DV?$string_output_adapter@D@__crt_stdio_output@@@2@@__crt_stdio_output@@AEBAHHD@Z 0000000140035334 f i libucrt:output.obj
 0001:00034344       ?type_case_s_compute_narrow_string_length@?$output_processor@_WV?$stream_output_adapter@_W@__crt_stdio_output@@V?$format_validation_base@_WV?$stream_output_adapter@_W@__crt_stdio_output@@@2@@__crt_stdio_output@@AEBAHH_W@Z 0000000140035344 f i libucrt:output.obj
 0001:000343ac       ?type_case_s_compute_narrow_string_length@?$output_processor@_WV?$stream_output_adapter@_W@__crt_stdio_output@@V?$positional_parameter_base@_WV?$stream_output_adapter@_W@__crt_stdio_output@@@2@@__crt_stdio_output@@AEBAHH_W@Z 00000001400353ac f i libucrt:output.obj
 0001:00034414       ?type_case_s_compute_narrow_string_length@?$output_processor@_WV?$stream_output_adapter@_W@__crt_stdio_output@@V?$standard_base@_WV?$stream_output_adapter@_W@__crt_stdio_output@@@2@@__crt_stdio_output@@AEBAHH_W@Z 0000000140035414 f i libucrt:output.obj
 0001:0003447c       ?type_case_s_compute_narrow_string_length@?$output_processor@_WV?$string_output_adapter@_W@__crt_stdio_output@@V?$format_validation_base@_WV?$string_output_adapter@_W@__crt_stdio_output@@@2@@__crt_stdio_output@@AEBAHH_W@Z 000000014003547c f i libucrt:output.obj
 0001:000344e4       ?type_case_s_compute_narrow_string_length@?$output_processor@_WV?$string_output_adapter@_W@__crt_stdio_output@@V?$positional_parameter_base@_WV?$string_output_adapter@_W@__crt_stdio_output@@@2@@__crt_stdio_output@@AEBAHH_W@Z 00000001400354e4 f i libucrt:output.obj
 0001:0003454c       ?type_case_s_compute_narrow_string_length@?$output_processor@_WV?$string_output_adapter@_W@__crt_stdio_output@@V?$standard_base@_WV?$string_output_adapter@_W@__crt_stdio_output@@@2@@__crt_stdio_output@@AEBAHH_W@Z 000000014003554c f i libucrt:output.obj
 0001:000345b4       ?type_case_u@?$output_processor@DV?$stream_output_adapter@D@__crt_stdio_output@@V?$format_validation_base@DV?$stream_output_adapter@D@__crt_stdio_output@@@2@@__crt_stdio_output@@AEAA_NXZ 00000001400355b4 f i libucrt:output.obj
 0001:000345c4       ?type_case_u@?$output_processor@DV?$stream_output_adapter@D@__crt_stdio_output@@V?$positional_parameter_base@DV?$stream_output_adapter@D@__crt_stdio_output@@@2@@__crt_stdio_output@@AEAA_NXZ 00000001400355c4 f i libucrt:output.obj
 0001:000345d4       ?type_case_u@?$output_processor@DV?$stream_output_adapter@D@__crt_stdio_output@@V?$standard_base@DV?$stream_output_adapter@D@__crt_stdio_output@@@2@@__crt_stdio_output@@AEAA_NXZ 00000001400355d4 f i libucrt:output.obj
 0001:000345e4       ?type_case_u@?$output_processor@DV?$string_output_adapter@D@__crt_stdio_output@@V?$format_validation_base@DV?$string_output_adapter@D@__crt_stdio_output@@@2@@__crt_stdio_output@@AEAA_NXZ 00000001400355e4 f i libucrt:output.obj
 0001:000345f4       ?type_case_u@?$output_processor@DV?$string_output_adapter@D@__crt_stdio_output@@V?$positional_parameter_base@DV?$string_output_adapter@D@__crt_stdio_output@@@2@@__crt_stdio_output@@AEAA_NXZ 00000001400355f4 f i libucrt:output.obj
 0001:00034604       ?type_case_u@?$output_processor@DV?$string_output_adapter@D@__crt_stdio_output@@V?$standard_base@DV?$string_output_adapter@D@__crt_stdio_output@@@2@@__crt_stdio_output@@AEAA_NXZ 0000000140035604 f i libucrt:output.obj
 0001:00034614       ?type_case_u@?$output_processor@_WV?$stream_output_adapter@_W@__crt_stdio_output@@V?$format_validation_base@_WV?$stream_output_adapter@_W@__crt_stdio_output@@@2@@__crt_stdio_output@@AEAA_NXZ 0000000140035614 f i libucrt:output.obj
 0001:00034624       ?type_case_u@?$output_processor@_WV?$stream_output_adapter@_W@__crt_stdio_output@@V?$positional_parameter_base@_WV?$stream_output_adapter@_W@__crt_stdio_output@@@2@@__crt_stdio_output@@AEAA_NXZ 0000000140035624 f i libucrt:output.obj
 0001:00034634       ?type_case_u@?$output_processor@_WV?$stream_output_adapter@_W@__crt_stdio_output@@V?$standard_base@_WV?$stream_output_adapter@_W@__crt_stdio_output@@@2@@__crt_stdio_output@@AEAA_NXZ 0000000140035634 f i libucrt:output.obj
 0001:00034644       ?type_case_u@?$output_processor@_WV?$string_output_adapter@_W@__crt_stdio_output@@V?$format_validation_base@_WV?$string_output_adapter@_W@__crt_stdio_output@@@2@@__crt_stdio_output@@AEAA_NXZ 0000000140035644 f i libucrt:output.obj
 0001:00034654       ?type_case_u@?$output_processor@_WV?$string_output_adapter@_W@__crt_stdio_output@@V?$positional_parameter_base@_WV?$string_output_adapter@_W@__crt_stdio_output@@@2@@__crt_stdio_output@@AEAA_NXZ 0000000140035654 f i libucrt:output.obj
 0001:00034664       ?type_case_u@?$output_processor@_WV?$string_output_adapter@_W@__crt_stdio_output@@V?$standard_base@_WV?$string_output_adapter@_W@__crt_stdio_output@@@2@@__crt_stdio_output@@AEAA_NXZ 0000000140035664 f i libucrt:output.obj
 0001:00034674       ?type_case_x@?$output_processor@DV?$stream_output_adapter@D@__crt_stdio_output@@V?$format_validation_base@DV?$stream_output_adapter@D@__crt_stdio_output@@@2@@__crt_stdio_output@@AEAA_NXZ 0000000140035674 f i libucrt:output.obj
 0001:00034684       ?type_case_x@?$output_processor@DV?$stream_output_adapter@D@__crt_stdio_output@@V?$positional_parameter_base@DV?$stream_output_adapter@D@__crt_stdio_output@@@2@@__crt_stdio_output@@AEAA_NXZ 0000000140035684 f i libucrt:output.obj
 0001:00034694       ?type_case_x@?$output_processor@DV?$stream_output_adapter@D@__crt_stdio_output@@V?$standard_base@DV?$stream_output_adapter@D@__crt_stdio_output@@@2@@__crt_stdio_output@@AEAA_NXZ 0000000140035694 f i libucrt:output.obj
 0001:000346a4       ?type_case_x@?$output_processor@DV?$string_output_adapter@D@__crt_stdio_output@@V?$format_validation_base@DV?$string_output_adapter@D@__crt_stdio_output@@@2@@__crt_stdio_output@@AEAA_NXZ 00000001400356a4 f i libucrt:output.obj
 0001:000346b4       ?type_case_x@?$output_processor@DV?$string_output_adapter@D@__crt_stdio_output@@V?$positional_parameter_base@DV?$string_output_adapter@D@__crt_stdio_output@@@2@@__crt_stdio_output@@AEAA_NXZ 00000001400356b4 f i libucrt:output.obj
 0001:000346c4       ?type_case_x@?$output_processor@DV?$string_output_adapter@D@__crt_stdio_output@@V?$standard_base@DV?$string_output_adapter@D@__crt_stdio_output@@@2@@__crt_stdio_output@@AEAA_NXZ 00000001400356c4 f i libucrt:output.obj
 0001:000346d4       ?type_case_x@?$output_processor@_WV?$stream_output_adapter@_W@__crt_stdio_output@@V?$format_validation_base@_WV?$stream_output_adapter@_W@__crt_stdio_output@@@2@@__crt_stdio_output@@AEAA_NXZ 00000001400356d4 f i libucrt:output.obj
 0001:000346e4       ?type_case_x@?$output_processor@_WV?$stream_output_adapter@_W@__crt_stdio_output@@V?$positional_parameter_base@_WV?$stream_output_adapter@_W@__crt_stdio_output@@@2@@__crt_stdio_output@@AEAA_NXZ 00000001400356e4 f i libucrt:output.obj
 0001:000346f4       ?type_case_x@?$output_processor@_WV?$stream_output_adapter@_W@__crt_stdio_output@@V?$standard_base@_WV?$stream_output_adapter@_W@__crt_stdio_output@@@2@@__crt_stdio_output@@AEAA_NXZ 00000001400356f4 f i libucrt:output.obj
 0001:00034704       ?type_case_x@?$output_processor@_WV?$string_output_adapter@_W@__crt_stdio_output@@V?$format_validation_base@_WV?$string_output_adapter@_W@__crt_stdio_output@@@2@@__crt_stdio_output@@AEAA_NXZ 0000000140035704 f i libucrt:output.obj
 0001:00034714       ?type_case_x@?$output_processor@_WV?$string_output_adapter@_W@__crt_stdio_output@@V?$positional_parameter_base@_WV?$string_output_adapter@_W@__crt_stdio_output@@@2@@__crt_stdio_output@@AEAA_NXZ 0000000140035714 f i libucrt:output.obj
 0001:00034724       ?type_case_x@?$output_processor@_WV?$string_output_adapter@_W@__crt_stdio_output@@V?$standard_base@_WV?$string_output_adapter@_W@__crt_stdio_output@@@2@@__crt_stdio_output@@AEAA_NXZ 0000000140035724 f i libucrt:output.obj
 0001:00034734       ?unset_flag@?$output_processor@DV?$stream_output_adapter@D@__crt_stdio_output@@V?$format_validation_base@DV?$stream_output_adapter@D@__crt_stdio_output@@@2@@__crt_stdio_output@@AEAAXI@Z 0000000140035734 f i libucrt:output.obj
 0001:0003473c       ?unset_flag@?$output_processor@DV?$stream_output_adapter@D@__crt_stdio_output@@V?$positional_parameter_base@DV?$stream_output_adapter@D@__crt_stdio_output@@@2@@__crt_stdio_output@@AEAAXI@Z 000000014003573c f i libucrt:output.obj
 0001:00034744       ?unset_flag@?$output_processor@DV?$stream_output_adapter@D@__crt_stdio_output@@V?$standard_base@DV?$stream_output_adapter@D@__crt_stdio_output@@@2@@__crt_stdio_output@@AEAAXI@Z 0000000140035744 f i libucrt:output.obj
 0001:0003474c       ?unset_flag@?$output_processor@DV?$string_output_adapter@D@__crt_stdio_output@@V?$format_validation_base@DV?$string_output_adapter@D@__crt_stdio_output@@@2@@__crt_stdio_output@@AEAAXI@Z 000000014003574c f i libucrt:output.obj
 0001:00034754       ?unset_flag@?$output_processor@DV?$string_output_adapter@D@__crt_stdio_output@@V?$positional_parameter_base@DV?$string_output_adapter@D@__crt_stdio_output@@@2@@__crt_stdio_output@@AEAAXI@Z 0000000140035754 f i libucrt:output.obj
 0001:0003475c       ?unset_flag@?$output_processor@DV?$string_output_adapter@D@__crt_stdio_output@@V?$standard_base@DV?$string_output_adapter@D@__crt_stdio_output@@@2@@__crt_stdio_output@@AEAAXI@Z 000000014003575c f i libucrt:output.obj
 0001:00034764       ?unset_flag@?$output_processor@_WV?$stream_output_adapter@_W@__crt_stdio_output@@V?$format_validation_base@_WV?$stream_output_adapter@_W@__crt_stdio_output@@@2@@__crt_stdio_output@@AEAAXI@Z 0000000140035764 f i libucrt:output.obj
 0001:0003476c       ?unset_flag@?$output_processor@_WV?$stream_output_adapter@_W@__crt_stdio_output@@V?$positional_parameter_base@_WV?$stream_output_adapter@_W@__crt_stdio_output@@@2@@__crt_stdio_output@@AEAAXI@Z 000000014003576c f i libucrt:output.obj
 0001:00034774       ?unset_flag@?$output_processor@_WV?$stream_output_adapter@_W@__crt_stdio_output@@V?$standard_base@_WV?$stream_output_adapter@_W@__crt_stdio_output@@@2@@__crt_stdio_output@@AEAAXI@Z 0000000140035774 f i libucrt:output.obj
 0001:0003477c       ?unset_flag@?$output_processor@_WV?$string_output_adapter@_W@__crt_stdio_output@@V?$format_validation_base@_WV?$string_output_adapter@_W@__crt_stdio_output@@@2@@__crt_stdio_output@@AEAAXI@Z 000000014003577c f i libucrt:output.obj
 0001:00034784       ?unset_flag@?$output_processor@_WV?$string_output_adapter@_W@__crt_stdio_output@@V?$positional_parameter_base@_WV?$string_output_adapter@_W@__crt_stdio_output@@@2@@__crt_stdio_output@@AEAAXI@Z 0000000140035784 f i libucrt:output.obj
 0001:0003478c       ?unset_flag@?$output_processor@_WV?$string_output_adapter@_W@__crt_stdio_output@@V?$standard_base@_WV?$string_output_adapter@_W@__crt_stdio_output@@@2@@__crt_stdio_output@@AEAAXI@Z 000000014003578c f i libucrt:output.obj
 0001:00034794       ?update_field_width@?$positional_parameter_base@DV?$stream_output_adapter@D@__crt_stdio_output@@@__crt_stdio_output@@IEAA_NXZ 0000000140035794 f i libucrt:output.obj
 0001:000348f0       ?update_field_width@?$positional_parameter_base@DV?$string_output_adapter@D@__crt_stdio_output@@@__crt_stdio_output@@IEAA_NXZ 00000001400358f0 f i libucrt:output.obj
 0001:00034a4c       ?update_field_width@?$positional_parameter_base@_WV?$stream_output_adapter@_W@__crt_stdio_output@@@__crt_stdio_output@@IEAA_NXZ 0000000140035a4c f i libucrt:output.obj
 0001:00034bac       ?update_field_width@?$positional_parameter_base@_WV?$string_output_adapter@_W@__crt_stdio_output@@@__crt_stdio_output@@IEAA_NXZ 0000000140035bac f i libucrt:output.obj
 0001:00034d0c       ?update_field_width@?$standard_base@DV?$stream_output_adapter@D@__crt_stdio_output@@@__crt_stdio_output@@IEAA_NXZ 0000000140035d0c f i libucrt:output.obj
 0001:00034d24       ?update_field_width@?$standard_base@DV?$string_output_adapter@D@__crt_stdio_output@@@__crt_stdio_output@@IEAA_NXZ 0000000140035d24 f i libucrt:output.obj
 0001:00034d3c       ?update_field_width@?$standard_base@_WV?$stream_output_adapter@_W@__crt_stdio_output@@@__crt_stdio_output@@IEAA_NXZ 0000000140035d3c f i libucrt:output.obj
 0001:00034d54       ?update_field_width@?$standard_base@_WV?$string_output_adapter@_W@__crt_stdio_output@@@__crt_stdio_output@@IEAA_NXZ 0000000140035d54 f i libucrt:output.obj
 0001:00034d6c       ?update_precision@?$positional_parameter_base@DV?$stream_output_adapter@D@__crt_stdio_output@@@__crt_stdio_output@@IEAA_NXZ 0000000140035d6c f i libucrt:output.obj
 0001:00034ec8       ?update_precision@?$positional_parameter_base@DV?$string_output_adapter@D@__crt_stdio_output@@@__crt_stdio_output@@IEAA_NXZ 0000000140035ec8 f i libucrt:output.obj
 0001:00035024       ?update_precision@?$positional_parameter_base@_WV?$stream_output_adapter@_W@__crt_stdio_output@@@__crt_stdio_output@@IEAA_NXZ 0000000140036024 f i libucrt:output.obj
 0001:00035184       ?update_precision@?$positional_parameter_base@_WV?$string_output_adapter@_W@__crt_stdio_output@@@__crt_stdio_output@@IEAA_NXZ 0000000140036184 f i libucrt:output.obj
 0001:000352e4       ?update_precision@?$standard_base@DV?$stream_output_adapter@D@__crt_stdio_output@@@__crt_stdio_output@@IEAA_NXZ 00000001400362e4 f i libucrt:output.obj
 0001:000352fc       ?update_precision@?$standard_base@DV?$string_output_adapter@D@__crt_stdio_output@@@__crt_stdio_output@@IEAA_NXZ 00000001400362fc f i libucrt:output.obj
 0001:00035314       ?update_precision@?$standard_base@_WV?$stream_output_adapter@_W@__crt_stdio_output@@@__crt_stdio_output@@IEAA_NXZ 0000000140036314 f i libucrt:output.obj
 0001:0003532c       ?update_precision@?$standard_base@_WV?$string_output_adapter@_W@__crt_stdio_output@@@__crt_stdio_output@@IEAA_NXZ 000000014003632c f i libucrt:output.obj
 0001:00035344       ?validate@?$stream_output_adapter@D@__crt_stdio_output@@QEBA_NXZ 0000000140036344 f i libucrt:output.obj
 0001:0003537c       ?validate@?$stream_output_adapter@_W@__crt_stdio_output@@QEBA_NXZ 000000014003637c f i libucrt:output.obj
 0001:000353ac       ?validate@?$string_output_adapter@D@__crt_stdio_output@@QEBA_NXZ 00000001400363ac f i libucrt:output.obj
 0001:000353dc       ?validate@?$string_output_adapter@_W@__crt_stdio_output@@QEBA_NXZ 00000001400363dc f i libucrt:output.obj
 0001:0003540c       ?validate_and_store_parameter_data@?$positional_parameter_base@DV?$stream_output_adapter@D@__crt_stdio_output@@@__crt_stdio_output@@AEAA_NAEAUparameter_data@12@W4parameter_type@12@DW4length_modifier@2@@Z 000000014003640c f i libucrt:output.obj
 0001:0003545c       ?validate_and_store_parameter_data@?$positional_parameter_base@DV?$string_output_adapter@D@__crt_stdio_output@@@__crt_stdio_output@@AEAA_NAEAUparameter_data@12@W4parameter_type@12@DW4length_modifier@2@@Z 000000014003645c f i libucrt:output.obj
 0001:000354ac       ?validate_and_store_parameter_data@?$positional_parameter_base@_WV?$stream_output_adapter@_W@__crt_stdio_output@@@__crt_stdio_output@@AEAA_NAEAUparameter_data@12@W4parameter_type@12@_WW4length_modifier@2@@Z 00000001400364ac f i libucrt:output.obj
 0001:000354fc       ?validate_and_store_parameter_data@?$positional_parameter_base@_WV?$string_output_adapter@_W@__crt_stdio_output@@@__crt_stdio_output@@AEAA_NAEAUparameter_data@12@W4parameter_type@12@_WW4length_modifier@2@@Z 00000001400364fc f i libucrt:output.obj
 0001:0003554c       ?validate_and_update_state_at_beginning_of_format_character@?$positional_parameter_base@DV?$stream_output_adapter@D@__crt_stdio_output@@@__crt_stdio_output@@IEAA_NXZ 000000014003654c f i libucrt:output.obj
 0001:0003569c       ?validate_and_update_state_at_beginning_of_format_character@?$positional_parameter_base@DV?$string_output_adapter@D@__crt_stdio_output@@@__crt_stdio_output@@IEAA_NXZ 000000014003669c f i libucrt:output.obj
 0001:000357ec       ?validate_and_update_state_at_beginning_of_format_character@?$positional_parameter_base@_WV?$stream_output_adapter@_W@__crt_stdio_output@@@__crt_stdio_output@@IEAA_NXZ 00000001400367ec f i libucrt:output.obj
 0001:00035948       ?validate_and_update_state_at_beginning_of_format_character@?$positional_parameter_base@_WV?$string_output_adapter@_W@__crt_stdio_output@@@__crt_stdio_output@@IEAA_NXZ 0000000140036948 f i libucrt:output.obj
 0001:00035aa4       ?validate_and_update_state_at_beginning_of_format_character@?$standard_base@DV?$stream_output_adapter@D@__crt_stdio_output@@@__crt_stdio_output@@IEAA_NXZ 0000000140036aa4 f i libucrt:output.obj
 0001:00035aa8       ?validate_and_update_state_at_beginning_of_format_character@?$standard_base@DV?$string_output_adapter@D@__crt_stdio_output@@@__crt_stdio_output@@IEAA_NXZ 0000000140036aa8 f i libucrt:output.obj
 0001:00035aac       ?validate_and_update_state_at_beginning_of_format_character@?$standard_base@_WV?$stream_output_adapter@_W@__crt_stdio_output@@@__crt_stdio_output@@IEAA_NXZ 0000000140036aac f i libucrt:output.obj
 0001:00035ab0       ?validate_and_update_state_at_beginning_of_format_character@?$standard_base@_WV?$string_output_adapter@_W@__crt_stdio_output@@@__crt_stdio_output@@IEAA_NXZ 0000000140036ab0 f i libucrt:output.obj
 0001:00035ab4       ?validate_and_update_state_at_end_of_format_string@?$format_validation_base@DV?$stream_output_adapter@D@__crt_stdio_output@@@__crt_stdio_output@@IEBA_NXZ 0000000140036ab4 f i libucrt:output.obj
 0001:00035aec       ?validate_and_update_state_at_end_of_format_string@?$format_validation_base@DV?$string_output_adapter@D@__crt_stdio_output@@@__crt_stdio_output@@IEBA_NXZ 0000000140036aec f i libucrt:output.obj
 0001:00035b24       ?validate_and_update_state_at_end_of_format_string@?$format_validation_base@_WV?$stream_output_adapter@_W@__crt_stdio_output@@@__crt_stdio_output@@IEBA_NXZ 0000000140036b24 f i libucrt:output.obj
 0001:00035b5c       ?validate_and_update_state_at_end_of_format_string@?$format_validation_base@_WV?$string_output_adapter@_W@__crt_stdio_output@@@__crt_stdio_output@@IEBA_NXZ 0000000140036b5c f i libucrt:output.obj
 0001:00035b94       ?validate_and_update_state_at_end_of_format_string@?$positional_parameter_base@DV?$stream_output_adapter@D@__crt_stdio_output@@@__crt_stdio_output@@IEAA_NXZ 0000000140036b94 f i libucrt:output.obj
 0001:00035c58       ?validate_and_update_state_at_end_of_format_string@?$positional_parameter_base@DV?$string_output_adapter@D@__crt_stdio_output@@@__crt_stdio_output@@IEAA_NXZ 0000000140036c58 f i libucrt:output.obj
 0001:00035d1c       ?validate_and_update_state_at_end_of_format_string@?$positional_parameter_base@_WV?$stream_output_adapter@_W@__crt_stdio_output@@@__crt_stdio_output@@IEAA_NXZ 0000000140036d1c f i libucrt:output.obj
 0001:00035de0       ?validate_and_update_state_at_end_of_format_string@?$positional_parameter_base@_WV?$string_output_adapter@_W@__crt_stdio_output@@@__crt_stdio_output@@IEAA_NXZ 0000000140036de0 f i libucrt:output.obj
 0001:00035ea4       ?validate_and_update_state_at_end_of_format_string@?$standard_base@DV?$stream_output_adapter@D@__crt_stdio_output@@@__crt_stdio_output@@IEBA_NXZ 0000000140036ea4 f i libucrt:output.obj
 0001:00035ea8       ?validate_and_update_state_at_end_of_format_string@?$standard_base@DV?$string_output_adapter@D@__crt_stdio_output@@@__crt_stdio_output@@IEBA_NXZ 0000000140036ea8 f i libucrt:output.obj
 0001:00035eac       ?validate_and_update_state_at_end_of_format_string@?$standard_base@_WV?$stream_output_adapter@_W@__crt_stdio_output@@@__crt_stdio_output@@IEBA_NXZ 0000000140036eac f i libucrt:output.obj
 0001:00035eb0       ?validate_and_update_state_at_end_of_format_string@?$standard_base@_WV?$string_output_adapter@_W@__crt_stdio_output@@@__crt_stdio_output@@IEBA_NXZ 0000000140036eb0 f i libucrt:output.obj
 0001:00035eb4       ?validate_state_for_type_case_a@?$positional_parameter_base@DV?$stream_output_adapter@D@__crt_stdio_output@@@__crt_stdio_output@@IEAA_NXZ 0000000140036eb4 f i libucrt:output.obj
 0001:00035f78       ?validate_state_for_type_case_a@?$positional_parameter_base@DV?$string_output_adapter@D@__crt_stdio_output@@@__crt_stdio_output@@IEAA_NXZ 0000000140036f78 f i libucrt:output.obj
 0001:0003603c       ?validate_state_for_type_case_a@?$positional_parameter_base@_WV?$stream_output_adapter@_W@__crt_stdio_output@@@__crt_stdio_output@@IEAA_NXZ 000000014003703c f i libucrt:output.obj
 0001:00036100       ?validate_state_for_type_case_a@?$positional_parameter_base@_WV?$string_output_adapter@_W@__crt_stdio_output@@@__crt_stdio_output@@IEAA_NXZ 0000000140037100 f i libucrt:output.obj
 0001:000361c4       ?validate_state_for_type_case_a@?$standard_base@DV?$stream_output_adapter@D@__crt_stdio_output@@@__crt_stdio_output@@IEBA_NXZ 00000001400371c4 f i libucrt:output.obj
 0001:000361c8       ?validate_state_for_type_case_a@?$standard_base@DV?$string_output_adapter@D@__crt_stdio_output@@@__crt_stdio_output@@IEBA_NXZ 00000001400371c8 f i libucrt:output.obj
 0001:000361cc       ?validate_state_for_type_case_a@?$standard_base@_WV?$stream_output_adapter@_W@__crt_stdio_output@@@__crt_stdio_output@@IEBA_NXZ 00000001400371cc f i libucrt:output.obj
 0001:000361d0       ?validate_state_for_type_case_a@?$standard_base@_WV?$string_output_adapter@_W@__crt_stdio_output@@@__crt_stdio_output@@IEBA_NXZ 00000001400371d0 f i libucrt:output.obj
 0001:000361d4       ?validate_stream_is_ansi_if_required@?$__acrt_stdio_char_traits@D@@SA_NQEAU_iobuf@@@Z 00000001400371d4 f i libucrt:output.obj
 0001:00036294       ?validate_stream_is_ansi_if_required@?$__acrt_stdio_char_traits@_W@@SA_NQEAU_iobuf@@@Z 0000000140037294 f i libucrt:output.obj
 0001:00036298       ?wide_null_string@?$output_processor@DV?$stream_output_adapter@D@__crt_stdio_output@@V?$format_validation_base@DV?$stream_output_adapter@D@__crt_stdio_output@@@2@@__crt_stdio_output@@CAPEA_WXZ 0000000140037298 f i libucrt:output.obj
 0001:000362a4       ?wide_null_string@?$output_processor@DV?$stream_output_adapter@D@__crt_stdio_output@@V?$positional_parameter_base@DV?$stream_output_adapter@D@__crt_stdio_output@@@2@@__crt_stdio_output@@CAPEA_WXZ 00000001400372a4 f i libucrt:output.obj
 0001:000362b0       ?wide_null_string@?$output_processor@DV?$stream_output_adapter@D@__crt_stdio_output@@V?$standard_base@DV?$stream_output_adapter@D@__crt_stdio_output@@@2@@__crt_stdio_output@@CAPEA_WXZ 00000001400372b0 f i libucrt:output.obj
 0001:000362bc       ?wide_null_string@?$output_processor@DV?$string_output_adapter@D@__crt_stdio_output@@V?$format_validation_base@DV?$string_output_adapter@D@__crt_stdio_output@@@2@@__crt_stdio_output@@CAPEA_WXZ 00000001400372bc f i libucrt:output.obj
 0001:000362c8       ?wide_null_string@?$output_processor@DV?$string_output_adapter@D@__crt_stdio_output@@V?$positional_parameter_base@DV?$string_output_adapter@D@__crt_stdio_output@@@2@@__crt_stdio_output@@CAPEA_WXZ 00000001400372c8 f i libucrt:output.obj
 0001:000362d4       ?wide_null_string@?$output_processor@DV?$string_output_adapter@D@__crt_stdio_output@@V?$standard_base@DV?$string_output_adapter@D@__crt_stdio_output@@@2@@__crt_stdio_output@@CAPEA_WXZ 00000001400372d4 f i libucrt:output.obj
 0001:000362e0       ?wide_null_string@?$output_processor@_WV?$stream_output_adapter@_W@__crt_stdio_output@@V?$format_validation_base@_WV?$stream_output_adapter@_W@__crt_stdio_output@@@2@@__crt_stdio_output@@CAPEA_WXZ 00000001400372e0 f i libucrt:output.obj
 0001:000362ec       ?wide_null_string@?$output_processor@_WV?$stream_output_adapter@_W@__crt_stdio_output@@V?$positional_parameter_base@_WV?$stream_output_adapter@_W@__crt_stdio_output@@@2@@__crt_stdio_output@@CAPEA_WXZ 00000001400372ec f i libucrt:output.obj
 0001:000362f8       ?wide_null_string@?$output_processor@_WV?$stream_output_adapter@_W@__crt_stdio_output@@V?$standard_base@_WV?$stream_output_adapter@_W@__crt_stdio_output@@@2@@__crt_stdio_output@@CAPEA_WXZ 00000001400372f8 f i libucrt:output.obj
 0001:00036304       ?wide_null_string@?$output_processor@_WV?$string_output_adapter@_W@__crt_stdio_output@@V?$format_validation_base@_WV?$string_output_adapter@_W@__crt_stdio_output@@@2@@__crt_stdio_output@@CAPEA_WXZ 0000000140037304 f i libucrt:output.obj
 0001:00036310       ?wide_null_string@?$output_processor@_WV?$string_output_adapter@_W@__crt_stdio_output@@V?$positional_parameter_base@_WV?$string_output_adapter@_W@__crt_stdio_output@@@2@@__crt_stdio_output@@CAPEA_WXZ 0000000140037310 f i libucrt:output.obj
 0001:0003631c       ?wide_null_string@?$output_processor@_WV?$string_output_adapter@_W@__crt_stdio_output@@V?$standard_base@_WV?$string_output_adapter@_W@__crt_stdio_output@@@2@@__crt_stdio_output@@CAPEA_WXZ 000000014003731c f i libucrt:output.obj
 0001:00036328       ?write_character@?$output_adapter_common@DV?$stream_output_adapter@D@__crt_stdio_output@@@__crt_stdio_output@@QEBAXDQEAH@Z 0000000140037328 f i libucrt:output.obj
 0001:00036384       ?write_character@?$output_adapter_common@_WV?$stream_output_adapter@_W@__crt_stdio_output@@@__crt_stdio_output@@QEBAX_WQEAH@Z 0000000140037384 f i libucrt:output.obj
 0001:000363e4       ?write_character@?$string_output_adapter@D@__crt_stdio_output@@QEBA_NDQEAH@Z 00000001400373e4 f i libucrt:output.obj
 0001:0003643c       ?write_character@?$string_output_adapter@_W@__crt_stdio_output@@QEBA_N_WQEAH@Z 000000014003743c f i libucrt:output.obj
 0001:00036498       ?write_character_without_count_update@?$stream_output_adapter@D@__crt_stdio_output@@QEBA_ND@Z 0000000140037498 f i libucrt:output.obj
 0001:000364e4       ?write_character_without_count_update@?$stream_output_adapter@_W@__crt_stdio_output@@QEBA_N_W@Z 00000001400374e4 f i libucrt:output.obj
 0001:00036534       ?write_stored_string_tchar@?$output_processor@DV?$stream_output_adapter@D@__crt_stdio_output@@V?$format_validation_base@DV?$stream_output_adapter@D@__crt_stdio_output@@@2@@__crt_stdio_output@@AEAA_ND@Z 0000000140037534 f i libucrt:output.obj
 0001:000366a0       ?write_stored_string_tchar@?$output_processor@DV?$stream_output_adapter@D@__crt_stdio_output@@V?$positional_parameter_base@DV?$stream_output_adapter@D@__crt_stdio_output@@@2@@__crt_stdio_output@@AEAA_ND@Z 00000001400376a0 f i libucrt:output.obj
 0001:0003680c       ?write_stored_string_tchar@?$output_processor@DV?$stream_output_adapter@D@__crt_stdio_output@@V?$standard_base@DV?$stream_output_adapter@D@__crt_stdio_output@@@2@@__crt_stdio_output@@AEAA_ND@Z 000000014003780c f i libucrt:output.obj
 0001:00036978       ?write_stored_string_tchar@?$output_processor@DV?$string_output_adapter@D@__crt_stdio_output@@V?$format_validation_base@DV?$string_output_adapter@D@__crt_stdio_output@@@2@@__crt_stdio_output@@AEAA_ND@Z 0000000140037978 f i libucrt:output.obj
 0001:00036a88       ?write_stored_string_tchar@?$output_processor@DV?$string_output_adapter@D@__crt_stdio_output@@V?$positional_parameter_base@DV?$string_output_adapter@D@__crt_stdio_output@@@2@@__crt_stdio_output@@AEAA_ND@Z 0000000140037a88 f i libucrt:output.obj
 0001:00036b98       ?write_stored_string_tchar@?$output_processor@DV?$string_output_adapter@D@__crt_stdio_output@@V?$standard_base@DV?$string_output_adapter@D@__crt_stdio_output@@@2@@__crt_stdio_output@@AEAA_ND@Z 0000000140037b98 f i libucrt:output.obj
 0001:00036ca8       ?write_stored_string_tchar@?$output_processor@_WV?$stream_output_adapter@_W@__crt_stdio_output@@V?$format_validation_base@_WV?$stream_output_adapter@_W@__crt_stdio_output@@@2@@__crt_stdio_output@@AEAA_N_W@Z 0000000140037ca8 f i libucrt:output.obj
 0001:00036dec       ?write_stored_string_tchar@?$output_processor@_WV?$stream_output_adapter@_W@__crt_stdio_output@@V?$positional_parameter_base@_WV?$stream_output_adapter@_W@__crt_stdio_output@@@2@@__crt_stdio_output@@AEAA_N_W@Z 0000000140037dec f i libucrt:output.obj
 0001:00036f30       ?write_stored_string_tchar@?$output_processor@_WV?$stream_output_adapter@_W@__crt_stdio_output@@V?$standard_base@_WV?$stream_output_adapter@_W@__crt_stdio_output@@@2@@__crt_stdio_output@@AEAA_N_W@Z 0000000140037f30 f i libucrt:output.obj
 0001:00037074       ?write_stored_string_tchar@?$output_processor@_WV?$string_output_adapter@_W@__crt_stdio_output@@V?$format_validation_base@_WV?$string_output_adapter@_W@__crt_stdio_output@@@2@@__crt_stdio_output@@AEAA_N_W@Z 0000000140038074 f i libucrt:output.obj
 0001:00037194       ?write_stored_string_tchar@?$output_processor@_WV?$string_output_adapter@_W@__crt_stdio_output@@V?$positional_parameter_base@_WV?$string_output_adapter@_W@__crt_stdio_output@@@2@@__crt_stdio_output@@AEAA_N_W@Z 0000000140038194 f i libucrt:output.obj
 0001:000372b4       ?write_stored_string_tchar@?$output_processor@_WV?$string_output_adapter@_W@__crt_stdio_output@@V?$standard_base@_WV?$string_output_adapter@_W@__crt_stdio_output@@@2@@__crt_stdio_output@@AEAA_N_W@Z 00000001400382b4 f i libucrt:output.obj
 0001:000373d4       ?write_string@?$stream_output_adapter@D@__crt_stdio_output@@QEBAXQEBDHQEAHAEAV__crt_deferred_errno_cache@@@Z 00000001400383d4 f i libucrt:output.obj
 0001:00037404       ?write_string@?$stream_output_adapter@_W@__crt_stdio_output@@QEBAXQEB_WHQEAHAEAV__crt_deferred_errno_cache@@@Z 0000000140038404 f i libucrt:output.obj
 0001:00037434       ?write_string@?$string_output_adapter@D@__crt_stdio_output@@QEBAXQEBDHQEAHAEAV__crt_deferred_errno_cache@@@Z 0000000140038434 f i libucrt:output.obj
 0001:00037500       ?write_string@?$string_output_adapter@_W@__crt_stdio_output@@QEBAXQEB_WHQEAHAEAV__crt_deferred_errno_cache@@@Z 0000000140038500 f i libucrt:output.obj
 0001:000375d0       ?write_string_impl@?$output_adapter_common@DV?$stream_output_adapter@D@__crt_stdio_output@@@__crt_stdio_output@@IEBAXQEBDHQEAHAEAV__crt_deferred_errno_cache@@@Z 00000001400385d0 f i libucrt:output.obj
 0001:00037704       ?write_string_impl@?$output_adapter_common@_WV?$stream_output_adapter@_W@__crt_stdio_output@@@__crt_stdio_output@@IEBAXQEB_WHQEAHAEAV__crt_deferred_errno_cache@@@Z 0000000140038704 f i libucrt:output.obj
 0001:00037844       __acrt_disable_global_locale_sync 0000000140038844 f i libucrt:output.obj
 0001:0003784c       __acrt_enable_global_locale_sync 000000014003884c f i libucrt:output.obj
 0001:00037858       __acrt_isleadbyte_l_noupdate 0000000140038858 f i libucrt:output.obj
 0001:00037884       __acrt_locale_changed      0000000140038884 f i libucrt:output.obj
 0001:00037894       __acrt_locale_get_ctype_array_value 0000000140038894 f i libucrt:output.obj
 0001:000378b4       __stdio_common_vfprintf    00000001400388b4 f   libucrt:output.obj
 0001:00037964       __stdio_common_vfprintf_p  0000000140038964 f   libucrt:output.obj
 0001:00037a14       __stdio_common_vfprintf_s  0000000140038a14 f   libucrt:output.obj
 0001:00037ac4       __stdio_common_vfwprintf   0000000140038ac4 f   libucrt:output.obj
 0001:00037b74       __stdio_common_vfwprintf_p 0000000140038b74 f   libucrt:output.obj
 0001:00037c24       __stdio_common_vfwprintf_s 0000000140038c24 f   libucrt:output.obj
 0001:00037cd4       __stdio_common_vsnprintf_s 0000000140038cd4 f   libucrt:output.obj
 0001:00037e70       __stdio_common_vsnwprintf_s 0000000140038e70 f   libucrt:output.obj
 0001:00038020       __stdio_common_vsprintf    0000000140039020 f   libucrt:output.obj
 0001:00038028       __stdio_common_vsprintf_p  0000000140039028 f   libucrt:output.obj
 0001:00038030       __stdio_common_vsprintf_s  0000000140039030 f   libucrt:output.obj
 0001:000380ac       __stdio_common_vswprintf   00000001400390ac f   libucrt:output.obj
 0001:000380b4       __stdio_common_vswprintf_p 00000001400390b4 f   libucrt:output.obj
 0001:000380bc       __stdio_common_vswprintf_s 00000001400390bc f   libucrt:output.obj
 0001:00038148       _ctype_fast_check_internal 0000000140039148 f i libucrt:output.obj
 0001:00038160       _isdigit_fast_internal     0000000140039160 f i libucrt:output.obj
 0001:0003817c       _tolower_fast_internal     000000014003917c f i libucrt:output.obj
 0001:0003932c       ??$ftprintf@PEAU_iobuf@@PEBDAEBQEBDAEBQEBDAEBI@?$__crt_char_traits@D@@SAH$$QEAPEAU_iobuf@@$$QEAPEBDAEBQEBD2AEBI@Z 000000014003a32c f i libucrt:assert.obj
 0001:00039354       ??$ftprintf@PEAU_iobuf@@PEB_WAEBQEB_WAEBQEB_WAEBI@?$__crt_char_traits@_W@@SAH$$QEAPEAU_iobuf@@$$QEAPEB_WAEBQEB_W2AEBI@Z 000000014003a354 f i libucrt:assert.obj
 0001:0003937c       ??$get_module_file_name@AEAPEAUHINSTANCE__@@AEAY0BAF@DK@?$__crt_char_traits@D@@SAKAEAPEAUHINSTANCE__@@AEAY0BAF@D$$QEAK@Z 000000014003a37c f i libucrt:assert.obj
 0001:0003938c       ??$get_module_file_name@AEAPEAUHINSTANCE__@@AEAY0BAF@_WK@?$__crt_char_traits@_W@@SAKAEAPEAUHINSTANCE__@@AEAY0BAF@_W$$QEAK@Z 000000014003a38c f i libucrt:assert.obj
 0001:0003939c       ??$itot_s@AEBIPEAD_KH@?$__crt_char_traits@D@@SAHAEBI$$QEAPEAD$$QEA_K$$QEAH@Z 000000014003a39c f i libucrt:assert.obj
 0001:000393b0       ??$itot_s@AEBIPEA_W_KH@?$__crt_char_traits@_W@@SAHAEBI$$QEAPEA_W$$QEA_K$$QEAH@Z 000000014003a3b0 f i libucrt:assert.obj
 0001:000393c4       ??$show_message_box@AEAY0CEA@DPEBDJ@?$__crt_char_traits@D@@SAHAEAY0CEA@D$$QEAPEBD$$QEAJ@Z 000000014003a3c4 f i libucrt:assert.obj
 0001:000393d4       ??$show_message_box@AEAY0CEA@_WPEB_WJ@?$__crt_char_traits@_W@@SAHAEAY0CEA@_W$$QEAPEB_W$$QEAJ@Z 000000014003a3d4 f i libucrt:assert.obj
 0001:000393e4       ??$tcscat_s@AEBQEADAEB_KAEAPEAD@?$__crt_char_traits@D@@SAHAEBQEADAEB_KAEAPEAD@Z 000000014003a3e4 f i libucrt:assert.obj
 0001:000393f8       ??$tcscat_s@AEBQEADAEB_KAEBQEBD@?$__crt_char_traits@D@@SAHAEBQEADAEB_KAEBQEBD@Z 000000014003a3f8 f i libucrt:assert.obj
 0001:0003940c       ??$tcscat_s@AEBQEADAEB_KPEBD@?$__crt_char_traits@D@@SAHAEBQEADAEB_K$$QEAPEBD@Z 000000014003a40c f i libucrt:assert.obj
 0001:00039420       ??$tcscat_s@AEBQEA_WAEB_KAEAPEA_W@?$__crt_char_traits@_W@@SAHAEBQEA_WAEB_KAEAPEA_W@Z 000000014003a420 f i libucrt:assert.obj
 0001:00039434       ??$tcscat_s@AEBQEA_WAEB_KAEBQEB_W@?$__crt_char_traits@_W@@SAHAEBQEA_WAEB_KAEBQEB_W@Z 000000014003a434 f i libucrt:assert.obj
 0001:00039448       ??$tcscat_s@AEBQEA_WAEB_KPEB_W@?$__crt_char_traits@_W@@SAHAEBQEA_WAEB_K$$QEAPEB_W@Z 000000014003a448 f i libucrt:assert.obj
 0001:0003945c       ??$tcscpy_s@AEAY0BAF@D_KPEBD@?$__crt_char_traits@D@@SAHAEAY0BAF@D$$QEA_K$$QEAPEBD@Z 000000014003a45c f i libucrt:assert.obj
 0001:0003946c       ??$tcscpy_s@AEAY0BAF@_W_KPEB_W@?$__crt_char_traits@_W@@SAHAEAY0BAF@_W$$QEA_K$$QEAPEB_W@Z 000000014003a46c f i libucrt:assert.obj
 0001:0003947c       ??$tcscpy_s@AEBQEADAEB_KPEBD@?$__crt_char_traits@D@@SAHAEBQEADAEB_K$$QEAPEBD@Z 000000014003a47c f i libucrt:assert.obj
 0001:00039490       ??$tcscpy_s@AEBQEA_WAEB_KPEB_W@?$__crt_char_traits@_W@@SAHAEBQEA_WAEB_K$$QEAPEB_W@Z 000000014003a490 f i libucrt:assert.obj
 0001:000394a4       ??$tcslen@AEAY0BAF@D@?$__crt_char_traits@D@@SA_KAEAY0BAF@D@Z 000000014003a4a4 f i libucrt:assert.obj
 0001:000394b8       ??$tcslen@AEAY0BAF@_W@?$__crt_char_traits@_W@@SA_KAEAY0BAF@_W@Z 000000014003a4b8 f i libucrt:assert.obj
 0001:000394cc       ??$tcslen@AEBQEAD@?$__crt_char_traits@D@@SA_KAEBQEAD@Z 000000014003a4cc f i libucrt:assert.obj
 0001:000394e4       ??$tcslen@AEBQEA_W@?$__crt_char_traits@_W@@SA_KAEBQEA_W@Z 000000014003a4e4 f i libucrt:assert.obj
 0001:000394fc       ??$tcslen@AEBQEBD@?$__crt_char_traits@D@@SA_KAEBQEBD@Z 000000014003a4fc f i libucrt:assert.obj
 0001:00039514       ??$tcslen@AEBQEB_W@?$__crt_char_traits@_W@@SA_KAEBQEB_W@Z 000000014003a514 f i libucrt:assert.obj
 0001:0003952c       ??$tcsncat_s@AEBQEADAEB_KAEAPEBD_K@?$__crt_char_traits@D@@SAHAEBQEADAEB_KAEAPEBD$$QEA_K@Z 000000014003a52c f i libucrt:assert.obj
 0001:00039544       ??$tcsncat_s@AEBQEADAEB_KAEBQEBDAEB_K@?$__crt_char_traits@D@@SAHAEBQEADAEB_KAEBQEBD1@Z 000000014003a544 f i libucrt:assert.obj
 0001:0003955c       ??$tcsncat_s@AEBQEADAEB_KPEBD_K@?$__crt_char_traits@D@@SAHAEBQEADAEB_K$$QEAPEBD$$QEA_K@Z 000000014003a55c f i libucrt:assert.obj
 0001:00039574       ??$tcsncat_s@AEBQEA_WAEB_KAEAPEB_W_K@?$__crt_char_traits@_W@@SAHAEBQEA_WAEB_KAEAPEB_W$$QEA_K@Z 000000014003a574 f i libucrt:assert.obj
 0001:0003958c       ??$tcsncat_s@AEBQEA_WAEB_KAEBQEB_WAEB_K@?$__crt_char_traits@_W@@SAHAEBQEA_WAEB_KAEBQEB_W1@Z 000000014003a58c f i libucrt:assert.obj
 0001:000395a4       ??$tcsncat_s@AEBQEA_WAEB_KPEB_W_K@?$__crt_char_traits@_W@@SAHAEBQEA_WAEB_K$$QEAPEB_W$$QEA_K@Z 000000014003a5a4 f i libucrt:assert.obj
 0001:00039804       ?has_any_buffer@__crt_stdio_stream@@QEBA_NXZ 000000014003a804 f i libucrt:assert.obj
 0001:00039818       ?has_any_of@__crt_stdio_stream@@QEBA_NJ@Z 000000014003a818 f i libucrt:assert.obj
 0001:00039828       _assert                    000000014003a828 f   libucrt:assert.obj
 0001:000398b8       _invoke_watson_if_error    000000014003a8b8 f i libucrt:assert.obj
 0001:000398f8       _vfwprintf_l               000000014003a8f8 f i libucrt:assert.obj
 0001:0003995c       _vswprintf_c_l             000000014003a95c f i libucrt:assert.obj
 0001:000399d8       _wassert                   000000014003a9d8 f   libucrt:assert.obj
 0001:00039a68       fprintf                    000000014003aa68 f i libucrt:assert.obj
 0001:00039abc       fwprintf                   000000014003aabc f i libucrt:assert.obj
 0001:00039bb8       swprintf                   000000014003abb8 f i libucrt:assert.obj
 0001:00039c44       _seh_filter_dll            000000014003ac44 f   libucrt:exception_filter.obj
 0001:00039c5c       _seh_filter_exe            000000014003ac5c f   libucrt:exception_filter.obj
 0001:00039f4c       __acrt_report_runtime_error 000000014003af4c f   libucrt:report_runtime_error.obj
 0001:0003a100       _query_app_type            000000014003b100 f   libucrt:report_runtime_error.obj
 0001:0003a108       _set_app_type              000000014003b108 f   libucrt:report_runtime_error.obj
 0001:0003a110       ??$__crt_fast_decode_pointer@P6AHPEAU_exception@@@Z@@YAP6AHPEAU_exception@@@ZQ6AH0@Z@Z 000000014003b110 f i libucrt:matherr.obj
 0001:0003a12c       ??$__crt_fast_encode_pointer@P6AHPEAU_exception@@@Z@@YAP6AHPEAU_exception@@@ZQ6AH0@Z@Z 000000014003b12c f i libucrt:matherr.obj
 0001:0003a154       ?__crt_rotate_pointer_value@@YA_K_KH@Z 000000014003b154 f i libucrt:matherr.obj
 0001:0003a160       ?get_current_state_index@__crt_state_management@@YA_KXZ 000000014003b160 f i libucrt:matherr.obj
 0001:0003a164       ?initialize@?$dual_state_global@P6AHPEAU_exception@@@Z@__crt_state_management@@QEAAXQ6AHPEAU_exception@@@Z@Z 000000014003b164 f i libucrt:matherr.obj
 0001:0003a194       ?value@?$dual_state_global@P6AHPEAU_exception@@@Z@__crt_state_management@@QEAAAEAP6AHPEAU_exception@@@ZXZ 000000014003b194 f i libucrt:matherr.obj
 0001:0003a198       __acrt_has_user_matherr    000000014003b198 f   libucrt:matherr.obj
 0001:0003a1bc       __acrt_initialize_user_matherr 000000014003b1bc f   libucrt:matherr.obj
 0001:0003a1c8       __acrt_invoke_user_matherr 000000014003b1c8 f   libucrt:matherr.obj
 0001:0003a204       __setusermatherr           000000014003b204 f   libucrt:matherr.obj
 0001:0003a234       ??$?RE@__crt_internal_free_policy@@QEBAXQEBE@Z 000000014003b234 f i libucrt:argv_parsing.obj
 0001:0003a240       ??$?RPEAD@__crt_internal_free_policy@@QEBAXQEBQEAD@Z 000000014003b240 f i libucrt:argv_parsing.obj
 0001:0003a24c       ??$?RPEA_W@__crt_internal_free_policy@@QEBAXQEBQEA_W@Z 000000014003b24c f i libucrt:argv_parsing.obj
 0001:0003a5fc       ??$get_module_file_name@$$TAEAY0BAF@DH@?$__crt_char_traits@D@@SAK$$QEA$$TAEAY0BAF@D$$QEAH@Z 000000014003b5fc f i libucrt:argv_parsing.obj
 0001:0003a60c       ??$get_module_file_name@$$TAEAY0BAF@_WH@?$__crt_char_traits@_W@@SAK$$QEA$$TAEAY0BAF@_W$$QEAH@Z 000000014003b60c f i libucrt:argv_parsing.obj
 0001:0003aa54       ??$set_program_name@PEAD@?$__crt_char_traits@D@@SAX$$QEAPEAD@Z 000000014003ba54 f i libucrt:argv_parsing.obj
 0001:0003aa64       ??$set_program_name@PEA_W@?$__crt_char_traits@_W@@SAX$$QEAPEA_W@Z 000000014003ba64 f i libucrt:argv_parsing.obj
 0001:0003aa84       ??0?$__crt_unique_heap_ptr@EU__crt_internal_free_policy@@@@QEAA@QEAE@Z 000000014003ba84 f i libucrt:argv_parsing.obj
 0001:0003aa8c       ??0?$__crt_unique_heap_ptr@PEADU__crt_internal_free_policy@@@@QEAA@QEAPEAD@Z 000000014003ba8c f i libucrt:argv_parsing.obj
 0001:0003aa94       ??0?$__crt_unique_heap_ptr@PEA_WU__crt_internal_free_policy@@@@QEAA@QEAPEA_W@Z 000000014003ba94 f i libucrt:argv_parsing.obj
 0001:0003aa9c       ??1?$__crt_unique_heap_ptr@EU__crt_internal_free_policy@@@@QEAA@XZ 000000014003ba9c f i libucrt:argv_parsing.obj
 0001:0003aac0       ??1?$__crt_unique_heap_ptr@PEADU__crt_internal_free_policy@@@@QEAA@XZ 000000014003bac0 f i libucrt:argv_parsing.obj
 0001:0003aae4       ??1?$__crt_unique_heap_ptr@PEA_WU__crt_internal_free_policy@@@@QEAA@XZ 000000014003bae4 f i libucrt:argv_parsing.obj
 0001:0003ab08       ??B?$__crt_unique_heap_ptr@EU__crt_internal_free_policy@@@@QEBA_NXZ 000000014003bb08 f i libucrt:argv_parsing.obj
 0001:0003ab5c       ?detach@?$__crt_unique_heap_ptr@EU__crt_internal_free_policy@@@@QEAAPEAEXZ 000000014003bb5c f i libucrt:argv_parsing.obj
 0001:0003ab68       ?detach@?$__crt_unique_heap_ptr@PEADU__crt_internal_free_policy@@@@QEAAPEAPEADXZ 000000014003bb68 f i libucrt:argv_parsing.obj
 0001:0003ab74       ?detach@?$__crt_unique_heap_ptr@PEA_WU__crt_internal_free_policy@@@@QEAAPEAPEA_WXZ 000000014003bb74 f i libucrt:argv_parsing.obj
 0001:0003ab9c       ?get@?$__crt_unique_heap_ptr@EU__crt_internal_free_policy@@@@QEBAPEAEXZ 000000014003bb9c f i libucrt:argv_parsing.obj
 0001:0003aba0       ?get@?$__crt_unique_heap_ptr@PEADU__crt_internal_free_policy@@@@QEBAPEAPEADXZ 000000014003bba0 f i libucrt:argv_parsing.obj
 0001:0003aba4       ?get@?$__crt_unique_heap_ptr@PEA_WU__crt_internal_free_policy@@@@QEBAPEAPEA_WXZ 000000014003bba4 f i libucrt:argv_parsing.obj
 0001:0003aba8       ?get_address_of@?$__crt_unique_heap_ptr@PEADU__crt_internal_free_policy@@@@QEAAPEAPEAPEADXZ 000000014003bba8 f i libucrt:argv_parsing.obj
 0001:0003abac       ?get_address_of@?$__crt_unique_heap_ptr@PEA_WU__crt_internal_free_policy@@@@QEAAPEAPEAPEA_WXZ 000000014003bbac f i libucrt:argv_parsing.obj
 0001:0003abe0       ?is_valid@?$__crt_unique_heap_ptr@EU__crt_internal_free_policy@@@@QEBA_NXZ 000000014003bbe0 f i libucrt:argv_parsing.obj
 0001:0003abec       ?release@?$__crt_unique_heap_ptr@EU__crt_internal_free_policy@@@@QEAAXXZ 000000014003bbec f i libucrt:argv_parsing.obj
 0001:0003ac10       ?release@?$__crt_unique_heap_ptr@PEADU__crt_internal_free_policy@@@@QEAAXXZ 000000014003bc10 f i libucrt:argv_parsing.obj
 0001:0003ac34       ?release@?$__crt_unique_heap_ptr@PEA_WU__crt_internal_free_policy@@@@QEAAXXZ 000000014003bc34 f i libucrt:argv_parsing.obj
 0001:0003ac78       __acrt_allocate_buffer_for_argv 000000014003bc78 f   libucrt:argv_parsing.obj
 0001:0003acec       _configure_narrow_argv     000000014003bcec f   libucrt:argv_parsing.obj
 0001:0003aed4       _configure_wide_argv       000000014003bed4 f   libucrt:argv_parsing.obj
 0001:0003b0b8       _set_pgmptr                000000014003c0b8 f i libucrt:argv_parsing.obj
 0001:0003b0c4       _set_wpgmptr               000000014003c0c4 f i libucrt:argv_parsing.obj
 0001:0003b0d0       ??$?R_W@__crt_internal_free_policy@@QEBAXQEB_W@Z 000000014003c0d0 f i libucrt:environment_initialization.obj
 0001:0003b718       ??$get_environment_from_os@$$V@?$__crt_char_traits@D@@SAPEADXZ 000000014003c718 f i libucrt:environment_initialization.obj
 0001:0003b720       ??$get_environment_from_os@$$V@?$__crt_char_traits@_W@@SAPEA_WXZ 000000014003c720 f i libucrt:environment_initialization.obj
 0001:0003b910       ??$set_variable_in_environment_nolock@PEADH@?$__crt_char_traits@D@@SAH$$QEAPEAD$$QEAH@Z 000000014003c910 f i libucrt:environment_initialization.obj
 0001:0003b91c       ??$set_variable_in_environment_nolock@PEA_WH@?$__crt_char_traits@_W@@SAH$$QEAPEA_W$$QEAH@Z 000000014003c91c f i libucrt:environment_initialization.obj
 0001:0003b928       ??$tcscpy_s@PEADAEB_KAEAPEAD@?$__crt_char_traits@D@@SAH$$QEAPEADAEB_KAEAPEAD@Z 000000014003c928 f i libucrt:environment_initialization.obj
 0001:0003b93c       ??$tcscpy_s@PEA_WAEB_KAEAPEA_W@?$__crt_char_traits@_W@@SAH$$QEAPEA_WAEB_KAEAPEA_W@Z 000000014003c93c f i libucrt:environment_initialization.obj
 0001:0003b950       ??$tcslen@AEAPEAD@?$__crt_char_traits@D@@SA_KAEAPEAD@Z 000000014003c950 f i libucrt:environment_initialization.obj
 0001:0003b968       ??$tcslen@AEAPEA_W@?$__crt_char_traits@_W@@SA_KAEAPEA_W@Z 000000014003c968 f i libucrt:environment_initialization.obj
 0001:0003b980       ??$uninitialize@A6AXAEAPEAPEAD@Z@?$dual_state_global@PEAPEAD@__crt_state_management@@QEAAXA6AXAEAPEAPEAD@Z@Z 000000014003c980 f i libucrt:environment_initialization.obj
 0001:0003b9d4       ??$uninitialize@A6AXAEAPEAPEA_W@Z@?$dual_state_global@PEAPEA_W@__crt_state_management@@QEAAXA6AXAEAPEAPEA_W@Z@Z 000000014003c9d4 f i libucrt:environment_initialization.obj
 0001:0003ba68       ??0?$__crt_unique_heap_ptr@_WU__crt_internal_free_policy@@@@QEAA@QEA_W@Z 000000014003ca68 f i libucrt:environment_initialization.obj
 0001:0003ba70       ??1?$__crt_unique_heap_ptr@_WU__crt_internal_free_policy@@@@QEAA@XZ 000000014003ca70 f i libucrt:environment_initialization.obj
 0001:0003ba94       ??B?$__crt_unique_heap_ptr@PEADU__crt_internal_free_policy@@@@QEBA_NXZ 000000014003ca94 f i libucrt:environment_initialization.obj
 0001:0003baa0       ??B?$__crt_unique_heap_ptr@PEA_WU__crt_internal_free_policy@@@@QEBA_NXZ 000000014003caa0 f i libucrt:environment_initialization.obj
 0001:0003baac       ??B?$__crt_unique_heap_ptr@_WU__crt_internal_free_policy@@@@QEBA_NXZ 000000014003caac f i libucrt:environment_initialization.obj
 0001:0003bab8       ?__crt_compute_required_transform_buffer_count@@YA_KIQEBD@Z 000000014003cab8 f i libucrt:environment_initialization.obj
 0001:0003bae8       ?__crt_compute_required_transform_buffer_count@@YA_KIQEB_W@Z 000000014003cae8 f i libucrt:environment_initialization.obj
 0001:0003bb24       ?__crt_transform_string@@YA_KIQEBDQEA_W_K@Z 000000014003cb24 f i libucrt:environment_initialization.obj
 0001:0003bb50       ?__crt_transform_string@@YA_KIQEB_WQEAD_K@Z 000000014003cb50 f i libucrt:environment_initialization.obj
 0001:0003bb8c       ?detach@?$__crt_unique_heap_ptr@DU__crt_internal_free_policy@@@@QEAAPEADXZ 000000014003cb8c f i libucrt:environment_initialization.obj
 0001:0003bb98       ?detach@?$__crt_unique_heap_ptr@_WU__crt_internal_free_policy@@@@QEAAPEA_WXZ 000000014003cb98 f i libucrt:environment_initialization.obj
 0001:0003bba4       ?get@?$__crt_unique_heap_ptr@_WU__crt_internal_free_policy@@@@QEBAPEA_WXZ 000000014003cba4 f i libucrt:environment_initialization.obj
 0001:0003bbf0       ?initialize@?$dual_state_global@PEAPEAD@__crt_state_management@@QEAAXQEAPEAD@Z 000000014003cbf0 f i libucrt:environment_initialization.obj
 0001:0003bc20       ?initialize@?$dual_state_global@PEAPEA_W@__crt_state_management@@QEAAXQEAPEA_W@Z 000000014003cc20 f i libucrt:environment_initialization.obj
 0001:0003bc50       ?is_valid@?$__crt_unique_heap_ptr@PEADU__crt_internal_free_policy@@@@QEBA_NXZ 000000014003cc50 f i libucrt:environment_initialization.obj
 0001:0003bc5c       ?is_valid@?$__crt_unique_heap_ptr@PEA_WU__crt_internal_free_policy@@@@QEBA_NXZ 000000014003cc5c f i libucrt:environment_initialization.obj
 0001:0003bc68       ?is_valid@?$__crt_unique_heap_ptr@_WU__crt_internal_free_policy@@@@QEBA_NXZ 000000014003cc68 f i libucrt:environment_initialization.obj
 0001:0003bc80       ?release@?$__crt_unique_heap_ptr@_WU__crt_internal_free_policy@@@@QEAAXXZ 000000014003cc80 f i libucrt:environment_initialization.obj
 0001:0003bca4       ?value@?$dual_state_global@PEAPEAD@__crt_state_management@@QEAAAEAPEAPEADXZ 000000014003cca4 f i libucrt:environment_initialization.obj
 0001:0003bca8       ?value@?$dual_state_global@PEAPEA_W@__crt_state_management@@QEAAAEAPEAPEA_WXZ 000000014003cca8 f i libucrt:environment_initialization.obj
 0001:0003bcac       __dcrt_get_or_create_narrow_environment_nolock 000000014003ccac f   libucrt:environment_initialization.obj
 0001:0003bcf8       __dcrt_get_or_create_wide_environment_nolock 000000014003ccf8 f   libucrt:environment_initialization.obj
 0001:0003bd44       __dcrt_uninitialize_environments_nolock 000000014003cd44 f   libucrt:environment_initialization.obj
 0001:0003bd8c       __p__environ               000000014003cd8c f   libucrt:environment_initialization.obj
 0001:0003bd98       __p__wenviron              000000014003cd98 f   libucrt:environment_initialization.obj
 0001:0003bda4       _get_initial_narrow_environment 000000014003cda4 f   libucrt:environment_initialization.obj
 0001:0003be08       _get_initial_wide_environment 000000014003ce08 f   libucrt:environment_initialization.obj
 0001:0003be6c       _initialize_narrow_environment 000000014003ce6c f   libucrt:environment_initialization.obj
 0001:0003be74       _initialize_wide_environment 000000014003ce74 f   libucrt:environment_initialization.obj
 0001:0003be7c       _initterm                  000000014003ce7c f   libucrt:initterm.obj
 0001:0003befc       _initterm_e                000000014003cefc f   libucrt:initterm.obj
 0001:0003bf48       ??$?B$$A6AXPEAXK0@Z@__crt_fast_encoded_nullptr_t@@QEBAP6AXPEAXK0@ZXZ 000000014003cf48 f i libucrt:exit.obj
 0001:0003bfcc       ??$__crt_fast_decode_pointer@P6AXPEAXK0@Z@@YAP6AXPEAXK0@ZQ6AX0K0@Z@Z 000000014003cfcc f i libucrt:exit.obj
 0001:0003bfe8       ??$__crt_fast_encode_pointer@P6AXPEAXK0@Z@@YAP6AXPEAXK0@ZQ6AX0K0@Z@Z 000000014003cfe8 f i libucrt:exit.obj
 0001:0003c010       ??$__crt_get_proc_address@P6AXI@Z@@YAP6AXI@ZQEAUHINSTANCE__@@QEBD@Z 000000014003d010 f i libucrt:exit.obj
 0001:0003c044       ??0?$__crt_unique_handle_t@U__crt_hmodule_traits@@@@QEAA@QEAUHINSTANCE__@@@Z 000000014003d044 f i libucrt:exit.obj
 0001:0003c04c       ??1?$__crt_unique_handle_t@U__crt_hmodule_traits@@@@QEAA@XZ 000000014003d04c f i libucrt:exit.obj
 0001:0003c17c       ?__acrt_select_exit_lock@@YA?AW4__acrt_lock_id@@XZ 000000014003d17c f i libucrt:exit.obj
 0001:0003c184       ?__crt_fast_encode_pointer@@YA?AU__crt_fast_encoded_nullptr_t@@$$T@Z 000000014003d184 f i libucrt:exit.obj
 0001:0003c19c       ?close@?$__crt_unique_handle_t@U__crt_hmodule_traits@@@@QEAAXXZ 000000014003d19c f i libucrt:exit.obj
 0001:0003c1c8       ?close@__crt_hmodule_traits@@SA_NPEAUHINSTANCE__@@@Z 000000014003d1c8 f i libucrt:exit.obj
 0001:0003c32c       ?get@?$__crt_unique_handle_t@U__crt_hmodule_traits@@@@QEBAPEAUHINSTANCE__@@XZ 000000014003d32c f i libucrt:exit.obj
 0001:0003c330       ?get_address_of@?$__crt_unique_handle_t@U__crt_hmodule_traits@@@@QEAAPEAPEAUHINSTANCE__@@XZ 000000014003d330 f i libucrt:exit.obj
 0001:0003c334       ?get_invalid_value@__crt_hmodule_traits@@SAPEAUHINSTANCE__@@XZ 000000014003d334 f i libucrt:exit.obj
 0001:0003c450       _Exit                      000000014003d450 f   libucrt:exit.obj
 0001:0003c460       __acrt_initialize_thread_local_exit_callback 000000014003d460 f   libucrt:exit.obj
 0001:0003c46c       _c_exit                    000000014003d46c f   libucrt:exit.obj
 0001:0003c480       _cexit                     000000014003d480 f   libucrt:exit.obj
 0001:0003c490       _exit                      000000014003d490 f   libucrt:exit.obj
 0001:0003c4a0       _is_c_termination_complete 000000014003d4a0 f   libucrt:exit.obj
 0001:0003c4a8       _register_thread_local_exe_atexit_callback 000000014003d4a8 f   libucrt:exit.obj
 0001:0003c4f4       exit                       000000014003d4f4 f   libucrt:exit.obj
 0001:0003c500       quick_exit                 000000014003d500 f   libucrt:exit.obj
 0001:0003c510       ??$__crt_interlocked_read@H@@YAHPEDH@Z 000000014003d510 f i libucrt:setmode.obj
 0001:0003c514       ?value@?$dual_state_global@H@__crt_state_management@@QEAAAEAHXZ 000000014003d514 f i libucrt:setmode.obj
 0001:0003c518       _get_fmode                 000000014003d518 f   libucrt:setmode.obj
 0001:0003c554       _set_fmode                 000000014003d554 f   libucrt:setmode.obj
 0001:0003c5a0       _setmode                   000000014003d5a0 f   libucrt:setmode.obj
 0001:0003c6e4       _setmode_nolock            000000014003d6e4 f   libucrt:setmode.obj
 0001:0003c7fc       __acrt_initialize_command_line 000000014003d7fc f   libucrt:argv_data.obj
 0001:0003c82c       __acrt_uninitialize_command_line 000000014003d82c f   libucrt:argv_data.obj
 0001:0003c830       __p___argc                 000000014003d830 f   libucrt:argv_data.obj
 0001:0003c83c       __p___argv                 000000014003d83c f   libucrt:argv_data.obj
 0001:0003c848       __p___wargv                000000014003d848 f   libucrt:argv_data.obj
 0001:0003c854       __p__acmdln                000000014003d854 f   libucrt:argv_data.obj
 0001:0003c860       __p__pgmptr                000000014003d860 f   libucrt:argv_data.obj
 0001:0003c86c       __p__wcmdln                000000014003d86c f   libucrt:argv_data.obj
 0001:0003c878       __p__wpgmptr               000000014003d878 f   libucrt:argv_data.obj
 0001:0003c884       _get_pgmptr                000000014003d884 f   libucrt:argv_data.obj
 0001:0003c8c8       _get_wpgmptr               000000014003d8c8 f   libucrt:argv_data.obj
 0001:0003c910       ??$?RU__crt_locale_data@@@__crt_internal_free_policy@@QEBAXQEBU__crt_locale_data@@@Z 000000014003d910 f i libucrt:wsetlocale.obj
 0001:0003c91c       ??$?RU__crt_locale_pointers@@@__crt_internal_free_policy@@QEBAXQEBU__crt_locale_pointers@@@Z 000000014003d91c f i libucrt:wsetlocale.obj
 0001:0003c928       ??$?RU__crt_multibyte_data@@@__crt_internal_free_policy@@QEBAXQEBU__crt_multibyte_data@@@Z 000000014003d928 f i libucrt:wsetlocale.obj
 0001:0003ce30       ??0?$__crt_unique_heap_ptr@U__crt_locale_data@@U__crt_internal_free_policy@@@@QEAA@QEAU__crt_locale_data@@@Z 000000014003de30 f i libucrt:wsetlocale.obj
 0001:0003ce38       ??0?$__crt_unique_heap_ptr@U__crt_locale_pointers@@U__crt_internal_free_policy@@@@QEAA@QEAU__crt_locale_pointers@@@Z 000000014003de38 f i libucrt:wsetlocale.obj
 0001:0003ce40       ??0?$__crt_unique_heap_ptr@U__crt_multibyte_data@@U__crt_internal_free_policy@@@@QEAA@QEAU__crt_multibyte_data@@@Z 000000014003de40 f i libucrt:wsetlocale.obj
 0001:0003ce48       ??0_expandlocale_locale_name_cache@@QEAA@QEA_W_KQEAU__crt_qualified_locale_data@@@Z 000000014003de48 f i libucrt:wsetlocale.obj
 0001:0003ceb8       ??1?$__crt_unique_heap_ptr@U__crt_locale_data@@U__crt_internal_free_policy@@@@QEAA@XZ 000000014003deb8 f i libucrt:wsetlocale.obj
 0001:0003cedc       ??1?$__crt_unique_heap_ptr@U__crt_locale_pointers@@U__crt_internal_free_policy@@@@QEAA@XZ 000000014003dedc f i libucrt:wsetlocale.obj
 0001:0003cf00       ??1?$__crt_unique_heap_ptr@U__crt_multibyte_data@@U__crt_internal_free_policy@@@@QEAA@XZ 000000014003df00 f i libucrt:wsetlocale.obj
 0001:0003cf24       ??1_expandlocale_locale_name_cache@@QEAA@XZ 000000014003df24 f i libucrt:wsetlocale.obj
 0001:0003cf80       ??B?$__crt_unique_heap_ptr@U__crt_locale_data@@U__crt_internal_free_policy@@@@QEBA_NXZ 000000014003df80 f i libucrt:wsetlocale.obj
 0001:0003cf8c       ??B?$__crt_unique_heap_ptr@U__crt_locale_pointers@@U__crt_internal_free_policy@@@@QEBA_NXZ 000000014003df8c f i libucrt:wsetlocale.obj
 0001:0003cf98       ??B?$__crt_unique_heap_ptr@U__crt_multibyte_data@@U__crt_internal_free_policy@@@@QEBA_NXZ 000000014003df98 f i libucrt:wsetlocale.obj
 0001:0003d2a4       ?commit_locale_name@_expandlocale_locale_name_cache@@QEAAXQEB_W_K@Z 000000014003e2a4 f i libucrt:wsetlocale.obj
 0001:0003d338       ?commit_locale_name_cache_already_updated@_expandlocale_locale_name_cache@@QEAAXQEB_W_K@Z 000000014003e338 f i libucrt:wsetlocale.obj
 0001:0003d388       ?detach@?$__crt_unique_heap_ptr@U__crt_locale_data@@U__crt_internal_free_policy@@@@QEAAPEAU__crt_locale_data@@XZ 000000014003e388 f i libucrt:wsetlocale.obj
 0001:0003d394       ?detach@?$__crt_unique_heap_ptr@U__crt_locale_pointers@@U__crt_internal_free_policy@@@@QEAAPEAU__crt_locale_pointers@@XZ 000000014003e394 f i libucrt:wsetlocale.obj
 0001:0003d3a0       ?detach@?$__crt_unique_heap_ptr@U__crt_multibyte_data@@U__crt_internal_free_policy@@@@QEAAPEAU__crt_multibyte_data@@XZ 000000014003e3a0 f i libucrt:wsetlocale.obj
 0001:0003d3ac       ?get@?$__crt_unique_heap_ptr@U__crt_locale_data@@U__crt_internal_free_policy@@@@QEBAPEAU__crt_locale_data@@XZ 000000014003e3ac f i libucrt:wsetlocale.obj
 0001:0003d3b0       ?get@?$__crt_unique_heap_ptr@U__crt_locale_pointers@@U__crt_internal_free_policy@@@@QEBAPEAU__crt_locale_pointers@@XZ 000000014003e3b0 f i libucrt:wsetlocale.obj
 0001:0003d3b4       ?get@?$__crt_unique_heap_ptr@U__crt_multibyte_data@@U__crt_internal_free_policy@@@@QEBAPEAU__crt_multibyte_data@@XZ 000000014003e3b4 f i libucrt:wsetlocale.obj
 0001:0003d3b8       ?is_valid@?$__crt_unique_heap_ptr@U__crt_locale_data@@U__crt_internal_free_policy@@@@QEBA_NXZ 000000014003e3b8 f i libucrt:wsetlocale.obj
 0001:0003d3c4       ?is_valid@?$__crt_unique_heap_ptr@U__crt_locale_pointers@@U__crt_internal_free_policy@@@@QEBA_NXZ 000000014003e3c4 f i libucrt:wsetlocale.obj
 0001:0003d3d0       ?is_valid@?$__crt_unique_heap_ptr@U__crt_multibyte_data@@U__crt_internal_free_policy@@@@QEBA_NXZ 000000014003e3d0 f i libucrt:wsetlocale.obj
 0001:0003d3dc       ?release@?$__crt_unique_heap_ptr@U__crt_locale_data@@U__crt_internal_free_policy@@@@QEAAXXZ 000000014003e3dc f i libucrt:wsetlocale.obj
 0001:0003d400       ?release@?$__crt_unique_heap_ptr@U__crt_locale_pointers@@U__crt_internal_free_policy@@@@QEAAXXZ 000000014003e400 f i libucrt:wsetlocale.obj
 0001:0003d424       ?release@?$__crt_unique_heap_ptr@U__crt_multibyte_data@@U__crt_internal_free_policy@@@@QEAAXXZ 000000014003e424 f i libucrt:wsetlocale.obj
 0001:0003d448       ?value@?$dual_state_global@PEAU__crt_locale_data@@@__crt_state_management@@QEAAAEAPEAU__crt_locale_data@@XZ 000000014003e448 f i libucrt:wsetlocale.obj
 0001:0003d44c       __acrt_copy_locale_name    000000014003e44c f   libucrt:wsetlocale.obj
 0001:0003d4f0       __acrt_set_locale_changed  000000014003e4f0 f   libucrt:wsetlocale.obj
 0001:0003d500       __acrt_uninitialize_locale 000000014003e500 f   libucrt:wsetlocale.obj
 0001:0003d53c       __ascii_tolower            000000014003e53c f i libucrt:wsetlocale.obj
 0001:0003d550       __ascii_towlower           000000014003e550 f i libucrt:wsetlocale.obj
 0001:0003d560       __lc_lctowcs               000000014003e560 f   libucrt:wsetlocale.obj
 0001:0003d62c       __lc_wcstolc               000000014003e62c f   libucrt:wsetlocale.obj
 0001:0003d7ec       _configthreadlocale        000000014003e7ec f   libucrt:wsetlocale.obj
 0001:0003d960       _create_locale             000000014003e960 f   libucrt:wsetlocale.obj
 0001:0003df90       _free_locale               000000014003ef90 f   libucrt:wsetlocale.obj
 0001:0003e05c       _get_current_locale        000000014003f05c f   libucrt:wsetlocale.obj
 0001:0003e148       _wcreate_locale            000000014003f148 f   libucrt:wsetlocale.obj
 0001:0003e2e4       _wcscats                   000000014003f2e4 f   libucrt:wsetlocale.obj
 0001:0003e364       _wsetlocale                000000014003f364 f   libucrt:wsetlocale.obj
 0001:0003f528       ?value@?$dual_state_global@J@__crt_state_management@@QEAAAEAJXZ 0000000140040528 f i libucrt:new_mode.obj
 0001:0003f52c       _query_new_mode            000000014004052c f   libucrt:new_mode.obj
 0001:0003f534       _set_new_mode              0000000140040534 f   libucrt:new_mode.obj
 0001:0003f56c       __p__commode               000000014004056c f   libucrt:ncommode.obj
 0001:0003f578       ??$?B$$A6AXXZ@__crt_fast_encoded_nullptr_t@@QEBAP6AXXZXZ 0000000140040578 f i libucrt:onexit.obj
 0001:0003f584       ??$?BP6AXXZ@__crt_fast_encoded_nullptr_t@@QEBAPEAP6AXXZXZ 0000000140040584 f i libucrt:onexit.obj
 0001:0003f590       ??$?RP6AXXZ@__crt_internal_free_policy@@QEBAXQEBQ6AXXZ@Z 0000000140040590 f i libucrt:onexit.obj
 0001:0003f694       ??$__crt_fast_decode_pointer@P6AXXZ@@YAP6AXXZQ6AXXZ@Z 0000000140040694 f i libucrt:onexit.obj
 0001:0003f6b0       ??$__crt_fast_decode_pointer@PEAP6AXXZ@@YAPEAP6AXXZQEAP6AXXZ@Z 00000001400406b0 f i libucrt:onexit.obj
 0001:0003f6cc       ??$__crt_fast_encode_pointer@P6AHXZ@@YAP6AHXZQ6AHXZ@Z 00000001400406cc f i libucrt:onexit.obj
 0001:0003f6f4       ??$__crt_fast_encode_pointer@P6AXXZ@@YAP6AXXZQ6AXXZ@Z 00000001400406f4 f i libucrt:onexit.obj
 0001:0003f71c       ??$__crt_fast_encode_pointer@PEAP6AXXZ@@YAPEAP6AXXZQEAP6AXXZ@Z 000000014004071c f i libucrt:onexit.obj
 0001:0003f78c       ??0?$__crt_unique_heap_ptr@P6AXXZU__crt_internal_free_policy@@@@QEAA@QEAP6AXXZ@Z 000000014004078c f i libucrt:onexit.obj
 0001:0003f794       ??1?$__crt_unique_heap_ptr@P6AXXZU__crt_internal_free_policy@@@@QEAA@XZ 0000000140040794 f i libucrt:onexit.obj
 0001:0003f7b8       ??1scoped_global_state_reset@__crt_state_management@@QEAA@XZ 00000001400407b8 f i libucrt:onexit.obj
 0001:0003fb54       ?detach@?$__crt_unique_heap_ptr@P6AXXZU__crt_internal_free_policy@@@@QEAAPEAP6AXXZXZ 0000000140040b54 f i libucrt:onexit.obj
 0001:0003fb60       ?release@?$__crt_unique_heap_ptr@P6AXXZU__crt_internal_free_policy@@@@QEAAXXZ 0000000140040b60 f i libucrt:onexit.obj
 0001:0003fb84       _crt_at_quick_exit         0000000140040b84 f   libucrt:onexit.obj
 0001:0003fb98       _crt_atexit                0000000140040b98 f   libucrt:onexit.obj
 0001:0003fbac       _execute_onexit_table      0000000140040bac f   libucrt:onexit.obj
 0001:0003fbf4       _initialize_onexit_table   0000000140040bf4 f   libucrt:onexit.obj
 0001:0003fc24       _register_onexit_function  0000000140040c24 f   libucrt:onexit.obj
 0001:0003fe04       ??$?BX@__crt_fast_encoded_nullptr_t@@QEBAPEAXXZ 0000000140040e04 f i libucrt:initialization.obj
 0001:0003fe10       ??$__crt_fast_encode_pointer@PEAX@@YAPEAXQEAX@Z 0000000140040e10 f i libucrt:initialization.obj
 0001:0003ff14       ?__acrt_stdio_is_initialized@@YA_NXZ 0000000140040f14 f i libucrt:initialization.obj
 0001:0003ff24       ?initialize@?$dual_state_global@PEAU__crt_locale_data@@@__crt_state_management@@QEAAXQEAU__crt_locale_data@@@Z 0000000140040f24 f i libucrt:initialization.obj
 0001:0003ff54       __acrt_initialize          0000000140040f54 f   libucrt:initialization.obj
 0001:0003ff6c       __acrt_thread_attach       0000000140040f6c f   libucrt:initialization.obj
 0001:0003ff88       __acrt_thread_detach       0000000140040f88 f   libucrt:initialization.obj
 0001:0003ff9c       __acrt_uninitialize        0000000140040f9c f   libucrt:initialization.obj
 0001:0003ffe0       __acrt_uninitialize_critical 0000000140040fe0 f   libucrt:initialization.obj
 0001:0004000c       _get_terminate             000000014004100c f   libucrt:terminate.obj
 0001:00040038       set_terminate              0000000140041038 f   libucrt:terminate.obj
 0001:00040070       terminate                  0000000140041070 f   libucrt:terminate.obj
 0001:00040098       free                       0000000140041098 f   libucrt:free.obj
 0001:000400b0       malloc                     00000001400410b0 f   libucrt:malloc.obj
 0001:00040134       strcpy_s                   0000000140041134 f   libucrt:strcpy_s.obj
 0001:000401ac       _set_abort_behavior        00000001400411ac f   libucrt:abort.obj
 0001:000401d0       abort                      00000001400411d0 f   libucrt:abort.obj
 0001:0004023c       calloc                     000000014004123c f   libucrt:calloc.obj
 0001:00040244       ??$is_overflow_condition@K@__crt_strtox@@YA_NIK@Z 0000000140041244 f i libucrt:atox.obj
 0001:00040274       ??$is_overflow_condition@_K@__crt_strtox@@YA_NI_K@Z 0000000140041274 f i libucrt:atox.obj
 0001:000402b0       ??$make_c_string_character_source@D$$T@__crt_strtox@@YA?AV?$c_string_character_source@D@0@QEBD$$T@Z 00000001400412b0 f i libucrt:atox.obj
 0001:000402c8       ??$make_c_string_character_source@_W$$T@__crt_strtox@@YA?AV?$c_string_character_source@_W@0@QEB_W$$T@Z 00000001400412c8 f i libucrt:atox.obj
 0001:000402e0       ??$parse_integer@KV?$c_string_character_source@D@__crt_strtox@@@__crt_strtox@@YAKQEAU__crt_locale_pointers@@V?$c_string_character_source@D@0@H_N@Z 00000001400412e0 f i libucrt:atox.obj
 0001:000406a4       ??$parse_integer@KV?$c_string_character_source@_W@__crt_strtox@@@__crt_strtox@@YAKQEAU__crt_locale_pointers@@V?$c_string_character_source@_W@0@H_N@Z 00000001400416a4 f i libucrt:atox.obj
 0001:00040ef4       ??$parse_integer@_KV?$c_string_character_source@D@__crt_strtox@@@__crt_strtox@@YA_KQEAU__crt_locale_pointers@@V?$c_string_character_source@D@0@H_N@Z 0000000140041ef4 f i libucrt:atox.obj
 0001:0004129c       ??$parse_integer@_KV?$c_string_character_source@_W@__crt_strtox@@@__crt_strtox@@YA_KQEAU__crt_locale_pointers@@V?$c_string_character_source@_W@0@H_N@Z 000000014004229c f i libucrt:atox.obj
 0001:00041bc8       ??$parse_integer_from_string@JD$$T@__crt_strtox@@YAJQEBD$$THQEAU__crt_locale_pointers@@@Z 0000000140042bc8 f i libucrt:atox.obj
 0001:00041c04       ??$parse_integer_from_string@J_W$$T@__crt_strtox@@YAJQEB_W$$THQEAU__crt_locale_pointers@@@Z 0000000140042c04 f i libucrt:atox.obj
 0001:00041c40       ??$parse_integer_from_string@_JD$$T@__crt_strtox@@YA_JQEBD$$THQEAU__crt_locale_pointers@@@Z 0000000140042c40 f i libucrt:atox.obj
 0001:00041c7c       ??$parse_integer_from_string@_J_W$$T@__crt_strtox@@YA_JQEB_W$$THQEAU__crt_locale_pointers@@@Z 0000000140042c7c f i libucrt:atox.obj
 0001:00041cb8       ??0?$c_string_character_source@D@__crt_strtox@@QEAA@QEBDQEAPEBD@Z 0000000140042cb8 f i libucrt:atox.obj
 0001:00041cd0       ??0?$c_string_character_source@_W@__crt_strtox@@QEAA@QEB_WQEAPEB_W@Z 0000000140042cd0 f i libucrt:atox.obj
 0001:00041ce8       ??1?$c_string_character_source@D@__crt_strtox@@QEAA@XZ 0000000140042ce8 f i libucrt:atox.obj
 0001:00041cfc       ??1?$c_string_character_source@_W@__crt_strtox@@QEAA@XZ 0000000140042cfc f i libucrt:atox.obj
 0001:00041d10       ?get@?$c_string_character_source@D@__crt_strtox@@QEAADXZ 0000000140042d10 f i libucrt:atox.obj
 0001:00041d20       ?get@?$c_string_character_source@_W@__crt_strtox@@QEAA_WXZ 0000000140042d20 f i libucrt:atox.obj
 0001:00041d34       ?is_space@__crt_strtox@@YA_NDQEAU__crt_locale_pointers@@@Z 0000000140042d34 f i libucrt:atox.obj
 0001:00041d5c       ?is_space@__crt_strtox@@YA_N_WPEAU__crt_locale_pointers@@@Z 0000000140042d5c f i libucrt:atox.obj
 0001:00041d7c       ?maximum_signed_value@__crt_strtox@@YAJK@Z 0000000140042d7c f i libucrt:atox.obj
 0001:00041d84       ?maximum_signed_value@__crt_strtox@@YA_J_K@Z 0000000140042d84 f i libucrt:atox.obj
 0001:00041d94       ?minimum_signed_value@__crt_strtox@@YAJK@Z 0000000140042d94 f i libucrt:atox.obj
 0001:00041d9c       ?minimum_signed_value@__crt_strtox@@YA_J_K@Z 0000000140042d9c f i libucrt:atox.obj
 0001:00041dac       ?parse_digit@__crt_strtox@@YAID@Z 0000000140042dac f i libucrt:atox.obj
 0001:00041de8       ?parse_digit@__crt_strtox@@YAI_W@Z 0000000140042de8 f i libucrt:atox.obj
 0001:0004202c       ?restore_state@?$c_string_character_source@D@__crt_strtox@@QEAA_NQEBD@Z 000000014004302c f i libucrt:atox.obj
 0001:00042034       ?restore_state@?$c_string_character_source@_W@__crt_strtox@@QEAA_NQEB_W@Z 0000000140043034 f i libucrt:atox.obj
 0001:0004203c       ?save_state@?$c_string_character_source@D@__crt_strtox@@QEBAPEBDXZ 000000014004303c f i libucrt:atox.obj
 0001:00042040       ?save_state@?$c_string_character_source@_W@__crt_strtox@@QEBAPEB_WXZ 0000000140043040 f i libucrt:atox.obj
 0001:00042044       ?unget@?$c_string_character_source@D@__crt_strtox@@QEAAXD@Z 0000000140043044 f i libucrt:atox.obj
 0001:00042078       ?unget@?$c_string_character_source@_W@__crt_strtox@@QEAAX_W@Z 0000000140043078 f i libucrt:atox.obj
 0001:000420b0       ?validate@?$c_string_character_source@D@__crt_strtox@@QEBA_NXZ 00000001400430b0 f i libucrt:atox.obj
 0001:000420e0       ?validate@?$c_string_character_source@_W@__crt_strtox@@QEBA_NXZ 00000001400430e0 f i libucrt:atox.obj
 0001:00042110       ?wide_character_to_digit@__crt_strtox@@YAH_W@Z 0000000140043110 f i libucrt:atox.obj
 0001:00042318       __acrt_get_locale_data_prefix 0000000140043318 f i libucrt:atox.obj
 0001:0004231c       __ascii_iswalpha           000000014004331c f i libucrt:atox.obj
 0001:0004233c       __ascii_toupper            000000014004333c f i libucrt:atox.obj
 0001:00042350       __ascii_towupper           0000000140043350 f i libucrt:atox.obj
 0001:00042360       _atoi64                    0000000140043360 f   libucrt:atox.obj
 0001:00042394       _atoi64_l                  0000000140043394 f   libucrt:atox.obj
 0001:000423cc       _atoi_l                    00000001400433cc f   libucrt:atox.obj
 0001:00042404       _atol_l                    0000000140043404 f   libucrt:atox.obj
 0001:0004243c       _atoll_l                   000000014004343c f   libucrt:atox.obj
 0001:00042474       _chvalidchk_l              0000000140043474 f i libucrt:atox.obj
 0001:000424f0       _ischartype_l              00000001400434f0 f i libucrt:atox.obj
 0001:00042584       _wtoi                      0000000140043584 f   libucrt:atox.obj
 0001:000425b8       _wtoi64                    00000001400435b8 f   libucrt:atox.obj
 0001:000425ec       _wtoi64_l                  00000001400435ec f   libucrt:atox.obj
 0001:00042624       _wtoi_l                    0000000140043624 f   libucrt:atox.obj
 0001:0004265c       _wtol                      000000014004365c f   libucrt:atox.obj
 0001:00042690       _wtol_l                    0000000140043690 f   libucrt:atox.obj
 0001:000426c8       _wtoll                     00000001400436c8 f   libucrt:atox.obj
 0001:000426fc       _wtoll_l                   00000001400436fc f   libucrt:atox.obj
 0001:00042734       atoi                       0000000140043734 f   libucrt:atox.obj
 0001:00042768       atol                       0000000140043768 f   libucrt:atox.obj
 0001:0004279c       atoll                      000000014004379c f   libucrt:atox.obj
 0001:000427e0       strncmp                    00000001400437e0 f   libucrt:strncmp.obj
 0001:00042880       wcsncmp                    0000000140043880 f   libucrt:wcsncmp.obj
 0001:000428b8       ??$__crt_fast_decode_pointer@P6AXPEB_W00I_K@Z@@YAP6AXPEB_W00I_K@ZQ6AX000I1@Z@Z 00000001400438b8 f i libucrt:invalid_parameter.obj
 0001:000428d4       ??$__crt_fast_encode_pointer@P6AXPEB_W00I_K@Z@@YAP6AXPEB_W00I_K@ZQ6AX000I1@Z@Z 00000001400438d4 f i libucrt:invalid_parameter.obj
 0001:000428fc       ??$initialize_from_array@$$BY00Q6AXPEB_W00I_K@Z@?$dual_state_global@P6AXPEB_W00I_K@Z@__crt_state_management@@QEAAXAEAY00Q6AXPEB_W00I_K@Z@Z 00000001400438fc f i libucrt:invalid_parameter.obj
 0001:0004298c       ?dangerous_get_state_array@?$dual_state_global@P6AXPEB_W00I_K@Z@__crt_state_management@@QEAAPEAP6AXPEB_W00I_K@ZXZ 000000014004398c f i libucrt:invalid_parameter.obj
 0001:00042990       ?value@?$dual_state_global@P6AXPEB_W00I_K@Z@__crt_state_management@@QEAAAEAP6AXPEB_W00I_K@ZXZ 0000000140043990 f i libucrt:invalid_parameter.obj
 0001:00042994       __acrt_call_reportfault    0000000140043994 f   libucrt:invalid_parameter.obj
 0001:00042b48       __acrt_initialize_invalid_parameter_handler 0000000140043b48 f   libucrt:invalid_parameter.obj
 0001:00042b54       _get_invalid_parameter_handler 0000000140043b54 f   libucrt:invalid_parameter.obj
 0001:00042b70       _get_thread_local_invalid_parameter_handler 0000000140043b70 f   libucrt:invalid_parameter.obj
 0001:00042b90       _invalid_parameter         0000000140043b90 f   libucrt:invalid_parameter.obj
 0001:00042c6c       _invalid_parameter_noinfo  0000000140043c6c f   libucrt:invalid_parameter.obj
 0001:00042c94       _invalid_parameter_noinfo_noreturn 0000000140043c94 f   libucrt:invalid_parameter.obj
 0001:00042cd0       _invoke_watson             0000000140043cd0 f   libucrt:invalid_parameter.obj
 0001:00042d28       _set_invalid_parameter_handler 0000000140043d28 f   libucrt:invalid_parameter.obj
 0001:00042d6c       _set_thread_local_invalid_parameter_handler 0000000140043d6c f   libucrt:invalid_parameter.obj
 0001:00042d9c       __acrt_errno_from_os_error 0000000140043d9c f   libucrt:errno.obj
 0001:00042df4       __acrt_errno_map_os_error  0000000140043df4 f   libucrt:errno.obj
 0001:00042e58       __doserrno                 0000000140043e58 f   libucrt:errno.obj
 0001:00042e80       _errno                     0000000140043e80 f   libucrt:errno.obj
 0001:00042ea8       _get_doserrno              0000000140043ea8 f   libucrt:errno.obj
 0001:00042ef4       _get_errno                 0000000140043ef4 f   libucrt:errno.obj
 0001:00042f40       _set_doserrno              0000000140043f40 f   libucrt:errno.obj
 0001:00042f88       _set_errno                 0000000140043f88 f   libucrt:errno.obj
 0001:00042fd0       _calloc_base               0000000140043fd0 f   libucrt:calloc_base.obj
 0001:00043070       _free_base                 0000000140044070 f   libucrt:free_base.obj
 0001:000430f0       ??$?B$$A6AHPEA_WK_J@Z@__crt_fast_encoded_nullptr_t@@QEBAP6AHPEA_WK_J@ZXZ 00000001400440f0 f i libucrt:winapi_thunks.obj
 0001:000431c4       ??$__crt_fast_decode_pointer@P6AHPEA_WK_J@Z@@YAP6AHPEA_WK_J@ZQ6AH0K1@Z@Z 00000001400441c4 f i libucrt:winapi_thunks.obj
 0001:000431e0       ??$__crt_fast_decode_pointer@PEAX@@YAPEAXQEAX@Z 00000001400441e0 f i libucrt:winapi_thunks.obj
 0001:000431fc       ??$__crt_fast_encode_pointer@P6AHPEA_WK_J@Z@@YAP6AHPEA_WK_J@ZQ6AH0K1@Z@Z 00000001400441fc f i libucrt:winapi_thunks.obj
 0001:00043fb0       GetCurrentThreadEffectiveToken 0000000140044fb0 f i libucrt:winapi_thunks.obj
 0001:00043fbc       __acrt_AppPolicyGetProcessTerminationMethodInternal 0000000140044fbc f   libucrt:winapi_thunks.obj
 0001:00044020       __acrt_AppPolicyGetShowDeveloperDiagnosticInternal 0000000140045020 f   libucrt:winapi_thunks.obj
 0001:00044084       __acrt_AppPolicyGetThreadInitializationTypeInternal 0000000140045084 f   libucrt:winapi_thunks.obj
 0001:000440e8       __acrt_AppPolicyGetWindowingModelInternal 00000001400450e8 f   libucrt:winapi_thunks.obj
 0001:0004414c       __acrt_AreFileApisANSI     000000014004514c f   libucrt:winapi_thunks.obj
 0001:00044194       __acrt_CompareStringEx     0000000140045194 f   libucrt:winapi_thunks.obj
 0001:000442a8       __acrt_EnumSystemLocalesEx 00000001400452a8 f   libucrt:winapi_thunks.obj
 0001:00044364       __acrt_FlsAlloc            0000000140045364 f   libucrt:winapi_thunks.obj
 0001:000443c0       __acrt_FlsFree             00000001400453c0 f   libucrt:winapi_thunks.obj
 0001:00044418       __acrt_FlsGetValue         0000000140045418 f   libucrt:winapi_thunks.obj
 0001:00044470       __acrt_FlsSetValue         0000000140045470 f   libucrt:winapi_thunks.obj
 0001:000444d8       __acrt_GetDateFormatEx     00000001400454d8 f   libucrt:winapi_thunks.obj
 0001:000445bc       __acrt_GetEnabledXStateFeatures 00000001400455bc f   libucrt:winapi_thunks.obj
 0001:00044604       __acrt_GetLocaleInfoEx     0000000140045604 f   libucrt:winapi_thunks.obj
 0001:000446a8       __acrt_GetSystemTimePreciseAsFileTime 00000001400456a8 f   libucrt:winapi_thunks.obj
 0001:00044704       __acrt_GetTimeFormatEx     0000000140045704 f   libucrt:winapi_thunks.obj
 0001:000447dc       __acrt_GetUserDefaultLocaleName 00000001400457dc f   libucrt:winapi_thunks.obj
 0001:00044858       __acrt_GetXStateFeaturesMask 0000000140045858 f   libucrt:winapi_thunks.obj
 0001:000448c0       __acrt_InitializeCriticalSectionEx 00000001400458c0 f   libucrt:winapi_thunks.obj
 0001:0004493c       __acrt_IsValidLocaleName   000000014004593c f   libucrt:winapi_thunks.obj
 0001:000449a8       __acrt_LCIDToLocaleName    00000001400459a8 f   libucrt:winapi_thunks.obj
 0001:00044a34       __acrt_LCMapStringEx       0000000140045a34 f   libucrt:winapi_thunks.obj
 0001:00044b48       __acrt_LocaleNameToLCID    0000000140045b48 f   libucrt:winapi_thunks.obj
 0001:00044bac       __acrt_LocateXStateFeature 0000000140045bac f   libucrt:winapi_thunks.obj
 0001:00044c24       __acrt_MessageBoxA         0000000140045c24 f   libucrt:winapi_thunks.obj
 0001:00044cb4       __acrt_MessageBoxW         0000000140045cb4 f   libucrt:winapi_thunks.obj
 0001:00044d44       __acrt_RoInitialize        0000000140045d44 f   libucrt:winapi_thunks.obj
 0001:00044d94       __acrt_RoUninitialize      0000000140045d94 f   libucrt:winapi_thunks.obj
 0001:00044dd4       __acrt_RtlGenRandom        0000000140045dd4 f   libucrt:winapi_thunks.obj
 0001:00044e38       __acrt_SetThreadStackGuarantee 0000000140045e38 f   libucrt:winapi_thunks.obj
 0001:00044e8c       __acrt_can_show_message_box 0000000140045e8c f   libucrt:winapi_thunks.obj
 0001:00044f14       __acrt_can_use_vista_locale_apis 0000000140045f14 f   libucrt:winapi_thunks.obj
 0001:00044f50       __acrt_can_use_xstate_apis 0000000140045f50 f   libucrt:winapi_thunks.obj
 0001:00044f8c       __acrt_eagerly_load_locale_apis 0000000140045f8c f   libucrt:winapi_thunks.obj
 0001:0004513c       __acrt_get_parent_window   000000014004613c f   libucrt:winapi_thunks.obj
 0001:000451d4       __acrt_initialize_winapi_thunks 00000001400461d4 f   libucrt:winapi_thunks.obj
 0001:00045214       __acrt_is_interactive      0000000140046214 f   libucrt:winapi_thunks.obj
 0001:0004530c       __acrt_uninitialize_winapi_thunks 000000014004630c f   libucrt:winapi_thunks.obj
 0001:00045360       ??0__crt_stdio_stream@@QEAA@QEAU__crt_stdio_stream_data@@@Z 0000000140046360 f i libucrt:closeall.obj
 0001:00045368       ?is_in_use@__crt_stdio_stream@@QEBA_NXZ 0000000140046368 f i libucrt:closeall.obj
 0001:00045378       _fcloseall                 0000000140046378 f   libucrt:closeall.obj
 0001:00045960       ?__acrt_stdio_reset_buffer@@YAXV__crt_stdio_stream@@@Z 0000000140046960 f i libucrt:fflush.obj
 0001:00045a24       ?has_all_of@__crt_stdio_stream@@QEBA_NJ@Z 0000000140046a24 f i libucrt:fflush.obj
 0001:00045a7c       ?set_flags@__crt_stdio_stream@@QEBA_NJ@Z 0000000140046a7c f i libucrt:fflush.obj
 0001:00045aa4       ?unset_flags@__crt_stdio_stream@@QEBA_NJ@Z 0000000140046aa4 f i libucrt:fflush.obj
 0001:00045ad4       __acrt_stdio_flush_nolock  0000000140046ad4 f   libucrt:fflush.obj
 0001:00045b6c       _fflush_nolock             0000000140046b6c f   libucrt:fflush.obj
 0001:00045bcc       _flushall                  0000000140046bcc f   libucrt:fflush.obj
 0001:00045bd4       fflush                     0000000140046bd4 f   libucrt:fflush.obj
 0001:00045c54       ?has_crt_buffer@__crt_stdio_stream@@QEBA_NXZ 0000000140046c54 f i libucrt:_freebuf.obj
 0001:00045c64       __acrt_stdio_free_buffer_nolock 0000000140046c64 f   libucrt:_freebuf.obj
 0001:00045f50       __acrt_initialize_lowio    0000000140046f50 f   libucrt:ioinit.obj
 0001:00045f9c       __acrt_uninitialize_lowio  0000000140046f9c f   libucrt:ioinit.obj
 0001:00045fec       ?lowio_handle@__crt_stdio_stream@@QEBAHXZ 0000000140046fec f i libucrt:fileno.obj
 0001:00045ff4       _fileno                    0000000140046ff4 f   libucrt:fileno.obj
 0001:0004647c       __acrt_stdio_refill_and_read_narrow_nolock 000000014004747c f   libucrt:_filbuf.obj
 0001:00046640       __acrt_stdio_refill_and_read_wide_nolock 0000000140047640 f   libucrt:_filbuf.obj
 0001:00046648       _malloc_base               0000000140047648 f   libucrt:malloc_base.obj
 0001:000466c0       ??$make_c_string_character_source@DPEAPEAD@__crt_strtox@@YA?AV?$c_string_character_source@D@0@QEBDQEAPEAD@Z 00000001400476c0 f i libucrt:strtox.obj
 0001:000466d8       ??$make_c_string_character_source@_WPEAPEA_W@__crt_strtox@@YA?AV?$c_string_character_source@_W@0@QEB_WQEAPEA_W@Z 00000001400476d8 f i libucrt:strtox.obj
 0001:000466f0       ??$parse_integer_from_string@JDPEAPEAD@__crt_strtox@@YAJQEBDQEAPEADHQEAU__crt_locale_pointers@@@Z 00000001400476f0 f i libucrt:strtox.obj
 0001:0004672c       ??$parse_integer_from_string@J_WPEAPEA_W@__crt_strtox@@YAJQEB_WQEAPEA_WHQEAU__crt_locale_pointers@@@Z 000000014004772c f i libucrt:strtox.obj
 0001:00046768       ??$parse_integer_from_string@KDPEAPEAD@__crt_strtox@@YAKQEBDQEAPEADHQEAU__crt_locale_pointers@@@Z 0000000140047768 f i libucrt:strtox.obj
 0001:000467a4       ??$parse_integer_from_string@K_WPEAPEA_W@__crt_strtox@@YAKQEB_WQEAPEA_WHQEAU__crt_locale_pointers@@@Z 00000001400477a4 f i libucrt:strtox.obj
 0001:000467e0       ??$parse_integer_from_string@_JDPEAPEAD@__crt_strtox@@YA_JQEBDQEAPEADHQEAU__crt_locale_pointers@@@Z 00000001400477e0 f i libucrt:strtox.obj
 0001:0004681c       ??$parse_integer_from_string@_J_WPEAPEA_W@__crt_strtox@@YA_JQEB_WQEAPEA_WHQEAU__crt_locale_pointers@@@Z 000000014004781c f i libucrt:strtox.obj
 0001:00046858       ??$parse_integer_from_string@_KDPEAPEAD@__crt_strtox@@YA_KQEBDQEAPEADHQEAU__crt_locale_pointers@@@Z 0000000140047858 f i libucrt:strtox.obj
 0001:00046894       ??$parse_integer_from_string@_K_WPEAPEA_W@__crt_strtox@@YA_KQEB_WQEAPEA_WHQEAU__crt_locale_pointers@@@Z 0000000140047894 f i libucrt:strtox.obj
 0001:000468d0       _strtoi64                  00000001400478d0 f   libucrt:strtox.obj
 0001:00046904       _strtoi64_l                0000000140047904 f   libucrt:strtox.obj
 0001:00046940       _strtoimax_l               0000000140047940 f   libucrt:strtox.obj
 0001:0004697c       _strtol_l                  000000014004797c f   libucrt:strtox.obj
 0001:000469b8       _strtoll_l                 00000001400479b8 f   libucrt:strtox.obj
 0001:000469f4       _strtoui64                 00000001400479f4 f   libucrt:strtox.obj
 0001:00046a28       _strtoui64_l               0000000140047a28 f   libucrt:strtox.obj
 0001:00046a64       _strtoul_l                 0000000140047a64 f   libucrt:strtox.obj
 0001:00046aa0       _strtoull_l                0000000140047aa0 f   libucrt:strtox.obj
 0001:00046adc       _strtoumax_l               0000000140047adc f   libucrt:strtox.obj
 0001:00046b18       _wcstoi64                  0000000140047b18 f   libucrt:strtox.obj
 0001:00046b4c       _wcstoi64_l                0000000140047b4c f   libucrt:strtox.obj
 0001:00046b88       _wcstoimax_l               0000000140047b88 f   libucrt:strtox.obj
 0001:00046bc4       _wcstol_l                  0000000140047bc4 f   libucrt:strtox.obj
 0001:00046c00       _wcstoll_l                 0000000140047c00 f   libucrt:strtox.obj
 0001:00046c3c       _wcstoui64                 0000000140047c3c f   libucrt:strtox.obj
 0001:00046c70       _wcstoui64_l               0000000140047c70 f   libucrt:strtox.obj
 0001:00046cac       _wcstoul_l                 0000000140047cac f   libucrt:strtox.obj
 0001:00046ce8       _wcstoull_l                0000000140047ce8 f   libucrt:strtox.obj
 0001:00046d24       _wcstoumax_l               0000000140047d24 f   libucrt:strtox.obj
 0001:00046d60       strtoimax                  0000000140047d60 f   libucrt:strtox.obj
 0001:00046d94       strtol                     0000000140047d94 f   libucrt:strtox.obj
 0001:00046dc8       strtoll                    0000000140047dc8 f   libucrt:strtox.obj
 0001:00046dfc       strtoul                    0000000140047dfc f   libucrt:strtox.obj
 0001:00046e30       strtoull                   0000000140047e30 f   libucrt:strtox.obj
 0001:00046e64       strtoumax                  0000000140047e64 f   libucrt:strtox.obj
 0001:00046e98       wcstoimax                  0000000140047e98 f   libucrt:strtox.obj
 0001:00046ecc       wcstol                     0000000140047ecc f   libucrt:strtox.obj
 0001:00046f00       wcstoll                    0000000140047f00 f   libucrt:strtox.obj
 0001:00046f34       wcstoul                    0000000140047f34 f   libucrt:strtox.obj
 0001:00046f68       wcstoull                   0000000140047f68 f   libucrt:strtox.obj
 0001:00046f9c       wcstoumax                  0000000140047f9c f   libucrt:strtox.obj
 0001:00046fd0       _mbtowc_l                  0000000140047fd0 f   libucrt:mbtowc.obj
 0001:000471b0       mbtowc                     00000001400481b0 f   libucrt:mbtowc.obj
 0001:000471bc       _wctomb_l                  00000001400481bc f   libucrt:wctomb.obj
 0001:0004724c       _wctomb_s_l                000000014004824c f   libucrt:wctomb.obj
 0001:00047450       wctomb                     0000000140048450 f   libucrt:wctomb.obj
 0001:000474b0       wctomb_s                   00000001400484b0 f   libucrt:wctomb.obj
 0001:00047f98       ??1?$__crt_simd_cleanup_guard@$00@@QEAA@XZ 0000000140048f98 f i libucrt:strnlen.obj
 0001:00047f9c       ??1?$__crt_simd_cleanup_guard@$0A@@@QEAA@XZ 0000000140048f9c f i libucrt:strnlen.obj
 0001:00047fa0       ?compare_equals@?$__crt_simd_traits@$00E@@SA?AT__m256i@@T2@0@Z 0000000140048fa0 f i libucrt:strnlen.obj
 0001:00047fac       ?compare_equals@?$__crt_simd_traits@$00G@@SA?AT__m256i@@T2@0@Z 0000000140048fac f i libucrt:strnlen.obj
 0001:00047fb8       ?compare_equals@?$__crt_simd_traits@$0A@E@@SA?AT__m128i@@T2@0@Z 0000000140048fb8 f i libucrt:strnlen.obj
 0001:00047fc4       ?compare_equals@?$__crt_simd_traits@$0A@G@@SA?AT__m128i@@T2@0@Z 0000000140048fc4 f i libucrt:strnlen.obj
 0001:00047fd0       ?compute_byte_mask@?$__crt_simd_pack_traits@$00@@SAHT__m256i@@@Z 0000000140048fd0 f i libucrt:strnlen.obj
 0001:00047fe0       ?compute_byte_mask@?$__crt_simd_pack_traits@$0A@@@SAHT__m128i@@@Z 0000000140048fe0 f i libucrt:strnlen.obj
 0001:00047fec       ?get_zero_pack@?$__crt_simd_pack_traits@$00@@SA?AT__m256i@@XZ 0000000140048fec f i libucrt:strnlen.obj
 0001:00047ff4       ?get_zero_pack@?$__crt_simd_pack_traits@$0A@@@SA?AT__m128i@@XZ 0000000140048ff4 f i libucrt:strnlen.obj
 0001:00047ff8       strnlen                    0000000140048ff8 f   libucrt:strnlen.obj
 0001:0004819c       wcslen                     000000014004919c f   libucrt:strnlen.obj
 0001:00048310       wcsnlen                    0000000140049310 f   libucrt:strnlen.obj
 0001:0004855c       ??$?RU__acrt_ptd@@@__crt_internal_free_policy@@QEBAXQEBU__acrt_ptd@@@Z 000000014004955c f i libucrt:per_thread_data.obj
 0001:0004881c       ??0?$__crt_unique_heap_ptr@U__acrt_ptd@@U__crt_internal_free_policy@@@@QEAA@QEAU__acrt_ptd@@@Z 000000014004981c f i libucrt:per_thread_data.obj
 0001:00048824       ??0__crt_scoped_get_last_error_reset@@QEAA@XZ 0000000140049824 f i libucrt:per_thread_data.obj
 0001:00048844       ??1?$__crt_unique_heap_ptr@U__acrt_ptd@@U__crt_internal_free_policy@@@@QEAA@XZ 0000000140049844 f i libucrt:per_thread_data.obj
 0001:00048868       ??1__crt_scoped_get_last_error_reset@@QEAA@XZ 0000000140049868 f i libucrt:per_thread_data.obj
 0001:00048874       ??B?$__crt_unique_heap_ptr@U__acrt_ptd@@U__crt_internal_free_policy@@@@QEBA_NXZ 0000000140049874 f i libucrt:per_thread_data.obj
 0001:00048b44       ?dangerous_get_state_array@?$dual_state_global@PEAU__crt_locale_data@@@__crt_state_management@@QEAAPEAPEAU__crt_locale_data@@XZ 0000000140049b44 f i libucrt:per_thread_data.obj
 0001:00048dd8       ?detach@?$__crt_unique_heap_ptr@U__acrt_ptd@@U__crt_internal_free_policy@@@@QEAAPEAU__acrt_ptd@@XZ 0000000140049dd8 f i libucrt:per_thread_data.obj
 0001:00048de4       ?get@?$__crt_unique_heap_ptr@U__acrt_ptd@@U__crt_internal_free_policy@@@@QEBAPEAU__acrt_ptd@@XZ 0000000140049de4 f i libucrt:per_thread_data.obj
 0001:00048de8       ?get_current_state_index@__crt_state_management@@YA_KAEBV__crt_scoped_get_last_error_reset@@@Z 0000000140049de8 f i libucrt:per_thread_data.obj
 0001:00048fb0       ?is_valid@?$__crt_unique_heap_ptr@U__acrt_ptd@@U__crt_internal_free_policy@@@@QEBA_NXZ 0000000140049fb0 f i libucrt:per_thread_data.obj
 0001:00048fbc       ?release@?$__crt_unique_heap_ptr@U__acrt_ptd@@U__crt_internal_free_policy@@@@QEAAXXZ 0000000140049fbc f i libucrt:per_thread_data.obj
 0001:00049088       __acrt_freeptd             000000014004a088 f   libucrt:per_thread_data.obj
 0001:000490dc       __acrt_getptd              000000014004a0dc f   libucrt:per_thread_data.obj
 0001:000491e8       __acrt_getptd_head         000000014004a1e8 f   libucrt:per_thread_data.obj
 0001:000492b8       __acrt_getptd_noexit       000000014004a2b8 f   libucrt:per_thread_data.obj
 0001:000493b8       __acrt_initialize_ptd      000000014004a3b8 f   libucrt:per_thread_data.obj
 0001:00049400       __acrt_uninitialize_ptd    000000014004a400 f   libucrt:per_thread_data.obj
 0001:0004942c       __threadhandle             000000014004a42c f   libucrt:per_thread_data.obj
 0001:00049434       __threadid                 000000014004a434 f   libucrt:per_thread_data.obj
 0001:0004943c       ?value@?$dual_state_global@PEAU__crt_multibyte_data@@@__crt_state_management@@QEAAAEAPEAU__crt_multibyte_data@@XZ 000000014004a43c f i libucrt:locale_update.obj
 0001:00049440       __acrt_should_sync_with_global_locale 000000014004a440 f i libucrt:locale_update.obj
 0001:00049454       __acrt_update_locale_info  000000014004a454 f   libucrt:locale_update.obj
 0001:00049494       __acrt_update_multibyte_info 000000014004a494 f   libucrt:locale_update.obj
 0001:000494d4       ?__acrt_fp_classify@@YA?AW4__acrt_fp_class@@AEBN@Z 000000014004a4d4 f i libucrt:cvt.obj
 0001:00049548       ?__acrt_fp_is_negative@@YA_NAEBN@Z 000000014004a548 f i libucrt:cvt.obj
 0001:0004a464       ?strrchr@@YAPEADQEADH@Z    000000014004b464 f i libucrt:cvt.obj
 0001:0004a46c       __acrt_fp_format           000000014004b46c f   libucrt:cvt.obj
 0001:0004a894       _fputwc_nolock             000000014004b894 f   libucrt:fputwc.obj
 0001:0004aa70       _fputwchar                 000000014004ba70 f   libucrt:fputwc.obj
 0001:0004aa9c       _putwc_nolock              000000014004ba9c f   libucrt:fputwc.obj
 0001:0004aaa4       fputwc                     000000014004baa4 f   libucrt:fputwc.obj
 0001:0004ab1c       putwc                      000000014004bb1c f   libucrt:fputwc.obj
 0001:0004ab24       putwchar                   000000014004bb24 f   libucrt:fputwc.obj
 0001:0004ab2c       _fputc_nolock              000000014004bb2c f   libucrt:fputc.obj
 0001:0004ab48       _fputchar                  000000014004bb48 f   libucrt:fputc.obj
 0001:0004ab74       _putc_nolock               000000014004bb74 f   libucrt:fputc.obj
 0001:0004ab90       fputc                      000000014004bb90 f   libucrt:fputc.obj
 0001:0004ad00       putc                       000000014004bd00 f   libucrt:fputc.obj
 0001:0004ad08       putchar                    000000014004bd08 f   libucrt:fputc.obj
 0001:0004ad10       _get_printf_count_output   000000014004bd10 f   libucrt:printf_count_output.obj
 0001:0004ad30       _set_printf_count_output   000000014004bd30 f   libucrt:printf_count_output.obj
 0001:0004ad60       ?has_temporary_buffer@__crt_stdio_stream@@QEBA_NXZ 000000014004bd60 f i libucrt:_sftbuf.obj
 0001:0004ad70       __acrt_should_use_temporary_buffer 000000014004bd70 f   libucrt:_sftbuf.obj
 0001:0004adc8       __acrt_stdio_begin_temporary_buffering_nolock 000000014004bdc8 f   libucrt:_sftbuf.obj
 0001:0004aec4       __acrt_stdio_end_temporary_buffering_nolock 000000014004bec4 f   libucrt:_sftbuf.obj
 0001:0004af0c       __p___mb_cur_max           000000014004bf0c f   libucrt:nlsdata.obj
 0001:0004b564       _i64toa                    000000014004c564 f   libucrt:xtoa.obj
 0001:0004b5a4       _i64toa_s                  000000014004c5a4 f   libucrt:xtoa.obj
 0001:0004b5d0       _i64tow                    000000014004c5d0 f   libucrt:xtoa.obj
 0001:0004b610       _i64tow_s                  000000014004c610 f   libucrt:xtoa.obj
 0001:0004b63c       _itoa                      000000014004c63c f   libucrt:xtoa.obj
 0001:0004b678       _itoa_s                    000000014004c678 f   libucrt:xtoa.obj
 0001:0004b6a0       _itow                      000000014004c6a0 f   libucrt:xtoa.obj
 0001:0004b6dc       _itow_s                    000000014004c6dc f   libucrt:xtoa.obj
 0001:0004b704       _ltoa                      000000014004c704 f   libucrt:xtoa.obj
 0001:0004b740       _ltoa_s                    000000014004c740 f   libucrt:xtoa.obj
 0001:0004b768       _ltow                      000000014004c768 f   libucrt:xtoa.obj
 0001:0004b7a4       _ltow_s                    000000014004c7a4 f   libucrt:xtoa.obj
 0001:0004b7cc       _ui64toa                   000000014004c7cc f   libucrt:xtoa.obj
 0001:0004b7f8       _ui64toa_s                 000000014004c7f8 f   libucrt:xtoa.obj
 0001:0004b810       _ui64tow                   000000014004c810 f   libucrt:xtoa.obj
 0001:0004b83c       _ui64tow_s                 000000014004c83c f   libucrt:xtoa.obj
 0001:0004b854       _ultoa                     000000014004c854 f   libucrt:xtoa.obj
 0001:0004b880       _ultoa_s                   000000014004c880 f   libucrt:xtoa.obj
 0001:0004b898       _ultow                     000000014004c898 f   libucrt:xtoa.obj
 0001:0004b8c4       _ultow_s                   000000014004c8c4 f   libucrt:xtoa.obj
 0001:0004b8dc       _set_error_mode            000000014004c8dc f   libucrt:set_error_mode.obj
 0001:0004b9d4       wcscat_s                   000000014004c9d4 f   libucrt:wcscat_s.obj
 0001:0004bafc       wcscpy_s                   000000014004cafc f   libucrt:wcscpy_s.obj
 0001:0004bcb0       wcsncat_s                  000000014004ccb0 f   libucrt:wcsncat_s.obj
 0001:0004be88       strcat_s                   000000014004ce88 f   libucrt:strcat_s.obj
 0001:0004c030       strncat_s                  000000014004d030 f   libucrt:strncat_s.obj
 0001:0004c2b8       ??$__acrt_wcs_to_mbs_cp@U__crt_win32_buffer_no_resizing@@@@YAHQEB_WAEAV?$__crt_win32_buffer@DU__crt_win32_buffer_no_resizing@@@@I@Z 000000014004d2b8 f i libucrt:getmodulefilenamea.obj
 0001:0004c410       ??0?$__crt_win32_buffer@DU__crt_win32_buffer_no_resizing@@@@QEAA@QEAD_K@Z 000000014004d410 f i libucrt:getmodulefilenamea.obj
 0001:0004c434       ??1?$__crt_win32_buffer@DU__crt_win32_buffer_no_resizing@@@@QEAA@XZ 000000014004d434 f i libucrt:getmodulefilenamea.obj
 0001:0004c480       ?__acrt_get_utf8_acp_compatibility_codepage@@YAIXZ 000000014004d480 f i libucrt:getmodulefilenamea.obj
 0001:0004c4dc       ?_deallocate@?$__crt_win32_buffer@DU__crt_win32_buffer_no_resizing@@@@AEAAXXZ 000000014004d4dc f i libucrt:getmodulefilenamea.obj
 0001:0004c4ec       ?allocate@?$__crt_win32_buffer@DU__crt_win32_buffer_no_resizing@@@@QEAAH_K@Z 000000014004d4ec f i libucrt:getmodulefilenamea.obj
 0001:0004c528       ?allocate@__crt_win32_buffer_no_resizing@@SAHQEAPEAX_KAEBV__crt_win32_buffer_empty_debug_info@@@Z 000000014004d528 f i libucrt:getmodulefilenamea.obj
 0001:0004c544       ?capacity@?$__crt_win32_buffer@DU__crt_win32_buffer_no_resizing@@@@QEBA_KXZ 000000014004d544 f i libucrt:getmodulefilenamea.obj
 0001:0004c54c       ?data@?$__crt_win32_buffer@DU__crt_win32_buffer_no_resizing@@@@QEAAPEADXZ 000000014004d54c f i libucrt:getmodulefilenamea.obj
 0001:0004c554       ?deallocate@__crt_win32_buffer_no_resizing@@SAXQEAXAEBV__crt_win32_buffer_empty_debug_info@@@Z 000000014004d554 f i libucrt:getmodulefilenamea.obj
 0001:0004c558       ?debug_info@?$__crt_win32_buffer@DU__crt_win32_buffer_no_resizing@@@@QEBAAEBV__crt_win32_buffer_empty_debug_info@@XZ 000000014004d558 f i libucrt:getmodulefilenamea.obj
 0001:0004c55c       ?set_to_nullptr@?$__crt_win32_buffer@DU__crt_win32_buffer_no_resizing@@@@QEAAXXZ 000000014004d55c f i libucrt:getmodulefilenamea.obj
 0001:0004c578       ?size@?$__crt_win32_buffer@DU__crt_win32_buffer_no_resizing@@@@QEAAX_K@Z 000000014004d578 f i libucrt:getmodulefilenamea.obj
 0001:0004c580       ?size@?$__crt_win32_buffer@DU__crt_win32_buffer_no_resizing@@@@QEBA_KXZ 000000014004d580 f i libucrt:getmodulefilenamea.obj
 0001:0004c588       __acrt_GetModuleFileNameA  000000014004d588 f   libucrt:getmodulefilenamea.obj
 0001:0004c88c       ??$message_box@$$TAEBQEBDAEBQEBDK@?$__crt_char_traits@D@@SAH$$QEA$$TAEBQEBD1$$QEAK@Z 000000014004d88c f i libucrt:crtmbox.obj
 0001:0004c8a4       ??$message_box@$$TAEBQEB_WAEBQEB_WK@?$__crt_char_traits@_W@@SAH$$QEA$$TAEBQEB_W1$$QEAK@Z 000000014004d8a4 f i libucrt:crtmbox.obj
 0001:0004c8bc       ??$message_box@PEAUHWND__@@AEBQEBDAEBQEBDAEBI@?$__crt_char_traits@D@@SAH$$QEAPEAUHWND__@@AEBQEBD1AEBI@Z 000000014004d8bc f i libucrt:crtmbox.obj
 0001:0004c8d4       ??$message_box@PEAUHWND__@@AEBQEB_WAEBQEB_WAEBI@?$__crt_char_traits@_W@@SAH$$QEAPEAUHWND__@@AEBQEB_W1AEBI@Z 000000014004d8d4 f i libucrt:crtmbox.obj
 0001:0004c8ec       ??$output_debug_string@AEBQEBD@?$__crt_char_traits@D@@SAXAEBQEBD@Z 000000014004d8ec f i libucrt:crtmbox.obj
 0001:0004c8f8       ??$output_debug_string@AEBQEB_W@?$__crt_char_traits@_W@@SAXAEBQEB_W@Z 000000014004d8f8 f i libucrt:crtmbox.obj
 0001:0004c904       __acrt_show_narrow_message_box 000000014004d904 f   libucrt:crtmbox.obj
 0001:0004c9d0       __acrt_show_wide_message_box 000000014004d9d0 f   libucrt:crtmbox.obj
 0001:0004cca8       setvbuf                    000000014004dca8 f   libucrt:setvbuf.obj
 0001:0004cd6c       ??$?B$$A6AXH@Z@__crt_fast_encoded_nullptr_t@@QEBAP6AXH@ZXZ 000000014004dd6c f i libucrt:signal.obj
 0001:0004ce00       ??$__crt_fast_decode_pointer@P6AXH@Z@@YAP6AXH@ZQ6AXH@Z@Z 000000014004de00 f i libucrt:signal.obj
 0001:0004ce1c       ??$__crt_fast_encode_pointer@P6AXH@Z@@YAP6AXH@ZQ6AXH@Z@Z 000000014004de1c f i libucrt:signal.obj
 0001:0004cf8c       ?initialize@?$dual_state_global@P6AXH@Z@__crt_state_management@@QEAAXQ6AXH@Z@Z 000000014004df8c f i libucrt:signal.obj
 0001:0004d048       ?value@?$dual_state_global@P6AXH@Z@__crt_state_management@@QEAAAEAP6AXH@ZXZ 000000014004e048 f i libucrt:signal.obj
 0001:0004d04c       __acrt_get_sigabrt_handler 000000014004e04c f   libucrt:signal.obj
 0001:0004d088       __acrt_initialize_signal_handlers 000000014004e088 f   libucrt:signal.obj
 0001:0004d0ac       __fpecode                  000000014004e0ac f   libucrt:signal.obj
 0001:0004d0c4       __pxcptinfoptrs            000000014004e0c4 f   libucrt:signal.obj
 0001:0004d0dc       raise                      000000014004e0dc f   libucrt:signal.obj
 0001:0004d3e0       signal                     000000014004e3e0 f   libucrt:signal.obj
 0001:0004d744       wcsncpy_s                  000000014004e744 f   libucrt:wcsncpy_s.obj
 0001:0004dc5c       ??$__acrt_mbs_to_wcs_cp@U__crt_win32_buffer_internal_dynamic_resizing@@@@YAHQEBDAEAV?$__crt_win32_buffer@_WU__crt_win32_buffer_internal_dynamic_resizing@@@@I@Z 000000014004ec5c f i libucrt:argv_wildcards.obj
 0001:0004de30       ??$__acrt_wcs_to_mbs_cp@U__crt_win32_buffer_internal_dynamic_resizing@@@@YAHQEB_WAEAV?$__crt_win32_buffer@DU__crt_win32_buffer_internal_dynamic_resizing@@@@I@Z 000000014004ee30 f i libucrt:argv_wildcards.obj
 0001:0004f110       ??$tcsncpy_s@AEAPEAD_KAEAPEADAEB_K@?$__crt_char_traits@D@@SAHAEAPEAD$$QEA_K0AEB_K@Z 0000000140050110 f i libucrt:argv_wildcards.obj
 0001:0004f128       ??$tcsncpy_s@AEAPEA_W_KAEAPEA_WAEB_K@?$__crt_char_traits@_W@@SAHAEAPEA_W$$QEA_K0AEB_K@Z 0000000140050128 f i libucrt:argv_wildcards.obj
 0001:0004f140       ??$tcsncpy_s@PEADAEB_KAEBQEBDAEB_K@?$__crt_char_traits@D@@SAH$$QEAPEADAEB_KAEBQEBD1@Z 0000000140050140 f i libucrt:argv_wildcards.obj
 0001:0004f158       ??$tcsncpy_s@PEAD_KAEBQEBDAEB_K@?$__crt_char_traits@D@@SAH$$QEAPEAD$$QEA_KAEBQEBDAEB_K@Z 0000000140050158 f i libucrt:argv_wildcards.obj
 0001:0004f170       ??$tcsncpy_s@PEA_WAEB_KAEBQEB_WAEB_K@?$__crt_char_traits@_W@@SAH$$QEAPEA_WAEB_KAEBQEB_W1@Z 0000000140050170 f i libucrt:argv_wildcards.obj
 0001:0004f188       ??$tcsncpy_s@PEA_W_KAEBQEB_WAEB_K@?$__crt_char_traits@_W@@SAH$$QEAPEA_W$$QEA_KAEBQEB_WAEB_K@Z 0000000140050188 f i libucrt:argv_wildcards.obj
 0001:0004f1a0       ??$tcspbrk@AEAPEADAEAY02$$CBD@?$__crt_char_traits@D@@SAPEADAEAPEADAEAY02$$CBD@Z 00000001400501a0 f i libucrt:argv_wildcards.obj
 0001:0004f1ac       ??$tcspbrk@AEAPEA_WAEAY02$$CB_W@?$__crt_char_traits@_W@@SAPEA_WAEAPEA_WAEAY02$$CB_W@Z 00000001400501ac f i libucrt:argv_wildcards.obj
 0001:0004f1b8       ??0?$__crt_unique_handle_t@U__crt_findfile_traits@@@@QEAA@QEAX@Z 00000001400501b8 f i libucrt:argv_wildcards.obj
 0001:0004f1c0       ??0?$__crt_win32_buffer@DU__crt_win32_buffer_internal_dynamic_resizing@@@@QEAA@XZ 00000001400501c0 f i libucrt:argv_wildcards.obj
 0001:0004f1e4       ??0?$__crt_win32_buffer@_WU__crt_win32_buffer_internal_dynamic_resizing@@@@QEAA@XZ 00000001400501e4 f i libucrt:argv_wildcards.obj
 0001:0004f238       ??1?$__crt_unique_handle_t@U__crt_findfile_traits@@@@QEAA@XZ 0000000140050238 f i libucrt:argv_wildcards.obj
 0001:0004f264       ??1?$__crt_win32_buffer@DU__crt_win32_buffer_internal_dynamic_resizing@@@@QEAA@XZ 0000000140050264 f i libucrt:argv_wildcards.obj
 0001:0004f290       ??1?$__crt_win32_buffer@_WU__crt_win32_buffer_internal_dynamic_resizing@@@@QEAA@XZ 0000000140050290 f i libucrt:argv_wildcards.obj
 0001:0004f458       ?_deallocate@?$__crt_win32_buffer@DU__crt_win32_buffer_internal_dynamic_resizing@@@@AEAAXXZ 0000000140050458 f i libucrt:argv_wildcards.obj
 0001:0004f484       ?_deallocate@?$__crt_win32_buffer@_WU__crt_win32_buffer_internal_dynamic_resizing@@@@AEAAXXZ 0000000140050484 f i libucrt:argv_wildcards.obj
 0001:0004f4b0       ?allocate@?$__crt_win32_buffer@DU__crt_win32_buffer_internal_dynamic_resizing@@@@QEAAH_K@Z 00000001400504b0 f i libucrt:argv_wildcards.obj
 0001:0004f524       ?allocate@?$__crt_win32_buffer@_WU__crt_win32_buffer_internal_dynamic_resizing@@@@QEAAH_K@Z 0000000140050524 f i libucrt:argv_wildcards.obj
 0001:0004f598       ?allocate@__crt_win32_buffer_internal_dynamic_resizing@@SAHQEAPEAX_KAEBV__crt_win32_buffer_empty_debug_info@@@Z 0000000140050598 f i libucrt:argv_wildcards.obj
 0001:0004f800       ?capacity@?$__crt_win32_buffer@DU__crt_win32_buffer_internal_dynamic_resizing@@@@QEBA_KXZ 0000000140050800 f i libucrt:argv_wildcards.obj
 0001:0004f808       ?capacity@?$__crt_win32_buffer@_WU__crt_win32_buffer_internal_dynamic_resizing@@@@QEBA_KXZ 0000000140050808 f i libucrt:argv_wildcards.obj
 0001:0004f810       ?close@?$__crt_unique_handle_t@U__crt_findfile_traits@@@@QEAAXXZ 0000000140050810 f i libucrt:argv_wildcards.obj
 0001:0004f83c       ?close@__crt_findfile_traits@@SA_NPEAX@Z 000000014005083c f i libucrt:argv_wildcards.obj
 0001:0004f858       ?data@?$__crt_win32_buffer@DU__crt_win32_buffer_internal_dynamic_resizing@@@@QEAAPEADXZ 0000000140050858 f i libucrt:argv_wildcards.obj
 0001:0004f860       ?data@?$__crt_win32_buffer@_WU__crt_win32_buffer_internal_dynamic_resizing@@@@QEAAPEA_WXZ 0000000140050860 f i libucrt:argv_wildcards.obj
 0001:0004f868       ?deallocate@__crt_win32_buffer_internal_dynamic_resizing@@SAXQEAXAEBV__crt_win32_buffer_empty_debug_info@@@Z 0000000140050868 f i libucrt:argv_wildcards.obj
 0001:0004f870       ?debug_info@?$__crt_win32_buffer@DU__crt_win32_buffer_internal_dynamic_resizing@@@@QEBAAEBV__crt_win32_buffer_empty_debug_info@@XZ 0000000140050870 f i libucrt:argv_wildcards.obj
 0001:0004f874       ?debug_info@?$__crt_win32_buffer@_WU__crt_win32_buffer_internal_dynamic_resizing@@@@QEBAAEBV__crt_win32_buffer_empty_debug_info@@XZ 0000000140050874 f i libucrt:argv_wildcards.obj
 0001:0004fa78       ?get@?$__crt_unique_handle_t@U__crt_findfile_traits@@@@QEBAPEAXXZ 0000000140050a78 f i libucrt:argv_wildcards.obj
 0001:0004fb44       ?get_invalid_value@__crt_findfile_traits@@SAPEAXXZ 0000000140050b44 f i libucrt:argv_wildcards.obj
 0001:0004fc24       ?set_to_nullptr@?$__crt_win32_buffer@DU__crt_win32_buffer_internal_dynamic_resizing@@@@QEAAXXZ 0000000140050c24 f i libucrt:argv_wildcards.obj
 0001:0004fc64       ?set_to_nullptr@?$__crt_win32_buffer@_WU__crt_win32_buffer_internal_dynamic_resizing@@@@QEAAXXZ 0000000140050c64 f i libucrt:argv_wildcards.obj
 0001:0004fca4       ?size@?$__crt_win32_buffer@DU__crt_win32_buffer_internal_dynamic_resizing@@@@QEAAX_K@Z 0000000140050ca4 f i libucrt:argv_wildcards.obj
 0001:0004fcac       ?size@?$__crt_win32_buffer@_WU__crt_win32_buffer_internal_dynamic_resizing@@@@QEAAX_K@Z 0000000140050cac f i libucrt:argv_wildcards.obj
 0001:0004fcd4       ?strpbrk@@YAPEADQEADQEBD@Z 0000000140050cd4 f i libucrt:argv_wildcards.obj
 0001:0004fcdc       ?wcspbrk@@YAPEA_WPEA_WPEB_W@Z 0000000140050cdc f i libucrt:argv_wildcards.obj
 0001:0004fce4       __acrt_expand_narrow_argv_wildcards 0000000140050ce4 f   libucrt:argv_wildcards.obj
 0001:0004fcec       __acrt_expand_wide_argv_wildcards 0000000140050cec f   libucrt:argv_wildcards.obj
 0001:0004ff4c       ??$initialize_from_array@$$BY10BAA@E@?$dual_state_global@PEAE@__crt_state_management@@QEAAXAEAY10BAA@E@Z 0000000140050f4c f i libucrt:mbctype.obj
 0001:0004ff50       ??$initialize_from_array@$$BY10BAB@E@?$dual_state_global@PEAE@__crt_state_management@@QEAAXAEAY10BAB@E@Z 0000000140050f50 f i libucrt:mbctype.obj
 0001:000501dc       ?dangerous_get_state_array@?$dual_state_global@PEAE@__crt_state_management@@QEAAPEAPEAEXZ 00000001400511dc f i libucrt:mbctype.obj
 0001:000501e0       ?dangerous_get_state_array@?$dual_state_global@PEAU__crt_multibyte_data@@@__crt_state_management@@QEAAPEAPEAU__crt_multibyte_data@@XZ 00000001400511e0 f i libucrt:mbctype.obj
 0001:00050280       ?initialize@?$dual_state_global@PEAU__crt_multibyte_data@@@__crt_state_management@@QEAAXQEAU__crt_multibyte_data@@@Z 0000000140051280 f i libucrt:mbctype.obj
 0001:000508d8       ?value@?$dual_state_global@PEAE@__crt_state_management@@QEAAAEAPEAEXZ 00000001400518d8 f i libucrt:mbctype.obj
 0001:000508dc       __acrt_initialize_multibyte 00000001400518dc f   libucrt:mbctype.obj
 0001:00050954       __acrt_update_thread_multibyte_data 0000000140051954 f   libucrt:mbctype.obj
 0001:00050978       __p__mbcasemap             0000000140051978 f   libucrt:mbctype.obj
 0001:00050984       __p__mbctype               0000000140051984 f   libucrt:mbctype.obj
 0001:00050990       _getmbcp                   0000000140051990 f   libucrt:mbctype.obj
 0001:000509d8       _setmbcp                   00000001400519d8 f   libucrt:mbctype.obj
 0001:00050a08       _setmbcp_nolock            0000000140051a08 f   libucrt:mbctype.obj
 0001:00050eac       _ismbbalnum                0000000140051eac f   libucrt:ismbbyte.obj
 0001:00050ec8       _ismbbalnum_l              0000000140051ec8 f   libucrt:ismbbyte.obj
 0001:00050ee8       _ismbbalpha                0000000140051ee8 f   libucrt:ismbbyte.obj
 0001:00050f04       _ismbbalpha_l              0000000140051f04 f   libucrt:ismbbyte.obj
 0001:00050f24       _ismbbblank                0000000140051f24 f   libucrt:ismbbyte.obj
 0001:00050f48       _ismbbblank_l              0000000140051f48 f   libucrt:ismbbyte.obj
 0001:00050f70       _ismbbgraph                0000000140051f70 f   libucrt:ismbbyte.obj
 0001:00050f8c       _ismbbgraph_l              0000000140051f8c f   libucrt:ismbbyte.obj
 0001:00050fac       _ismbbkalnum               0000000140051fac f   libucrt:ismbbyte.obj
 0001:00050fc4       _ismbbkalnum_l             0000000140051fc4 f   libucrt:ismbbyte.obj
 0001:00050fe0       _ismbbkana                 0000000140051fe0 f   libucrt:ismbbyte.obj
 0001:00050fe8       _ismbbkana_l               0000000140051fe8 f   libucrt:ismbbyte.obj
 0001:00051068       _ismbbkprint               0000000140052068 f   libucrt:ismbbyte.obj
 0001:00051080       _ismbbkprint_l             0000000140052080 f   libucrt:ismbbyte.obj
 0001:0005109c       _ismbbkpunct               000000014005209c f   libucrt:ismbbyte.obj
 0001:000510b4       _ismbbkpunct_l             00000001400520b4 f   libucrt:ismbbyte.obj
 0001:000510d0       _ismbblead                 00000001400520d0 f   libucrt:ismbbyte.obj
 0001:000510e8       _ismbblead_l               00000001400520e8 f   libucrt:ismbbyte.obj
 0001:00051104       _ismbbprint                0000000140052104 f   libucrt:ismbbyte.obj
 0001:00051120       _ismbbprint_l              0000000140052120 f   libucrt:ismbbyte.obj
 0001:00051140       _ismbbpunct                0000000140052140 f   libucrt:ismbbyte.obj
 0001:00051158       _ismbbpunct_l              0000000140052158 f   libucrt:ismbbyte.obj
 0001:00051174       _ismbbtrail                0000000140052174 f   libucrt:ismbbyte.obj
 0001:0005118c       _ismbbtrail_l              000000014005218c f   libucrt:ismbbyte.obj
 0001:00051214       __acrt_MultiByteToWideChar 0000000140052214 f   libucrt:multibytetowidechar.obj
 0001:000512dc       __acrt_WideCharToMultiByte 00000001400522dc f   libucrt:widechartomultibyte.obj
 0001:00051478       __dcrt_get_narrow_environment_from_os 0000000140052478 f   libucrt:get_environment_from_os.obj
 0001:000515bc       __dcrt_get_wide_environment_from_os 00000001400525bc f   libucrt:get_environment_from_os.obj
 0001:00052260       ??$get_or_create_environment_nolock@$$V@?$__crt_char_traits@D@@SAPEAPEADXZ 0000000140053260 f i libucrt:setenv.obj
 0001:00052268       ??$get_or_create_environment_nolock@$$V@?$__crt_char_traits@_W@@SAPEAPEA_WXZ 0000000140053268 f i libucrt:setenv.obj
 0001:00052270       ??$set_environment_variable@AEBQEADQEAD@?$__crt_char_traits@D@@SAHAEBQEAD$$QEBQEAD@Z 0000000140053270 f i libucrt:setenv.obj
 0001:00052280       ??$set_environment_variable@AEBQEA_WQEA_W@?$__crt_char_traits@_W@@SAHAEBQEA_W$$QEBQEA_W@Z 0000000140053280 f i libucrt:setenv.obj
 0001:00052290       ??$tcschr@AEBQEADD@?$__crt_char_traits@D@@SAPEADAEBQEAD$$QEAD@Z 0000000140053290 f i libucrt:setenv.obj
 0001:000522a0       ??$tcschr@AEBQEA_WD@?$__crt_char_traits@_W@@SAPEA_WAEBQEA_W$$QEAD@Z 00000001400532a0 f i libucrt:setenv.obj
 0001:000522b0       ??$tcscpy_s@AEAPEADAEB_KAEAPEAD@?$__crt_char_traits@D@@SAHAEAPEADAEB_K0@Z 00000001400532b0 f i libucrt:setenv.obj
 0001:000522c4       ??$tcscpy_s@AEAPEA_WAEB_KAEAPEA_W@?$__crt_char_traits@_W@@SAHAEAPEA_WAEB_K0@Z 00000001400532c4 f i libucrt:setenv.obj
 0001:000522d8       ??$tcscpy_s@AEBQEADAEB_KAEBQEAD@?$__crt_char_traits@D@@SAHAEBQEADAEB_K0@Z 00000001400532d8 f i libucrt:setenv.obj
 0001:000522ec       ??$tcscpy_s@AEBQEA_WAEB_KAEBQEA_W@?$__crt_char_traits@_W@@SAHAEBQEA_WAEB_K0@Z 00000001400532ec f i libucrt:setenv.obj
 0001:00052300       ??$tcsnicoll@AEBQEBDAEAPEADAEB_K@?$__crt_char_traits@D@@SAHAEBQEBDAEAPEADAEB_K@Z 0000000140053300 f i libucrt:setenv.obj
 0001:00052314       ??$tcsnicoll@AEBQEB_WAEAPEA_WAEB_K@?$__crt_char_traits@_W@@SAHAEBQEB_WAEAPEA_WAEB_K@Z 0000000140053314 f i libucrt:setenv.obj
 0001:00052370       ?strchr@@YAPEADQEADH@Z     0000000140053370 f i libucrt:setenv.obj
 0001:00052378       ?wcschr@@YAPEA_WPEA_W_W@Z  0000000140053378 f i libucrt:setenv.obj
 0001:00052380       __dcrt_set_variable_in_narrow_environment_nolock 0000000140053380 f   libucrt:setenv.obj
 0001:00052388       __dcrt_set_variable_in_wide_environment_nolock 0000000140053388 f   libucrt:setenv.obj
 0001:00052390       __acrt_initialize_locks    0000000140053390 f   libucrt:locks.obj
 0001:000523ec       __acrt_lock                00000001400533ec f   libucrt:locks.obj
 0001:0005240c       __acrt_uninitialize_locks  000000014005340c f   libucrt:locks.obj
 0001:00052450       __acrt_unlock              0000000140053450 f   libucrt:locks.obj
 0001:00052470       _lock_locales              0000000140053470 f   libucrt:locks.obj
 0001:00052494       _unlock_locales            0000000140053494 f   libucrt:locks.obj
 0001:000526b0       __acrt_get_begin_thread_init_policy 00000001400536b0 f   libucrt:win_policies.obj
 0001:00052718       __acrt_get_developer_information_policy 0000000140053718 f   libucrt:win_policies.obj
 0001:00052780       __acrt_get_process_end_policy 0000000140053780 f   libucrt:win_policies.obj
 0001:000527cc       __acrt_get_windowing_model_policy 00000001400537cc f   libucrt:win_policies.obj
 0001:00052854       ??$?RU__crt_lowio_handle_data@@@__crt_internal_free_policy@@QEBAXQEBU__crt_lowio_handle_data@@@Z 0000000140053854 f i libucrt:osfinfo.obj
 0001:00052860       ??0?$__crt_unique_heap_ptr@U__crt_lowio_handle_data@@U__crt_internal_free_policy@@@@QEAA@QEAU__crt_lowio_handle_data@@@Z 0000000140053860 f i libucrt:osfinfo.obj
 0001:00052868       ??1?$__crt_unique_heap_ptr@U__crt_lowio_handle_data@@U__crt_internal_free_policy@@@@QEAA@XZ 0000000140053868 f i libucrt:osfinfo.obj
 0001:0005288c       ??B?$__crt_unique_heap_ptr@U__crt_lowio_handle_data@@U__crt_internal_free_policy@@@@QEBA_NXZ 000000014005388c f i libucrt:osfinfo.obj
 0001:00052898       ?detach@?$__crt_unique_heap_ptr@U__crt_lowio_handle_data@@U__crt_internal_free_policy@@@@QEAAPEAU__crt_lowio_handle_data@@XZ 0000000140053898 f i libucrt:osfinfo.obj
 0001:000528a4       ?get@?$__crt_unique_heap_ptr@U__crt_lowio_handle_data@@U__crt_internal_free_policy@@@@QEBAPEAU__crt_lowio_handle_data@@XZ 00000001400538a4 f i libucrt:osfinfo.obj
 0001:000528a8       ?is_valid@?$__crt_unique_heap_ptr@U__crt_lowio_handle_data@@U__crt_internal_free_policy@@@@QEBA_NXZ 00000001400538a8 f i libucrt:osfinfo.obj
 0001:000528b4       ?release@?$__crt_unique_heap_ptr@U__crt_lowio_handle_data@@U__crt_internal_free_policy@@@@QEAAXXZ 00000001400538b4 f i libucrt:osfinfo.obj
 0001:000528d8       __acrt_lowio_create_handle_array 00000001400538d8 f   libucrt:osfinfo.obj
 0001:000529a8       __acrt_lowio_destroy_handle_array 00000001400539a8 f   libucrt:osfinfo.obj
 0001:00052a0c       __acrt_lowio_ensure_fh_exists 0000000140053a0c f   libucrt:osfinfo.obj
 0001:00052ae0       __acrt_lowio_lock_fh       0000000140053ae0 f   libucrt:osfinfo.obj
 0001:00052b10       __acrt_lowio_set_os_handle 0000000140053b10 f   libucrt:osfinfo.obj
 0001:00052c00       __acrt_lowio_unlock_fh     0000000140053c00 f   libucrt:osfinfo.obj
 0001:00052c30       _alloc_osfhnd              0000000140053c30 f   libucrt:osfinfo.obj
 0001:00052dc0       _free_osfhnd               0000000140053dc0 f   libucrt:osfinfo.obj
 0001:00052ea8       _get_osfhandle             0000000140053ea8 f   libucrt:osfinfo.obj
 0001:00052f3c       _open_osfhandle            0000000140053f3c f   libucrt:osfinfo.obj
 0001:00053080       ?dangerous_get_state_array@?$dual_state_global@H@__crt_state_management@@QEAAPEAHXZ 0000000140054080 f i libucrt:txtmode.obj
 0001:00053084       __acrt_initialize_fmode    0000000140054084 f   libucrt:txtmode.obj
 0001:000530a4       __p__fmode                 00000001400540a4 f   libucrt:txtmode.obj
 0001:000530b0       ??$?RG@__crt_internal_free_policy@@QEBAXQEBG@Z 00000001400540b0 f i libucrt:initctype.obj
 0001:000530bc       ??$?RJ@__crt_internal_free_policy@@QEBAXQEBJ@Z 00000001400540bc f i libucrt:initctype.obj
 0001:000530c8       ??0?$__crt_unique_heap_ptr@GU__crt_internal_free_policy@@@@QEAA@QEAG@Z 00000001400540c8 f i libucrt:initctype.obj
 0001:000530d0       ??0?$__crt_unique_heap_ptr@JU__crt_internal_free_policy@@@@QEAA@QEAJ@Z 00000001400540d0 f i libucrt:initctype.obj
 0001:000530d8       ??1?$__crt_unique_heap_ptr@GU__crt_internal_free_policy@@@@QEAA@XZ 00000001400540d8 f i libucrt:initctype.obj
 0001:000530fc       ??1?$__crt_unique_heap_ptr@JU__crt_internal_free_policy@@@@QEAA@XZ 00000001400540fc f i libucrt:initctype.obj
 0001:00053120       ?detach@?$__crt_unique_heap_ptr@GU__crt_internal_free_policy@@@@QEAAPEAGXZ 0000000140054120 f i libucrt:initctype.obj
 0001:0005312c       ?detach@?$__crt_unique_heap_ptr@JU__crt_internal_free_policy@@@@QEAAPEAJXZ 000000014005412c f i libucrt:initctype.obj
 0001:00053138       ?release@?$__crt_unique_heap_ptr@GU__crt_internal_free_policy@@@@QEAAXXZ 0000000140054138 f i libucrt:initctype.obj
 0001:0005315c       ?release@?$__crt_unique_heap_ptr@JU__crt_internal_free_policy@@@@QEAAXXZ 000000014005415c f i libucrt:initctype.obj
 0001:00053180       ___lc_codepage_func        0000000140054180 f   libucrt:initctype.obj
 0001:000531bc       ___lc_collate_cp_func      00000001400541bc f   libucrt:initctype.obj
 0001:000531f8       ___lc_locale_name_func     00000001400541f8 f   libucrt:initctype.obj
 0001:00053238       ___mb_cur_max_func         0000000140054238 f   libucrt:initctype.obj
 0001:00053274       ___mb_cur_max_l_func       0000000140054274 f   libucrt:initctype.obj
 0001:00053288       __acrt_locale_initialize_ctype 0000000140054288 f   libucrt:initctype.obj
 0001:00053a84       ??$?RUlconv@@@__crt_internal_free_policy@@QEBAXQEBUlconv@@@Z 0000000140054a84 f i libucrt:initmon.obj
 0001:00053a90       ??0?$__crt_unique_heap_ptr@Ulconv@@U__crt_internal_free_policy@@@@QEAA@QEAUlconv@@@Z 0000000140054a90 f i libucrt:initmon.obj
 0001:00053a98       ??1?$__crt_unique_heap_ptr@Ulconv@@U__crt_internal_free_policy@@@@QEAA@XZ 0000000140054a98 f i libucrt:initmon.obj
 0001:00053abc       ?detach@?$__crt_unique_heap_ptr@Ulconv@@U__crt_internal_free_policy@@@@QEAAPEAUlconv@@XZ 0000000140054abc f i libucrt:initmon.obj
 0001:00053ac8       ?release@?$__crt_unique_heap_ptr@Ulconv@@U__crt_internal_free_policy@@@@QEAAXXZ 0000000140054ac8 f i libucrt:initmon.obj
 0001:00053aec       __acrt_locale_free_monetary 0000000140054aec f   libucrt:initmon.obj
 0001:00053c38       __acrt_locale_initialize_monetary 0000000140054c38 f   libucrt:initmon.obj
 0001:000542f8       __acrt_locale_free_numeric 00000001400552f8 f   libucrt:initnum.obj
 0001:00054380       __acrt_locale_initialize_numeric 0000000140055380 f   libucrt:initnum.obj
 0001:00054760       ??$?RU__crt_lc_time_data@@@__crt_internal_free_policy@@QEBAXQEBU__crt_lc_time_data@@@Z 0000000140055760 f i libucrt:inittime.obj
 0001:000547b4       ??0?$__crt_unique_heap_ptr@U__crt_lc_time_data@@U__crt_internal_free_policy@@@@QEAA@QEAU__crt_lc_time_data@@@Z 00000001400557b4 f i libucrt:inittime.obj
 0001:000547bc       ??1?$__crt_unique_heap_ptr@U__crt_lc_time_data@@U__crt_internal_free_policy@@@@QEAA@XZ 00000001400557bc f i libucrt:inittime.obj
 0001:000547e0       ??B?$__crt_unique_heap_ptr@U__crt_lc_time_data@@U__crt_internal_free_policy@@@@QEBA_NXZ 00000001400557e0 f i libucrt:inittime.obj
 0001:000547ec       ?detach@?$__crt_unique_heap_ptr@U__crt_lc_time_data@@U__crt_internal_free_policy@@@@QEAAPEAU__crt_lc_time_data@@XZ 00000001400557ec f i libucrt:inittime.obj
 0001:00054868       ?get@?$__crt_unique_heap_ptr@U__crt_lc_time_data@@U__crt_internal_free_policy@@@@QEBAPEAU__crt_lc_time_data@@XZ 0000000140055868 f i libucrt:inittime.obj
 0001:00054d10       ?is_valid@?$__crt_unique_heap_ptr@U__crt_lc_time_data@@U__crt_internal_free_policy@@@@QEBA_NXZ 0000000140055d10 f i libucrt:inittime.obj
 0001:00054d1c       ?release@?$__crt_unique_heap_ptr@U__crt_lc_time_data@@U__crt_internal_free_policy@@@@QEAAXXZ 0000000140055d1c f i libucrt:inittime.obj
 0001:00054d40       __acrt_locale_free_time    0000000140055d40 f   libucrt:inittime.obj
 0001:00054e8c       __acrt_locale_initialize_time 0000000140055e8c f   libucrt:inittime.obj
 0001:00054f50       __pctype_func              0000000140055f50 f   libucrt:ctype.obj
 0001:00054f8c       __pwctype_func             0000000140055f8c f   libucrt:ctype.obj
 0001:00054f98       wcscspn                    0000000140055f98 f   libucrt:wcscspn.obj
 0001:00054fe8       wcspbrk                    0000000140055fe8 f   libucrt:wcspbrk.obj
 0001:0005502c       ??0?$__crt_scoped_stack_ptr@_W@@QEAA@U?$__crt_scoped_stack_ptr_tag@_W@@@Z 000000014005602c f i libucrt:getstringtypea.obj
 0001:00055034       ??0?$__crt_scoped_stack_ptr_tag@_W@@QEAA@QEA_W@Z 0000000140056034 f i libucrt:getstringtypea.obj
 0001:0005503c       ??1?$__crt_scoped_stack_ptr@_W@@QEAA@XZ 000000014005603c f i libucrt:getstringtypea.obj
 0001:00055068       ?get@?$__crt_scoped_stack_ptr@_W@@QEBAPEA_WXZ 0000000140056068 f i libucrt:getstringtypea.obj
 0001:0005506c       _MallocaComputeSize        000000014005606c f i libucrt:getstringtypea.obj
 0001:00055080       _MarkAllocaS               0000000140056080 f i libucrt:getstringtypea.obj
 0001:00055094       __acrt_GetStringTypeA      0000000140056094 f   libucrt:getstringtypea.obj
 0001:00055284       _freea_crt                 0000000140056284 f i libucrt:getstringtypea.obj
 0001:000552ac       __acrt_add_locale_ref      00000001400562ac f   libucrt:locale_refcounting.obj
 0001:0005535c       __acrt_free_locale         000000014005635c f   libucrt:locale_refcounting.obj
 0001:00055530       __acrt_locale_add_lc_time_reference 0000000140056530 f   libucrt:locale_refcounting.obj
 0001:00055560       __acrt_locale_free_lc_time_if_unreferenced 0000000140056560 f   libucrt:locale_refcounting.obj
 0001:000555a4       __acrt_locale_release_lc_time_reference 00000001400565a4 f   libucrt:locale_refcounting.obj
 0001:000555d4       __acrt_release_locale_ref  00000001400565d4 f   libucrt:locale_refcounting.obj
 0001:000556a8       __acrt_update_thread_locale_data 00000001400566a8 f   libucrt:locale_refcounting.obj
 0001:00055734       _updatetlocinfoEx_nolock   0000000140056734 f   libucrt:locale_refcounting.obj
 0001:00056218       __acrt_get_qualified_locale 0000000140057218 f   libucrt:get_qualified_locale.obj
 0001:00056fd8       __acrt_get_qualified_locale_downlevel 0000000140057fd8 f   libucrt:getqloc_downlevel.obj
 0001:000572f8       localeconv                 00000001400582f8 f   libucrt:localeconv.obj
 0001:00057338       _recalloc                  0000000140058338 f   libucrt:recalloc.obj
 0001:00057340       _recalloc_base             0000000140058340 f   libucrt:recalloc.obj
 0001:000573fc       __acrt_getheap             00000001400583fc f   libucrt:heap_handle.obj
 0001:00057408       __acrt_initialize_heap     0000000140058408 f   libucrt:heap_handle.obj
 0001:0005742c       __acrt_uninitialize_heap   000000014005842c f   libucrt:heap_handle.obj
 0001:0005743c       _get_heap_handle           000000014005843c f   libucrt:heap_handle.obj
 0001:00057448       __acrt_execute_initializers 0000000140058448 f   libucrt:shared_initialization.obj
 0001:000574e8       __acrt_execute_uninitializers 00000001400584e8 f   libucrt:shared_initialization.obj
 0001:00057534       ??$?B$$A6AH_K@Z@__crt_fast_encoded_nullptr_t@@QEBAP6AH_K@ZXZ 0000000140058534 f i libucrt:new_handler.obj
 0001:00057540       ??$__crt_fast_decode_pointer@P6AH_K@Z@@YAP6AH_K@ZQ6AH0@Z@Z 0000000140058540 f i libucrt:new_handler.obj
 0001:0005755c       ??$__crt_fast_encode_pointer@P6AH_K@Z@@YAP6AH_K@ZQ6AH0@Z@Z 000000014005855c f i libucrt:new_handler.obj
 0001:00057584       ?_set_new_handler@@YAP6AH_K@ZH@Z 0000000140058584 f   libucrt:new_handler.obj
 0001:00057594       ?initialize@?$dual_state_global@P6AH_K@Z@__crt_state_management@@QEAAXQ6AH_K@Z@Z 0000000140058594 f i libucrt:new_handler.obj
 0001:000575c4       ?value@?$dual_state_global@P6AH_K@Z@__crt_state_management@@QEAAAEAP6AH_K@ZXZ 00000001400585c4 f i libucrt:new_handler.obj
 0001:000575c8       __acrt_initialize_new_handler 00000001400585c8 f   libucrt:new_handler.obj
 0001:000575d4       _callnewh                  00000001400585d4 f   libucrt:new_handler.obj
 0001:00057610       _query_new_handler         0000000140058610 f   libucrt:new_handler.obj
 0001:00057654       _set_new_handler           0000000140058654 f   libucrt:new_handler.obj
 0001:000576c4       _iswctype_l                00000001400586c4 f   libucrt:iswctype.obj
 0001:000576cc       iswctype                   00000001400586cc f   libucrt:iswctype.obj
 0001:00057754       _isctype                   0000000140058754 f   libucrt:isctype.obj
 0001:00057790       _isctype_l                 0000000140058790 f   libucrt:isctype.obj
 0001:000578dc       _isleadbyte_fast_internal  00000001400588dc f i libucrt:isctype.obj
 0001:00057a04       __acrt_DownlevelLCIDToLocaleName 0000000140058a04 f   libucrt:lcidtoname_downlevel.obj
 0001:00057b38       __acrt_DownlevelLocaleNameToLCID 0000000140058b38 f   libucrt:lcidtoname_downlevel.obj
 0001:00057c14       _fclose_nolock             0000000140058c14 f   libucrt:fclose.obj
 0001:00057cb8       fclose                     0000000140058cb8 f   libucrt:fclose.obj
 0001:00057ec8       _commit                    0000000140058ec8 f   libucrt:commit.obj
 0001:00058c10       _utf8_no_of_trailbytes     0000000140059c10 f i libucrt:write.obj
 0001:00058c24       _write                     0000000140059c24 f   libucrt:write.obj
 0001:00058d4c       _write_nolock              0000000140059d4c f   libucrt:write.obj
 0001:00059aec       _read                      000000014005aaec f   libucrt:read.obj
 0001:00059c4c       _read_nolock               000000014005ac4c f   libucrt:read.obj
 0001:0005a1b8       __acrt_stdio_allocate_buffer_nolock 000000014005b1b8 f   libucrt:_getbuf.obj
 0001:0005a240       __iswcsym                  000000014005b240 f i libucrt:_wctype.obj
 0001:0005a278       __iswcsymf                 000000014005b278 f i libucrt:_wctype.obj
 0001:0005a2b0       _isleadbyte_l              000000014005b2b0 f i libucrt:_wctype.obj
 0001:0005a310       _iswalnum_l                000000014005b310 f i libucrt:_wctype.obj
 0001:0005a31c       _iswalpha_l                000000014005b31c f i libucrt:_wctype.obj
 0001:0005a328       _iswblank_l                000000014005b328 f i libucrt:_wctype.obj
 0001:0005a344       _iswcntrl_l                000000014005b344 f i libucrt:_wctype.obj
 0001:0005a350       _iswcsym_l                 000000014005b350 f i libucrt:_wctype.obj
 0001:0005a388       _iswcsymf_l                000000014005b388 f i libucrt:_wctype.obj
 0001:0005a3c0       _iswdigit_l                000000014005b3c0 f i libucrt:_wctype.obj
 0001:0005a3cc       _iswgraph_l                000000014005b3cc f i libucrt:_wctype.obj
 0001:0005a3d8       _iswlower_l                000000014005b3d8 f i libucrt:_wctype.obj
 0001:0005a3e4       _iswprint_l                000000014005b3e4 f i libucrt:_wctype.obj
 0001:0005a3f0       _iswpunct_l                000000014005b3f0 f i libucrt:_wctype.obj
 0001:0005a3fc       _iswspace_l                000000014005b3fc f i libucrt:_wctype.obj
 0001:0005a408       _iswupper_l                000000014005b408 f i libucrt:_wctype.obj
 0001:0005a414       _iswxdigit_l               000000014005b414 f i libucrt:_wctype.obj
 0001:0005a420       isleadbyte                 000000014005b420 f i libucrt:_wctype.obj
 0001:0005a480       iswalnum                   000000014005b480 f i libucrt:_wctype.obj
 0001:0005a48c       iswalpha                   000000014005b48c f i libucrt:_wctype.obj
 0001:0005a498       iswascii                   000000014005b498 f i libucrt:_wctype.obj
 0001:0005a4ac       iswblank                   000000014005b4ac f i libucrt:_wctype.obj
 0001:0005a4c8       iswcntrl                   000000014005b4c8 f i libucrt:_wctype.obj
 0001:0005a4d4       iswdigit                   000000014005b4d4 f i libucrt:_wctype.obj
 0001:0005a4e0       iswgraph                   000000014005b4e0 f i libucrt:_wctype.obj
 0001:0005a4ec       iswlower                   000000014005b4ec f i libucrt:_wctype.obj
 0001:0005a4f8       iswprint                   000000014005b4f8 f i libucrt:_wctype.obj
 0001:0005a504       iswpunct                   000000014005b504 f i libucrt:_wctype.obj
 0001:0005a510       iswspace                   000000014005b510 f i libucrt:_wctype.obj
 0001:0005a51c       iswupper                   000000014005b51c f i libucrt:_wctype.obj
 0001:0005a528       iswxdigit                  000000014005b528 f i libucrt:_wctype.obj
 0001:0005a564       ?__mbrtowc_utf8@__crt_mbstring@@YA_KPEA_WPEBD_KPEAU_Mbstatet@@@Z 000000014005b564 f   libucrt:mbrtowc.obj
 0001:0005a5ac       ?__mbsrtowcs_utf8@__crt_mbstring@@YA_KPEA_WPEAPEBD_KPEAU_Mbstatet@@@Z 000000014005b5ac f   libucrt:mbrtowc.obj
 0001:0005ac20       btowc                      000000014005bc20 f   libucrt:mbrtowc.obj
 0001:0005aca0       mbrlen                     000000014005bca0 f   libucrt:mbrtowc.obj
 0001:0005acf0       mbrtowc                    000000014005bcf0 f   libucrt:mbrtowc.obj
 0001:0005ad68       mbsrtowcs                  000000014005bd68 f   libucrt:mbrtowc.obj
 0001:0005ad70       mbsrtowcs_s                000000014005bd70 f   libucrt:mbrtowc.obj
 0001:0005ae68       ?__c32rtomb_utf8@__crt_mbstring@@YA_KPEAD_UPEAU_Mbstatet@@@Z 000000014005be68 f   libucrt:c32rtomb.obj
 0001:0005af48       ?reset_and_return@__crt_mbstring@@YA_K_KPEAU_Mbstatet@@@Z 000000014005bf48 f i libucrt:c32rtomb.obj
 0001:0005af54       ?return_illegal_sequence@__crt_mbstring@@YA_KPEAU_Mbstatet@@@Z 000000014005bf54 f i libucrt:c32rtomb.obj
 0001:0005af78       c32rtomb                   000000014005bf78 f   libucrt:c32rtomb.obj
 0001:0005b05c       __acrt_fp_strflt_to_string 000000014005c05c f   libucrt:_fptostr.obj
 0001:0005c7c0       ??0big_integer@__crt_strtox@@QEAA@AEBU01@@Z 000000014005d7c0 f i libucrt:cfout.obj
 0001:0005c800       ??0big_integer@__crt_strtox@@QEAA@XZ 000000014005d800 f i libucrt:cfout.obj
 0001:0005c880       ??4big_integer@__crt_strtox@@QEAAAEAU01@AEBU01@@Z 000000014005d880 f i libucrt:cfout.obj
 0001:0005c8c0       ??8__crt_strtox@@YA_NAEBUbig_integer@0@0@Z 000000014005d8c0 f i libucrt:cfout.obj
 0001:0005c900       ??9__crt_strtox@@YA_NAEBUbig_integer@0@0@Z 000000014005d900 f i libucrt:cfout.obj
 0001:0005c950       ?add_carry@__crt_strtox@@YAIAEAIII@Z 000000014005d950 f i libucrt:cfout.obj
 0001:0005c970       ?add_multiply_carry@__crt_strtox@@YAIAEAIIII@Z 000000014005d970 f i libucrt:cfout.obj
 0001:0005c9a0       ?bit_scan_reverse@__crt_strtox@@YAII@Z 000000014005d9a0 f i libucrt:cfout.obj
 0001:0005c9c0       ?count_sequential_high_zeroes@__crt_strtox@@YAII@Z 000000014005d9c0 f i libucrt:cfout.obj
 0001:0005c9e0       ?divide@__crt_strtox@@YA_KAEAUbig_integer@1@AEBU21@@Z 000000014005d9e0 f i libucrt:cfout.obj
 0001:0005cf20       ?is_zero@__crt_strtox@@YA_NAEBUbig_integer@1@@Z 000000014005df20 f i libucrt:cfout.obj
 0001:0005cf30       ?make_big_integer@__crt_strtox@@YA?AUbig_integer@1@_K@Z 000000014005df30 f i libucrt:cfout.obj
 0001:0005cf50       ?make_big_integer_power_of_two@__crt_strtox@@YA?AUbig_integer@1@I@Z 000000014005df50 f i libucrt:cfout.obj
 0001:0005cfd0       ?multiply@__crt_strtox@@YA_NAEAUbig_integer@1@AEBU21@@Z 000000014005dfd0 f i libucrt:cfout.obj
 0001:0005d470       ?multiply@__crt_strtox@@YA_NAEAUbig_integer@1@I@Z 000000014005e470 f i libucrt:cfout.obj
 0001:0005d5a0       ?multiply_64_32@__crt_strtox@@YA_K_KI@Z 000000014005e5a0 f i libucrt:cfout.obj
 0001:0005d5b0       ?multiply_by_power_of_ten@__crt_strtox@@YA_NAEAUbig_integer@1@I@Z 000000014005e5b0 f i libucrt:cfout.obj
 0001:0005dcd0       ?multiply_core@__crt_strtox@@YAIQEAIII@Z 000000014005ecd0 f i libucrt:cfout.obj
 0001:0005dd30       ?shift_left@__crt_strtox@@YA_NAEAUbig_integer@1@I@Z 000000014005ed30 f i libucrt:cfout.obj
 0001:0005df0c       __acrt_fltout              000000014005ef0c f   libucrt:cfout.obj
 0001:0005f68c       __fpe_flt_rounds           000000014006068c f   libucrt:fegetround.obj
 0001:0005f6e4       fegetround                 00000001400606e4 f   libucrt:fegetround.obj
 0001:0005fb14       ?has_big_buffer@__crt_stdio_stream@@QEBA_NXZ 0000000140060b14 f i libucrt:_flsbuf.obj
 0001:0005fbbc       __acrt_stdio_flush_and_write_narrow_nolock 0000000140060bbc f   libucrt:_flsbuf.obj
 0001:0005fca0       __acrt_stdio_flush_and_write_wide_nolock 0000000140060ca0 f   libucrt:_flsbuf.obj
 0001:0005fd8c       _isatty                    0000000140060d8c f   libucrt:isatty.obj
 0001:0005fe04       __acrt_OutputDebugStringA  0000000140060e04 f   libucrt:outputdebugstringa.obj
 0001:00060000       qsort                      0000000140061000 f   libucrt:qsort.obj
 0001:0006057c       strncpy_s                  000000014006157c f   libucrt:strncpy_s.obj
 0001:00060750       strpbrk                    0000000140061750 f   libucrt:strpbrk.obj
 0001:00060c0c       _mbsdec                    0000000140061c0c f   libucrt:mbsdec.obj
 0001:00060c18       _mbsdec_l                  0000000140061c18 f   libucrt:mbsdec.obj
 0001:00060cd4       ??B?$__crt_scoped_stack_ptr@_W@@QEBA_NXZ 0000000140061cd4 f i libucrt:lcmapstringa.obj
 0001:000610bc       __acrt_LCMapStringA        00000001400620bc f   libucrt:lcmapstringa.obj
 0001:00061194       _wcsnicoll                 0000000140062194 f   libucrt:wcsnicol.obj
 0001:000611f8       _wcsnicoll_l               00000001400621f8 f   libucrt:wcsnicol.obj
 0001:00061324       _strnicoll                 0000000140062324 f   libucrt:strnicol.obj
 0001:00061340       _strnicoll_l               0000000140062340 f   libucrt:strnicol.obj
 0001:00061688       __acrt_SetEnvironmentVariableA 0000000140062688 f   libucrt:setenvironmentvariablea.obj
 0001:00061a5c       __acrt_GetLocaleInfoA      0000000140062a5c f   libucrt:getlocaleinfoa.obj
 0001:00061c98       __ascii_wcsicmp            0000000140062c98 f   libucrt:wcsicmp.obj
 0001:00061ce8       _towlower_fast_internal    0000000140062ce8 f i libucrt:wcsicmp.obj
 0001:00061d18       _towlower_internal         0000000140062d18 f i libucrt:wcsicmp.obj
 0001:00061d5c       _wcsicmp                   0000000140062d5c f   libucrt:wcsicmp.obj
 0001:00061db4       _wcsicmp_l                 0000000140062db4 f   libucrt:wcsicmp.obj
 0001:00061f24       __ascii_wcsnicmp           0000000140062f24 f   libucrt:wcsnicmp.obj
 0001:00061f84       _wcsnicmp                  0000000140062f84 f   libucrt:wcsnicmp.obj
 0001:00061fdc       _wcsnicmp_l                0000000140062fdc f   libucrt:wcsnicmp.obj
 0001:00062180       wcscmp                     0000000140063180 f   libucrt:wcscmp.obj
 0001:000621c4       _msize                     00000001400631c4 f   libucrt:msize.obj
 0001:000621cc       _msize_base                00000001400631cc f   libucrt:msize.obj
 0001:00062214       _realloc_base              0000000140063214 f   libucrt:realloc_base.obj
 0001:000622ac       __acrt_GetStringTypeW      00000001400632ac f   libucrt:getstringtypew.obj
 0001:000624a0       _close                     00000001400634a0 f   libucrt:close.obj
 0001:0006256c       _close_nolock              000000014006356c f   libucrt:close.obj
 0001:00062658       ??$?RU__crt_stdio_stream_data@@@__crt_internal_free_policy@@QEBAXQEBU__crt_stdio_stream_data@@@Z 0000000140063658 f i libucrt:stream.obj
 0001:00062664       ??0?$__crt_unique_heap_ptr@U__crt_stdio_stream_data@@U__crt_internal_free_policy@@@@QEAA@QEAU__crt_stdio_stream_data@@@Z 0000000140063664 f i libucrt:stream.obj
 0001:0006266c       ??0__crt_stdio_stream@@QEAA@XZ 000000014006366c f i libucrt:stream.obj
 0001:00062678       ??1?$__crt_unique_heap_ptr@U__crt_stdio_stream_data@@U__crt_internal_free_policy@@@@QEAA@XZ 0000000140063678 f i libucrt:stream.obj
 0001:0006269c       ?__acrt_stdio_allocate_stream@@YA?AV__crt_stdio_stream@@XZ 000000014006369c f   libucrt:stream.obj
 0001:00062708       ?__acrt_stdio_free_stream@@YAXV__crt_stdio_stream@@@Z 0000000140063708 f   libucrt:stream.obj
 0001:0006272c       ?deallocate@__crt_stdio_stream@@QEAAXXZ 000000014006372c f i libucrt:stream.obj
 0001:00062738       ?detach@?$__crt_unique_heap_ptr@U__crt_stdio_stream_data@@U__crt_internal_free_policy@@@@QEAAPEAU__crt_stdio_stream_data@@XZ 0000000140063738 f i libucrt:stream.obj
 0001:00062868       ?lock@__crt_stdio_stream@@QEBAXXZ 0000000140063868 f i libucrt:stream.obj
 0001:00062874       ?release@?$__crt_unique_heap_ptr@U__crt_stdio_stream_data@@U__crt_internal_free_policy@@@@QEAAXXZ 0000000140063874 f i libucrt:stream.obj
 0001:00062898       ?try_allocate@__crt_stdio_stream@@QEAA_NXZ 0000000140063898 f i libucrt:stream.obj
 0001:000628c0       ?unlock@__crt_stdio_stream@@QEBAXXZ 00000001400638c0 f i libucrt:stream.obj
 0001:00062e18       _lseek                     0000000140063e18 f   libucrt:lseek.obj
 0001:00062e20       _lseek_nolock              0000000140063e20 f   libucrt:lseek.obj
 0001:00062e28       _lseeki64                  0000000140063e28 f   libucrt:lseek.obj
 0001:00062e30       _lseeki64_nolock           0000000140063e30 f   libucrt:lseek.obj
 0001:00062ef8       _putwch                    0000000140063ef8 f   libucrt:putwch.obj
 0001:00062f44       _putwch_nolock             0000000140063f44 f   libucrt:putwch.obj
 0001:00062f90       ?__mbrtoc32_utf8@__crt_mbstring@@YA_KPEA_UPEBD_KPEAU_Mbstatet@@@Z 0000000140063f90 f   libucrt:mbrtoc32.obj
 0001:000631dc       mbrtoc32                   00000001400641dc f   libucrt:mbrtoc32.obj
 0001:000631e4       _controlfp_s               00000001400641e4 f   libucrt:contrlfp.obj
 0001:00063260       fegetenv                   0000000140064260 f   libucrt:fegetenv.obj
 0001:00063288       fesetenv                   0000000140064288 f   libucrt:fesetenv.obj
 0001:000632e8       feholdexcept               00000001400642e8 f   libucrt:feholdexcept.obj
 0001:0006334c       ceil                       000000014006434c f   libucrt:ceil.obj
 0001:00063440       log10                      0000000140064440 f   libucrt:log10.obj
 0001:00063b58       ??$__acrt_fenv_shift_bits@W4__acrt_fenv_abstract_control@@@@YA?AW4__acrt_fenv_abstract_control@@W40@0I@Z 0000000140064b58 f i libucrt:_fenvutils.obj
 0001:00063b64       ??$__acrt_fenv_shift_bits@W4__acrt_fenv_abstract_status@@@@YA?AW4__acrt_fenv_abstract_status@@W40@0I@Z 0000000140064b64 f i libucrt:_fenvutils.obj
 0001:00063b70       ??$__acrt_fenv_translate_bit@W4__acrt_fenv_abstract_control@@W4__acrt_fenv_machine_sse_control@@@@YA?AW4__acrt_fenv_abstract_control@@W4__acrt_fenv_machine_sse_control@@0W40@1@Z 0000000140064b70 f i libucrt:_fenvutils.obj
 0001:00063b80       ??$__acrt_fenv_translate_bit@W4__acrt_fenv_abstract_status@@W4__acrt_fenv_machine_sse_status@@@@YA?AW4__acrt_fenv_abstract_status@@W4__acrt_fenv_machine_sse_status@@0W40@1@Z 0000000140064b80 f i libucrt:_fenvutils.obj
 0001:00063b8c       ??$__acrt_fenv_translate_bit@W4__acrt_fenv_machine_sse_control@@W4__acrt_fenv_abstract_control@@@@YA?AW4__acrt_fenv_machine_sse_control@@W4__acrt_fenv_abstract_control@@0W40@1@Z 0000000140064b8c f i libucrt:_fenvutils.obj
 0001:00063b9c       ??$__acrt_fenv_translate_bit@W4__acrt_fenv_machine_sse_status@@W4__acrt_fenv_abstract_status@@@@YA?AW4__acrt_fenv_machine_sse_status@@W4__acrt_fenv_abstract_status@@0W40@1@Z 0000000140064b9c f i libucrt:_fenvutils.obj
 0001:00063ba8       ??$__acrt_fenv_unshift_bits@W4__acrt_fenv_abstract_control@@@@YA?AW4__acrt_fenv_abstract_control@@W40@0I@Z 0000000140064ba8 f i libucrt:_fenvutils.obj
 0001:00063bb4       ??$__acrt_fenv_unshift_bits@W4__acrt_fenv_abstract_status@@@@YA?AW4__acrt_fenv_abstract_status@@W40@0I@Z 0000000140064bb4 f i libucrt:_fenvutils.obj
 0001:00063e90       ??I@YA?AW4__acrt_fenv_abstract_control@@W40@0@Z 0000000140064e90 f i libucrt:_fenvutils.obj
 0001:00063e98       ??I@YA?AW4__acrt_fenv_abstract_status@@W40@0@Z 0000000140064e98 f i libucrt:_fenvutils.obj
 0001:00063ea0       ??I@YA?AW4__acrt_fenv_machine_sse_control@@W40@0@Z 0000000140064ea0 f i libucrt:_fenvutils.obj
 0001:00063ea8       ??I@YA?AW4__acrt_fenv_machine_sse_status@@W40@0@Z 0000000140064ea8 f i libucrt:_fenvutils.obj
 0001:00063eb0       ??U@YA?AW4__acrt_fenv_abstract_control@@W40@0@Z 0000000140064eb0 f i libucrt:_fenvutils.obj
 0001:00063eb8       ??U@YA?AW4__acrt_fenv_abstract_status@@W40@0@Z 0000000140064eb8 f i libucrt:_fenvutils.obj
 0001:00063ec0       ??U@YA?AW4__acrt_fenv_machine_sse_control@@W40@0@Z 0000000140064ec0 f i libucrt:_fenvutils.obj
 0001:00063ec8       ??_5@YAAEAW4__acrt_fenv_abstract_control@@AEAW40@W40@@Z 0000000140064ec8 f i libucrt:_fenvutils.obj
 0001:00063ed0       ??_5@YAAEAW4__acrt_fenv_abstract_status@@AEAW40@W40@@Z 0000000140064ed0 f i libucrt:_fenvutils.obj
 0001:00063ed8       ??_5@YAAEAW4__acrt_fenv_machine_sse_control@@AEAW40@W40@@Z 0000000140064ed8 f i libucrt:_fenvutils.obj
 0001:00063ee0       ??_5@YAAEAW4__acrt_fenv_machine_sse_status@@AEAW40@W40@@Z 0000000140064ee0 f i libucrt:_fenvutils.obj
 0001:00063ee8       ?__acrt_fenv_shift_abstract_sse_control@@YA?AW4__acrt_fenv_abstract_control@@W41@@Z 0000000140064ee8 f i libucrt:_fenvutils.obj
 0001:00063f00       ?__acrt_fenv_shift_abstract_sse_status@@YA?AW4__acrt_fenv_abstract_status@@W41@@Z 0000000140064f00 f i libucrt:_fenvutils.obj
 0001:00063f0c       ?__acrt_fenv_unshift_abstract_sse_control@@YA?AW4__acrt_fenv_abstract_control@@W41@@Z 0000000140064f0c f i libucrt:_fenvutils.obj
 0001:00063f28       ?__acrt_fenv_unshift_abstract_sse_status@@YA?AW4__acrt_fenv_abstract_status@@W41@@Z 0000000140064f28 f i libucrt:_fenvutils.obj
 0001:0006432c       __acrt_fenv_expand_round_control 000000014006532c f   libucrt:_fenvutils.obj
 0001:00064348       __acrt_fenv_get_common_round_control 0000000140065348 f   libucrt:_fenvutils.obj
 0001:00064354       __acrt_fenv_get_control    0000000140065354 f   libucrt:_fenvutils.obj
 0001:00064484       __acrt_fenv_get_fp_status_word_from_exception_mask 0000000140065484 f   libucrt:_fenvutils.obj
 0001:00064494       __acrt_fenv_get_status     0000000140065494 f   libucrt:_fenvutils.obj
 0001:000644fc       __acrt_fenv_set_control    00000001400654fc f   libucrt:_fenvutils.obj
 0001:00064694       __acrt_fenv_set_status     0000000140065694 f   libucrt:_fenvutils.obj
 0001:000649b8       _mbstowcs_l                00000001400659b8 f   libucrt:mbstowcs.obj
 0001:000649c0       _mbstowcs_s_l              00000001400659c0 f   libucrt:mbstowcs.obj
 0001:00064b40       mbstowcs                   0000000140065b40 f   libucrt:mbstowcs.obj
 0001:00064b60       mbstowcs_s                 0000000140065b60 f   libucrt:mbstowcs.obj
 0001:00064b88       __strncnt                  0000000140065b88 f   libucrt:strncnt.obj
 0001:00064ba4       __acrt_CompareStringW      0000000140065ba4 f   libucrt:comparestringw.obj
 0001:00064c90       __ascii_strnicmp           0000000140065c90 f   libucrt:strnicmp.obj
 0001:00064cec       _strnicmp                  0000000140065cec f   libucrt:strnicmp.obj
 0001:00064d50       _strnicmp_l                0000000140065d50 f   libucrt:strnicmp.obj
 0001:0006525c       __acrt_CompareStringA      000000014006625c f   libucrt:comparestringa.obj
 0001:00065308       _towlower_l                0000000140066308 f   libucrt:towlower.obj
 0001:000653f4       towlower                   00000001400663f4 f   libucrt:towlower.obj
 0001:00065568       __dcrt_lowio_ensure_console_output_initialized 0000000140066568 f   libucrt:initcon.obj
 0001:000655d0       __dcrt_terminate_console_output 00000001400665d0 f   libucrt:initcon.obj
 0001:000655f4       __dcrt_write_console       00000001400665f4 f   libucrt:initcon.obj
 0001:00065850       _clearfp                   0000000140066850 f   libucrt:ieee.obj
 0001:000658dc       _control87                 00000001400668dc f   libucrt:ieee.obj
 0001:000658e4       _controlfp                 00000001400668e4 f   libucrt:ieee.obj
 0001:000658f0       _fpreset                   00000001400668f0 f   libucrt:ieee.obj
 0001:000659ec       _set_controlfp             00000001400669ec f   libucrt:ieee.obj
 0001:00065a30       _statusfp                  0000000140066a30 f   libucrt:ieee.obj
 0001:00065f84       _handle_error              0000000140066f84 f   libucrt:libm_error.obj
 0001:000660f4       _handle_errorf             00000001400670f4 f   libucrt:libm_error.obj
 0001:00066274       _handle_nan                0000000140067274 f   libucrt:libm_error.obj
 0001:00066294       _handle_nanf               0000000140067294 f   libucrt:libm_error.obj
 0001:000662b0       __acrt_initialize_fma3     00000001400672b0 f   libucrt:fma3_available.obj
 0001:0006633c       _get_FMA3_enable           000000014006733c f   libucrt:fma3_available.obj
 0001:00066344       _set_FMA3_enable           0000000140067344 f   libucrt:fma3_available.obj
 0001:00066360       _log10_special             0000000140067360 f   libucrt:log_special.obj
 0001:00066388       _log10f_special            0000000140067388 f   libucrt:log_special.obj
 0001:000663b0       _log_special               00000001400673b0 f   libucrt:log_special.obj
 0001:00066494       _logf_special              0000000140067494 f   libucrt:log_special.obj
 0001:00066580       __acrt_LCMapStringW        0000000140067580 f   libucrt:lcmapstringw.obj
 0001:00066640       _get_fpsr                  0000000140067640 f   libucrt:fpsr.obj
 0001:00066650       _set_fpsr                  0000000140067650 f   libucrt:fpsr.obj
 0001:0006665a       _fclrf                     000000014006765a f   libucrt:fpsr.obj
 0001:0006666e       _frnd                      000000014006766e f   libucrt:fpsr.obj
 0001:000666a4       _errcode                   00000001400676a4 f   libucrt:fpexcept.obj
 0001:000666f8       _except1                   00000001400676f8 f   libucrt:fpexcept.obj
 0001:00066828       _except2                   0000000140067828 f   libucrt:fpexcept.obj
 0001:000669b0       _handle_exc                00000001400679b0 f   libucrt:fpexcept.obj
 0001:00066cb0       _handle_qnan2              0000000140067cb0 f   libucrt:fpexcept.obj
 0001:00066cb8       _raise_exc                 0000000140067cb8 f   libucrt:fpexcept.obj
 0001:00066ce8       _raise_exc_ex              0000000140067ce8 f   libucrt:fpexcept.obj
 0001:000670b8       _raise_excf                00000001400680b8 f   libucrt:fpexcept.obj
 0001:000670ec       _set_errno_from_matherr    00000001400680ec f   libucrt:fpexcept.obj
 0001:00067128       _umatherr                  0000000140068128 f   libucrt:fpexcept.obj
 0001:00067234       _clrfp                     0000000140068234 f   libucrt:fpctrl.obj
 0001:00067258       _ctrlfp                    0000000140068258 f   libucrt:fpctrl.obj
 0001:000672f4       _set_statfp                00000001400682f4 f   libucrt:fpctrl.obj
 0001:0006731c       _statfp                    000000014006831c f   libucrt:fpctrl.obj
 0001:00067334       _add_exp                   0000000140068334 f   libucrt:util.obj
 0001:00067398       _decomp                    0000000140068398 f   libucrt:util.obj
 0001:00067514       _get_exp                   0000000140068514 f   libucrt:util.obj
 0001:00067538       _set_bexp                  0000000140068538 f   libucrt:util.obj
 0001:00067574       _set_exp                   0000000140068574 f   libucrt:util.obj
 0001:000675bc       _sptype                    00000001400685bc f   libucrt:util.obj
 0001:00067650       _FindPESection             0000000140068650 f   LIBCMT:pesect.obj
 0001:000676b0       _IsNonwritableInCurrentImage 00000001400686b0 f   LIBCMT:pesect.obj
 0001:00067710       _ValidateImageBase         0000000140068710 f   LIBCMT:pesect.obj
 0001:00067748       ??1type_info@@UEAA@XZ      0000000140068748 f   LIBCMT:std_type_info_static.obj
 0001:00067758       ??_Etype_info@@UEAAPEAXI@Z 0000000140068758 f i LIBCMT:std_type_info_static.obj
 0001:00067758       ??_Gtype_info@@UEAAPEAXI@Z 0000000140068758 f i LIBCMT:std_type_info_static.obj
 0001:00067790       ??3@YAXPEAX_K@Z            0000000140068790 f   LIBCMT:delete_scalar_size.obj
 0001:00067798       __GSHandlerCheck_SEH       0000000140068798 f   LIBCMT:gshandlerseh.obj
 0001:00067850       __chkstk                   0000000140068850 f   LIBCMT:chkstk.obj
 0001:00067850       _alloca_probe              0000000140068850 f   LIBCMT:chkstk.obj
 0001:000678bc       ??3@YAXPEAX@Z              00000001400688bc f   LIBCMT:delete_scalar.obj
 0001:000678c1       RtlUnwindEx                00000001400688c1 f   kernel32:KERNEL32.dll
 0001:000678c7       InterlockedPushEntrySList  00000001400688c7 f   kernel32:KERNEL32.dll
 0001:000678cd       InterlockedFlushSList      00000001400688cd f   kernel32:KERNEL32.dll
 0001:000678d3       GetLastError               00000001400688d3 f   kernel32:KERNEL32.dll
 0001:000678d9       SetLastError               00000001400688d9 f   kernel32:KERNEL32.dll
 0001:000678df       EnterCriticalSection       00000001400688df f   kernel32:KERNEL32.dll
 0001:000678e5       LeaveCriticalSection       00000001400688e5 f   kernel32:KERNEL32.dll
 0001:000678eb       DeleteCriticalSection      00000001400688eb f   kernel32:KERNEL32.dll
 0001:000678f1       InitializeCriticalSectionAndSpinCount 00000001400688f1 f   kernel32:KERNEL32.dll
 0001:000678f7       TlsAlloc                   00000001400688f7 f   kernel32:KERNEL32.dll
 0001:000678fd       TlsGetValue                00000001400688fd f   kernel32:KERNEL32.dll
 0001:00067903       TlsSetValue                0000000140068903 f   kernel32:KERNEL32.dll
 0001:00067909       TlsFree                    0000000140068909 f   kernel32:KERNEL32.dll
 0001:0006790f       FreeLibrary                000000014006890f f   kernel32:KERNEL32.dll
 0001:00067915       GetProcAddress             0000000140068915 f   kernel32:KERNEL32.dll
 0001:0006791b       LoadLibraryExW             000000014006891b f   kernel32:KERNEL32.dll
 0001:00067921       EncodePointer              0000000140068921 f   kernel32:KERNEL32.dll
 0001:00067927       RaiseException             0000000140068927 f   kernel32:KERNEL32.dll
 0001:0006792d       RtlPcToFileHeader          000000014006892d f   kernel32:KERNEL32.dll
 0001:00067933       GetStdHandle               0000000140068933 f   kernel32:KERNEL32.dll
 0001:00067939       GetFileType                0000000140068939 f   kernel32:KERNEL32.dll
 0001:0006793f       GetModuleFileNameW         000000014006893f f   kernel32:KERNEL32.dll
 0001:00067945       GetModuleHandleExW         0000000140068945 f   kernel32:KERNEL32.dll
 0001:0006794b       WriteConsoleW              000000014006894b f   kernel32:KERNEL32.dll
 0001:00067951       WriteFile                  0000000140068951 f   kernel32:KERNEL32.dll
 0001:00067957       ExitProcess                0000000140068957 f   kernel32:KERNEL32.dll
 0001:0006795d       GetCommandLineA            000000014006895d f   kernel32:KERNEL32.dll
 0001:00067963       GetCommandLineW            0000000140068963 f   kernel32:KERNEL32.dll
 0001:00067969       HeapAlloc                  0000000140068969 f   kernel32:KERNEL32.dll
 0001:0006796f       HeapFree                   000000014006896f f   kernel32:KERNEL32.dll
 0001:00067975       GetDateFormatW             0000000140068975 f   kernel32:KERNEL32.dll
 0001:0006797b       GetTimeFormatW             000000014006897b f   kernel32:KERNEL32.dll
 0001:00067981       CompareStringW             0000000140068981 f   kernel32:KERNEL32.dll
 0001:00067987       LCMapStringW               0000000140068987 f   kernel32:KERNEL32.dll
 0001:0006798d       GetLocaleInfoW             000000014006898d f   kernel32:KERNEL32.dll
 0001:00067993       IsValidLocale              0000000140068993 f   kernel32:KERNEL32.dll
 0001:00067999       GetUserDefaultLCID         0000000140068999 f   kernel32:KERNEL32.dll
 0001:0006799f       EnumSystemLocalesW         000000014006899f f   kernel32:KERNEL32.dll
 0001:000679a5       GetCurrentThread           00000001400689a5 f   kernel32:KERNEL32.dll
 0001:000679ab       OutputDebugStringW         00000001400689ab f   kernel32:KERNEL32.dll
 0001:000679b1       SetConsoleCtrlHandler      00000001400689b1 f   kernel32:KERNEL32.dll
 0001:000679b7       FindClose                  00000001400689b7 f   kernel32:KERNEL32.dll
 0001:000679bd       FindFirstFileExW           00000001400689bd f   kernel32:KERNEL32.dll
 0001:000679c3       FindNextFileW              00000001400689c3 f   kernel32:KERNEL32.dll
 0001:000679c9       IsValidCodePage            00000001400689c9 f   kernel32:KERNEL32.dll
 0001:000679cf       GetACP                     00000001400689cf f   kernel32:KERNEL32.dll
 0001:000679d5       GetOEMCP                   00000001400689d5 f   kernel32:KERNEL32.dll
 0001:000679db       GetCPInfo                  00000001400689db f   kernel32:KERNEL32.dll
 0001:000679e1       MultiByteToWideChar        00000001400689e1 f   kernel32:KERNEL32.dll
 0001:000679e7       WideCharToMultiByte        00000001400689e7 f   kernel32:KERNEL32.dll
 0001:000679ed       GetEnvironmentStringsW     00000001400689ed f   kernel32:KERNEL32.dll
 0001:000679f3       FreeEnvironmentStringsW    00000001400689f3 f   kernel32:KERNEL32.dll
 0001:000679f9       SetEnvironmentVariableW    00000001400689f9 f   kernel32:KERNEL32.dll
 0001:000679ff       SetStdHandle               00000001400689ff f   kernel32:KERNEL32.dll
 0001:00067a05       GetStringTypeW             0000000140068a05 f   kernel32:KERNEL32.dll
 0001:00067a0b       GetProcessHeap             0000000140068a0b f   kernel32:KERNEL32.dll
 0001:00067a11       FlushFileBuffers           0000000140068a11 f   kernel32:KERNEL32.dll
 0001:00067a17       GetConsoleOutputCP         0000000140068a17 f   kernel32:KERNEL32.dll
 0001:00067a1d       GetConsoleMode             0000000140068a1d f   kernel32:KERNEL32.dll
 0001:00067a23       ReadFile                   0000000140068a23 f   kernel32:KERNEL32.dll
 0001:00067a29       ReadConsoleW               0000000140068a29 f   kernel32:KERNEL32.dll
 0001:00067a2f       GetFileSizeEx              0000000140068a2f f   kernel32:KERNEL32.dll
 0001:00067a35       SetFilePointerEx           0000000140068a35 f   kernel32:KERNEL32.dll
 0001:00067a3b       HeapSize                   0000000140068a3b f   kernel32:KERNEL32.dll
 0001:00067a41       HeapReAlloc                0000000140068a41 f   kernel32:KERNEL32.dll
 0001:00067a47       CloseHandle                0000000140068a47 f   kernel32:KERNEL32.dll
 0001:00067a4d       CreateFileW                0000000140068a4d f   kernel32:KERNEL32.dll
 0001:00067a54       _local_unwind              0000000140068a54 f   libvcruntime:jmpuwind.obj
 0001:00067aa0       memcmp                     0000000140068aa0 f   libvcruntime:memcmp.obj
 0001:00067b9c       strrchr                    0000000140068b9c f   libvcruntime:strrchr.obj
 0001:00067d10       strchr                     0000000140068d10 f   libvcruntime:strchr.obj
 0001:00067dac       wcschr                     0000000140068dac f   libvcruntime:wcschr.obj
 0001:00067e43       RtlUnwind                  0000000140068e43 f   kernel32:KERNEL32.dll
 0001:00067e50       PrintArray                 0000000140068e50 f   main.obj
 0001:00067f70       PrintInt                   0000000140068f70 f   main.obj
 0001:00067fc0       LRU_Cache_Print            0000000140068fc0 f   main.obj
 0001:000680d0       LRU_Cache_Init             00000001400690d0 f   main.obj
 0001:00068180       GetItem                    0000000140069180 f   main.obj
 0001:00068590       main                       0000000140069590 f   main.obj
 0001:0006b260       _guard_dispatch_icall_nop  000000014006c260 f   LIBCMT:guard_dispatch.obj
 0001:0006b280       _guard_xfg_dispatch_icall_nop 000000014006c280 f   LIBCMT:guard_xfg_dispatch.obj
 0002:00000000       __xc_a                     000000014006f000     LIBCMT:initializers.obj
 0002:00000220       __xc_z                     000000014006f220     LIBCMT:initializers.obj
 0002:00000330       __xi_a                     000000014006f330     LIBCMT:initializers.obj
 0002:00000660       __acrt_stdio_initializer   000000014006f660     libucrt:stdio_initializer.obj
 0002:00000670       __acrt_multibyte_initializer 000000014006f670     libucrt:multibyte_initializer.obj
 0002:00000680       __acrt_fmode_initializer   000000014006f680     libucrt:fmode_initializer.obj
 0002:00000690       __acrt_tran_fma3_initializer 000000014006f690     libucrt:fma3_initializer.obj
 0002:000007a0       __xi_z                     000000014006f7a0     LIBCMT:initializers.obj
 0002:000008b0       __xp_a                     000000014006f8b0     LIBCMT:initializers.obj
 0002:000009c0       __acrt_locale_terminator   000000014006f9c0     libucrt:locale_initializer.obj
 0002:000009d0       __dcrt_console_output_terminator 000000014006f9d0     libucrt:console_output_initializer.obj
 0002:00000ae0       __acrt_stdio_terminator    000000014006fae0     libucrt:stdio_initializer.obj
 0002:00000bf0       __xp_z                     000000014006fbf0     LIBCMT:initializers.obj
 0002:00000d00       __xt_a                     000000014006fd00     LIBCMT:initializers.obj
 0002:00000e10       __xt_z                     000000014006fe10     LIBCMT:initializers.obj
 0002:00000f40       __xmm@ffffffffffffffffffffffffffffffff 000000014006ff40     LIBCMT:utility.obj
 0002:00000f58       _pDestructExceptionObject  000000014006ff58     libvcruntime:ehhelpers.obj
 0002:000017d8       ??_C@_08EHJDFFNH@__based?$CI@ 00000001400707d8     libvcruntime:undname.obj
 0002:000017e8       ??_C@_07KOLFKCDI@__cdecl@  00000001400707e8     libvcruntime:undname.obj
 0002:000017f8       ??_C@_08GHMPAG@__pascal@   00000001400707f8     libvcruntime:undname.obj
 0002:00001808       ??_C@_09IFJBGAPI@__stdcall@ 0000000140070808     libvcruntime:undname.obj
 0002:00001818       ??_C@_0L@NPHFGOKO@__thiscall@ 0000000140070818     libvcruntime:undname.obj
 0002:00001828       ??_C@_0L@JMKHOMEK@__fastcall@ 0000000140070828     libvcruntime:undname.obj
 0002:00001838       ??_C@_0N@BCKKPABJ@__vectorcall@ 0000000140070838     libvcruntime:undname.obj
 0002:00001848       ??_C@_09HIJEGCPM@__clrcall@ 0000000140070848     libvcruntime:undname.obj
 0002:00001854       ??_C@_06GHPCKEAG@__eabi@   0000000140070854     libvcruntime:undname.obj
 0002:00001860       ??_C@_09IOPIDJLG@__swift_1@ 0000000140070860     libvcruntime:undname.obj
 0002:00001870       ??_C@_09KFNFGKHF@__swift_2@ 0000000140070870     libvcruntime:undname.obj
 0002:00001880       ??_C@_07JOMMBBKO@__ptr64@  0000000140070880     libvcruntime:undname.obj
 0002:00001890       ??_C@_0L@PILCLIHE@__restrict@ 0000000140070890     libvcruntime:undname.obj
 0002:000018a0       ??_C@_0M@GFIIJFMG@__unaligned@ 00000001400708a0     libvcruntime:undname.obj
 0002:000018b0       ??_C@_09DHDLOLLB@restrict?$CI@ 00000001400708b0     libvcruntime:undname.obj
 0002:000018bc       ??_C@_00CNPNBAHC@@         00000001400708bc     libvcruntime:undname.obj
 0002:000018c0       ??_C@_04NIHEBCM@?5new@     00000001400708c0     libvcruntime:undname.obj
 0002:000018c8       ??_C@_07FPCDHGMM@?5delete@ 00000001400708c8     libvcruntime:undname.obj
 0002:000018d4       ??_C@_01NEMOKFLO@?$DN@     00000001400708d4     libvcruntime:undname.obj
 0002:000018d8       ??_C@_02GPIOPFAK@?$DO?$DO@ 00000001400708d8     libvcruntime:undname.obj
 0002:000018dc       ??_C@_02FODMEDOG@?$DM?$DM@ 00000001400708dc     libvcruntime:undname.obj
 0002:000018e0       ??_C@_01DCLJPIOD@?$CB@     00000001400708e0     libvcruntime:undname.obj
 0002:000018e4       ??_C@_02EGOFBIJA@?$DN?$DN@ 00000001400708e4     libvcruntime:undname.obj
 0002:000018e8       ??_C@_02FDNJECIE@?$CB?$DN@ 00000001400708e8     libvcruntime:undname.obj
 0002:000018ec       ??_C@_02GPECMEKF@?$FL?$FN@ 00000001400708ec     libvcruntime:undname.obj
 0002:000018f0       ??_C@_08LHJFAFGD@operator@ 00000001400708f0     libvcruntime:undname.obj
 0002:000018fc       ??_C@_02HBOOOICD@?9?$DO@   00000001400708fc     libvcruntime:undname.obj
 0002:00001900       ??_C@_01NBENCBCI@?$CK@     0000000140070900     libvcruntime:undname.obj
 0002:00001904       ??_C@_02ECNGHCIF@?$CL?$CL@ 0000000140070904     libvcruntime:undname.obj
 0002:00001908       ??_C@_02BAABKJLB@?9?9@     0000000140070908     libvcruntime:undname.obj
 0002:0000190c       ??_C@_01JOAMLHOP@?9@       000000014007090c     libvcruntime:undname.obj
 0002:00001910       ??_C@_01MIFGBAGJ@?$CL@     0000000140070910     libvcruntime:undname.obj
 0002:00001914       ??_C@_01HNPIGOCE@?$CG@     0000000140070914     libvcruntime:undname.obj
 0002:00001918       ??_C@_03MNHNFDLC@?9?$DO?$CK@ 0000000140070918     libvcruntime:undname.obj
 0002:0000191c       ??_C@_01KMDKNFGN@?1@       000000014007091c     libvcruntime:undname.obj
 0002:00001920       ??_C@_01FGNFDNOH@?$CF@     0000000140070920     libvcruntime:undname.obj
 0002:00001924       ??_C@_01MNNFJEPP@?$DM@     0000000140070924     libvcruntime:undname.obj
 0002:00001928       ??_C@_02EHCHHCKH@?$DM?$DN@ 0000000140070928     libvcruntime:undname.obj
 0002:0000192c       ??_C@_01PPODPGHN@?$DO@     000000014007092c     libvcruntime:undname.obj
 0002:00001930       ??_C@_02EEKDKGMJ@?$DO?$DN@ 0000000140070930     libvcruntime:undname.obj
 0002:00001934       ??_C@_01IHBHIGKO@?0@       0000000140070934     libvcruntime:undname.obj
 0002:00001938       ??_C@_02HCKGKOFO@?$CI?$CJ@ 0000000140070938     libvcruntime:undname.obj
 0002:0000193c       ??_C@_01PJKLJHI@?$HO@      000000014007093c     libvcruntime:undname.obj
 0002:00001940       ??_C@_01JKBOJNNK@?$FO@     0000000140070940     libvcruntime:undname.obj
 0002:00001944       ??_C@_01DNKMNLPK@?$HM@     0000000140070944     libvcruntime:undname.obj
 0002:00001948       ??_C@_02PPKAJPJL@?$CG?$CG@ 0000000140070948     libvcruntime:undname.obj
 0002:0000194c       ??_C@_02NONPIBCD@?$HM?$HM@ 000000014007094c     libvcruntime:undname.obj
 0002:00001950       ??_C@_02FPIMKNGF@?$CK?$DN@ 0000000140070950     libvcruntime:undname.obj
 0002:00001954       ??_C@_02FOEOMHFC@?$CL?$DN@ 0000000140070954     libvcruntime:undname.obj
 0002:00001958       ??_C@_02FKMDLLOA@?9?$DN@   0000000140070958     libvcruntime:undname.obj
 0002:0000195c       ??_C@_02FJEHGPIO@?1?$DN@   000000014007095c     libvcruntime:undname.obj
 0002:00001960       ??_C@_02FENAOKFI@?$CF?$DN@ 0000000140070960     libvcruntime:undname.obj
 0002:00001964       ??_C@_03IKFCCPFF@?$DO?$DO?$DN@ 0000000140070964     libvcruntime:undname.obj
 0002:00001968       ??_C@_03CDNPDDLA@?$DM?$DM?$DN@ 0000000140070968     libvcruntime:undname.obj
 0002:0000196c       ??_C@_02FGJGFEAB@?$CG?$DN@ 000000014007096c     libvcruntime:undname.obj
 0002:00001970       ??_C@_02DHLNPPGH@?$HM?$DN@ 0000000140070970     libvcruntime:undname.obj
 0002:00001974       ??_C@_02MHEGNOJ@?$FO?$DN@  0000000140070974     libvcruntime:undname.obj
 0002:00001978       ??_C@_09IFPLHPGF@?$GAvftable?8@ 0000000140070978     libvcruntime:undname.obj
 0002:00001988       ??_C@_09BLBHBJP@?$GAvbtable?8@ 0000000140070988     libvcruntime:undname.obj
 0002:00001998       ??_C@_07FEEIOKP@?$GAvcall?8@ 0000000140070998     libvcruntime:undname.obj
 0002:000019a8       ??_C@_08LLFFHHDJ@?$GAtypeof?8@ 00000001400709a8     libvcruntime:undname.obj
 0002:000019b8       ??_C@_0BF@KDPPACIK@?$GAlocal?5static?5guard?8@ 00000001400709b8     libvcruntime:undname.obj
 0002:000019d8       ??_C@_08OBABFOLI@?$GAstring?8@ 00000001400709d8     libvcruntime:undname.obj
 0002:000019e8       ??_C@_0BD@JDLKDPAB@?$GAvbase?5destructor?8@ 00000001400709e8     libvcruntime:undname.obj
 0002:00001a00       ??_C@_0BN@DEGPLNFK@?$GAvector?5deleting?5destructor?8@ 0000000140070a00     libvcruntime:undname.obj
 0002:00001a28       ??_C@_0BO@OBMKPJIG@?$GAdefault?5constructor?5closure?8@ 0000000140070a28     libvcruntime:undname.obj
 0002:00001a50       ??_C@_0BN@IMDCHIKM@?$GAscalar?5deleting?5destructor?8@ 0000000140070a50     libvcruntime:undname.obj
 0002:00001a78       ??_C@_0BO@PFGOCPJJ@?$GAvector?5constructor?5iterator?8@ 0000000140070a78     libvcruntime:undname.obj
 0002:00001aa0       ??_C@_0BN@LFPFMEDL@?$GAvector?5destructor?5iterator?8@ 0000000140070aa0     libvcruntime:undname.obj
 0002:00001ac8       ??_C@_0CE@IKBNEHA@?$GAvector?5vbase?5constructor?5itera@ 0000000140070ac8     libvcruntime:undname.obj
 0002:00001af8       ??_C@_0BL@NILFHHPC@?$GAvirtual?5displacement?5map?8@ 0000000140070af8     libvcruntime:undname.obj
 0002:00001b18       ??_C@_0CB@JONCMFFK@?$GAeh?5vector?5constructor?5iterator@ 0000000140070b18     libvcruntime:undname.obj
 0002:00001b40       ??_C@_0CA@GCEOPDGL@?$GAeh?5vector?5destructor?5iterator?8@ 0000000140070b40     libvcruntime:undname.obj
 0002:00001b68       ??_C@_0CH@OOJPLCPH@?$GAeh?5vector?5vbase?5constructor?5it@ 0000000140070b68     libvcruntime:undname.obj
 0002:00001b98       ??_C@_0BL@LLKPOHJI@?$GAcopy?5constructor?5closure?8@ 0000000140070b98     libvcruntime:undname.obj
 0002:00001bb8       ??_C@_0BA@KBCDOMBN@?$GAudt?5returning?8@ 0000000140070bb8     libvcruntime:undname.obj
 0002:00001bcc       ??_C@_03KLGMFNMG@?$GAEH@   0000000140070bcc     libvcruntime:undname.obj
 0002:00001bd0       ??_C@_05KHLCHHI@?$GARTTI@  0000000140070bd0     libvcruntime:undname.obj
 0002:00001bd8       ??_C@_0BA@KKLDJDLB@?$GAlocal?5vftable?8@ 0000000140070bd8     libvcruntime:undname.obj
 0002:00001bf0       ??_C@_0CE@IIHCMGGL@?$GAlocal?5vftable?5constructor?5clos@ 0000000140070bf0     libvcruntime:undname.obj
 0002:00001c1c       ??_C@_06FHBGPFGH@?5new?$FL?$FN@ 0000000140070c1c     libvcruntime:undname.obj
 0002:00001c28       ??_C@_09LBNFPBCA@?5delete?$FL?$FN@ 0000000140070c28     libvcruntime:undname.obj
 0002:00001c38       ??_C@_0P@HJKNJFNN@?$GAomni?5callsig?8@ 0000000140070c38     libvcruntime:undname.obj
 0002:00001c50       ??_C@_0BL@CNOONJFP@?$GAplacement?5delete?5closure?8@ 0000000140070c50     libvcruntime:undname.obj
 0002:00001c70       ??_C@_0BN@CKNJLHMB@?$GAplacement?5delete?$FL?$FN?5closure?8@ 0000000140070c70     libvcruntime:undname.obj
 0002:00001c98       ??_C@_0CG@CFDHKGGD@?$GAmanaged?5vector?5constructor?5ite@ 0000000140070c98     libvcruntime:undname.obj
 0002:00001cc8       ??_C@_0CF@IMGKMJNO@?$GAmanaged?5vector?5destructor?5iter@ 0000000140070cc8     libvcruntime:undname.obj
 0002:00001cf8       ??_C@_0CG@HLDDJMAG@?$GAeh?5vector?5copy?5constructor?5ite@ 0000000140070cf8     libvcruntime:undname.obj
 0002:00001d28       ??_C@_0CM@FCBBDIGB@?$GAeh?5vector?5vbase?5copy?5construct@ 0000000140070d28     libvcruntime:undname.obj
 0002:00001d60       ??_C@_0BL@CLIPGLGB@?$GAdynamic?5initializer?5for?5?8@ 0000000140070d60     libvcruntime:undname.obj
 0002:00001d80       ??_C@_0CB@PDBIFEP@?$GAdynamic?5atexit?5destructor?5for?5@ 0000000140070d80     libvcruntime:undname.obj
 0002:00001da8       ??_C@_0CD@CGAJBKEJ@?$GAvector?5copy?5constructor?5iterat@ 0000000140070da8     libvcruntime:undname.obj
 0002:00001dd8       ??_C@_0CJ@GJELGAMM@?$GAvector?5vbase?5copy?5constructor?5@ 0000000140070dd8     libvcruntime:undname.obj
 0002:00001e10       ??_C@_0CL@FGIJHLCE@?$GAmanaged?5vector?5copy?5constructo@ 0000000140070e10     libvcruntime:undname.obj
 0002:00001e48       ??_C@_0BM@PMGGMLDN@?$GAlocal?5static?5thread?5guard?8@ 0000000140070e48     libvcruntime:undname.obj
 0002:00001e70       ??_C@_0N@BDNMDMOL@operator?5?$CC?$CC?5@ 0000000140070e70     libvcruntime:undname.obj
 0002:00001e80       ??_C@_0BC@GGEBGALA@operator?5co_await@ 0000000140070e80     libvcruntime:undname.obj
 0002:00001e98       ??_C@_0M@GAAIMMOH@operator?$DM?$DN?$DO@ 0000000140070e98     libvcruntime:undname.obj
 0002:00001ea8       ??_C@_0BC@DAFEJGAK@?5Type?5Descriptor?8@ 0000000140070ea8     libvcruntime:undname.obj
 0002:00001ec0       ??_C@_0BM@LDKODKLH@?5Base?5Class?5Descriptor?5at?5?$CI@ 0000000140070ec0     libvcruntime:undname.obj
 0002:00001ee8       ??_C@_0BD@LGICGFMM@?5Base?5Class?5Array?8@ 0000000140070ee8     libvcruntime:undname.obj
 0002:00001f00       ??_C@_0BN@MECKDCOJ@?5Class?5Hierarchy?5Descriptor?8@ 0000000140070f00     libvcruntime:undname.obj
 0002:00001f28       ??_C@_0BK@CFCOFLF@?5Complete?5Object?5Locator?8@ 0000000140070f28     libvcruntime:undname.obj
 0002:00001f48       ??_C@_0BG@JNJLAMPM@?$GAanonymous?5namespace?8@ 0000000140070f48     libvcruntime:undname.obj
 0002:00001f64       ??_C@_04HEJADOOB@CV?3?5@   0000000140070f64     libvcruntime:undname.obj
 0002:00001f6c       ??_C@_02MOLJINC@?3?3@      0000000140070f6c     libvcruntime:undname.obj
 0002:00001f70       ??_C@_0BE@JAEOCHPE@template?9parameter?9@ 0000000140070f70     libvcruntime:undname.obj
 0002:00001f88       ??_C@_0BF@LNLGBBNL@?$GAtemplate?9parameter?9@ 0000000140070f88     libvcruntime:undname.obj
 0002:00001fa8       ??_C@_0O@KHGCOMHP@generic?9type?9@ 0000000140070fa8     libvcruntime:undname.obj
 0002:00001fb8       ??_C@_0P@ODDENDLM@?$GAgeneric?9type?9@ 0000000140070fb8     libvcruntime:undname.obj
 0002:00001fcc       ??_C@_02OHHJMEON@?8?8@     0000000140070fcc     libvcruntime:undname.obj
 0002:00001fd0       ??_C@_0BN@IBLMMFAP@?$GAnon?9type?9template?9parameter@ 0000000140070fd0     libvcruntime:undname.obj
 0002:00001ff4       ??_C@_03DLDNIBIK@?$CFlf@   0000000140070ff4     libvcruntime:undname.obj
 0002:00001ff8       ??_C@_04OFALKAJ@?$DP?$DP_C@ 0000000140070ff8     libvcruntime:undname.obj
 0002:00002000       ??_C@_03KHICJKCI@?4?4?4@   0000000140071000     libvcruntime:undname.obj
 0002:00002004       ??_C@_04HIBGFPH@NULL@      0000000140071004     libvcruntime:undname.obj
 0002:0000200c       ??_C@_02DPKJAMEF@?$CFd@    000000014007100c     libvcruntime:undname.obj
 0002:00002010       ??_C@_0BK@IHCCFNEL@?$GAtemplate?9type?9parameter?9@ 0000000140071010     libvcruntime:undname.obj
 0002:00002030       ??_C@_0BK@OFCNNNKO@?$GAgeneric?9class?9parameter?9@ 0000000140071030     libvcruntime:undname.obj
 0002:00002050       ??_C@_0BL@NGJBLFIL@?$GAgeneric?9method?9parameter?9@ 0000000140071050     libvcruntime:undname.obj
 0002:00002070       ??_C@_04GKJNKENE@void@     0000000140071070     libvcruntime:undname.obj
 0002:00002078       ??_C@_0BE@EODMJLIF@?$GAtemplate?9parameter@ 0000000140071078     libvcruntime:undname.obj
 0002:00002090       ??_C@_03OPGICMGF@?$HN?8?5@ 0000000140071090     libvcruntime:undname.obj
 0002:00002094       ??_C@_02IGFCGPIL@?$HN?8@   0000000140071094     libvcruntime:undname.obj
 0002:00002098       ??_C@_0N@CBHHHENL@?$GAvtordispex?$HL@ 0000000140071098     libvcruntime:undname.obj
 0002:000020a8       ??_C@_0L@GHPFDFH@?$GAvtordisp?$HL@ 00000001400710a8     libvcruntime:undname.obj
 0002:000020b8       ??_C@_0L@HNGCOGAE@?$GAadjustor?$HL@ 00000001400710b8     libvcruntime:undname.obj
 0002:000020c8       ??_C@_0CB@KJDOOODE@?$GAlocal?5static?5destructor?5helper@ 00000001400710c8     libvcruntime:undname.obj
 0002:000020f0       ??_C@_0DB@ILEFOCIJ@?$GAtemplate?5static?5data?5member?5co@ 00000001400710f0     libvcruntime:undname.obj
 0002:00002130       ??_C@_0DA@HGFJFBBE@?$GAtemplate?5static?5data?5member?5de@ 0000000140071130     libvcruntime:undname.obj
 0002:00002170       ??_C@_07PGOEDBHP@static?5@ 0000000140071170     libvcruntime:undname.obj
 0002:00002180       ??_C@_08NIEOINHE@virtual?5@ 0000000140071180     libvcruntime:undname.obj
 0002:00002190       ??_C@_09LAPHOOG@private?3?5@ 0000000140071190     libvcruntime:undname.obj
 0002:000021a0       ??_C@_0M@GAIFPFIP@protected?3?5@ 00000001400711a0     libvcruntime:undname.obj
 0002:000021b0       ??_C@_08GPDDCMKI@public?3?5@ 00000001400711b0     libvcruntime:undname.obj
 0002:000021c0       ??_C@_08KJLFOPNE@?$FLthunk?$FN?3@ 00000001400711c0     libvcruntime:undname.obj
 0002:000021d0       ??_C@_0M@DHNBOJMP@extern?5?$CCC?$CC?5@ 00000001400711d0     libvcruntime:undname.obj
 0002:000021e0       ??_C@_02KCKGHPCA@?$CJ?5@   00000001400711e0     libvcruntime:undname.obj
 0002:000021e4       ??_C@_05CIHEBHNO@char?5@   00000001400711e4     libvcruntime:undname.obj
 0002:000021ec       ??_C@_06EHJMALKF@short?5@  00000001400711ec     libvcruntime:undname.obj
 0002:000021f4       ??_C@_04LAHKHJMA@int?5@    00000001400711f4     libvcruntime:undname.obj
 0002:000021fc       ??_C@_05CJIMAING@long?5@   00000001400711fc     libvcruntime:undname.obj
 0002:00002208       ??_C@_09EBBEKKIH@unsigned?5@ 0000000140071208     libvcruntime:undname.obj
 0002:00002214       ??_C@_05BEFAKPML@void?5@   0000000140071214     libvcruntime:undname.obj
 0002:00002220       ??_C@_09GAIEOBLP@volatile?5@ 0000000140071220     libvcruntime:undname.obj
 0002:00002230       ??_C@_08PABEKFH@volatile@  0000000140071230     libvcruntime:undname.obj
 0002:00002240       ??_C@_0BA@LKIJLKPP@std?3?3nullptr_t?5@ 0000000140071240     libvcruntime:undname.obj
 0002:00002258       ??_C@_0P@GCOCNKDM@std?3?3nullptr_t@ 0000000140071258     libvcruntime:undname.obj
 0002:00002270       ??_C@_0L@EGPHHEKN@?$DMellipsis?$DO@ 0000000140071270     libvcruntime:undname.obj
 0002:00002280       ??_C@_04EENFHACM@?0?4?4?4@ 0000000140071280     libvcruntime:undname.obj
 0002:00002288       ??_C@_0M@ELJOJFFH@?0?$DMellipsis?$DO@ 0000000140071288     libvcruntime:undname.obj
 0002:00002298       ??_C@_09DNHFEOJI@?5noexcept@ 0000000140071298     libvcruntime:undname.obj
 0002:000022a4       ??_C@_03PBJBJNON@cpu@      00000001400712a4     libvcruntime:undname.obj
 0002:000022a8       ??_C@_03DCBBJBAA@amp@      00000001400712a8     libvcruntime:undname.obj
 0002:000022ac       ??_C@_02KEGNLNML@?0?5@     00000001400712ac     libvcruntime:undname.obj
 0002:000022b0       ??_C@_04ENMBGAPA@char@     00000001400712b0     libvcruntime:undname.obj
 0002:000022b8       ??_C@_05BFKKPKCG@short@    00000001400712b8     libvcruntime:undname.obj
 0002:000022c0       ??_C@_03JBIPMCLC@int@      00000001400712c0     libvcruntime:undname.obj
 0002:000022c4       ??_C@_04GOKPGOLB@long@     00000001400712c4     libvcruntime:undname.obj
 0002:000022cc       ??_C@_05KNFBNCOH@float@    00000001400712cc     libvcruntime:undname.obj
 0002:000022d4       ??_C@_06BNJCAIGJ@double@   00000001400712d4     libvcruntime:undname.obj
 0002:000022dc       ??_C@_04DDKJGDCM@bool@     00000001400712dc     libvcruntime:undname.obj
 0002:000022e4       ??_C@_06EBGKOKIG@__int8@   00000001400712e4     libvcruntime:undname.obj
 0002:000022f0       ??_C@_07ICFHOGAF@__int16@  00000001400712f0     libvcruntime:undname.obj
 0002:00002300       ??_C@_07OFLPPHGP@__int32@  0000000140071300     libvcruntime:undname.obj
 0002:00002310       ??_C@_07LFCOJCAC@__int64@  0000000140071310     libvcruntime:undname.obj
 0002:00002320       ??_C@_08GAHOLHEO@__int128@ 0000000140071320     libvcruntime:undname.obj
 0002:00002330       ??_C@_09EEKGDCPH@?$DMunknown?$DO@ 0000000140071330     libvcruntime:undname.obj
 0002:00002340       ??_C@_07CFHGOPCN@char8_t@  0000000140071340     libvcruntime:undname.obj
 0002:00002350       ??_C@_08HBIPOFJB@char16_t@ 0000000140071350     libvcruntime:undname.obj
 0002:00002360       ??_C@_08IECNCBKG@char32_t@ 0000000140071360     libvcruntime:undname.obj
 0002:00002370       ??_C@_07CLGGIAMF@wchar_t@  0000000140071370     libvcruntime:undname.obj
 0002:0000237c       ??_C@_06GCICPBLB@__w64?5@  000000014007137c     libvcruntime:undname.obj
 0002:00002388       ??_C@_07NFANNNEC@UNKNOWN@  0000000140071388     libvcruntime:undname.obj
 0002:00002398       ??_C@_07EDHNAJHC@signed?5@ 0000000140071398     libvcruntime:undname.obj
 0002:000023a4       ??_C@_05BNCCCJPP@const@    00000001400713a4     libvcruntime:undname.obj
 0002:000023b0       ??_C@_09EFNPDFFP@?5volatile@ 00000001400713b0     libvcruntime:undname.obj
 0002:000023c0       ??_C@_0P@GCIFDJCJ@?$GAunknown?5ecsu?8@ 00000001400713c0     libvcruntime:undname.obj
 0002:000023d4       ??_C@_06MOJHIBMG@union?5@  00000001400713d4     libvcruntime:undname.obj
 0002:000023e0       ??_C@_07DIBCDNGL@struct?5@ 00000001400713e0     libvcruntime:undname.obj
 0002:000023ec       ??_C@_06LJBABKPM@class?5@  00000001400713ec     libvcruntime:undname.obj
 0002:000023f8       ??_C@_08KOFANOFK@coclass?5@ 00000001400713f8     libvcruntime:undname.obj
 0002:00002408       ??_C@_0N@DLIEFKNA@cointerface?5@ 0000000140071408     libvcruntime:undname.obj
 0002:00002418       ??_C@_05LJGMCFOG@enum?5@   0000000140071418     libvcruntime:undname.obj
 0002:00002420       ??_C@_06LIJLOJAG@const?5@  0000000140071420     libvcruntime:undname.obj
 0002:00002428       ??_C@_02KJPKDIBN@?$CG?5@   0000000140071428     libvcruntime:undname.obj
 0002:0000242c       ??_C@_03PCKGMOPB@?$CG?$CG?5@ 000000014007142c     libvcruntime:undname.obj
 0002:00002430       ??_C@_0M@EALIELKG@cli?3?3array?$DM@ 0000000140071430     libvcruntime:undname.obj
 0002:00002440       ??_C@_0O@GKABPPIF@cli?3?3pin_ptr?$DM@ 0000000140071440     libvcruntime:undname.obj
 0002:00002450       ??_C@_02GOGNNPBN@?$CJ?$FL@ 0000000140071450     libvcruntime:undname.obj
 0002:00002454       ??_C@_06EEGAIFAK@?$HLflat?$HN@ 0000000140071454     libvcruntime:undname.obj
 0002:0000245c       ??_C@_05JIBOFOHK@?$HLfor?5@ 000000014007145c     libvcruntime:undname.obj
 0002:00002464       ??_C@_02MDINNEEG@s?5@      0000000140071464     libvcruntime:undname.obj
 0002:00002470       ??_7DNameNode@@6B@         0000000140071470     libvcruntime:undname.obj
 0002:000024a0       ??_7charNode@@6B@          00000001400714a0     libvcruntime:undname.obj
 0002:000024d0       ??_7pcharNode@@6B@         00000001400714d0     libvcruntime:undname.obj
 0002:00002500       ??_7pDNameNode@@6B@        0000000140071500     libvcruntime:undname.obj
 0002:00002530       ??_7DNameStatusNode@@6B@   0000000140071530     libvcruntime:undname.obj
 0002:00002560       ??_7pairNode@@6B@          0000000140071560     libvcruntime:undname.obj
 0002:000026c4       ??_C@_04OKOHEJBO@?5?$DP?$DP?5@ 00000001400716c4     libvcruntime:undname.obj
 0002:000026d0       ?nodes@?1??make@DNameStatusNode@@SAPEBV2@W4DNameStatus@@@Z@4QBV2@B 00000001400716d0     libvcruntime:undname.obj
 0002:00002740       ??_C@_1DM@KHCHBNEB@?$AAa?$AAp?$AAi?$AA?9?$AAm?$AAs?$AA?9?$AAw?$AAi?$AAn?$AA?9?$AAc?$AAo?$AAr?$AAe@ 0000000140071740     libvcruntime:winapi_downlevel.obj
 0002:00002788       ??_C@_1DK@LPPGFMPP@?$AAa?$AAp?$AAi?$AA?9?$AAm?$AAs?$AA?9?$AAw?$AAi?$AAn?$AA?9?$AAc?$AAo?$AAr?$AAe@ 0000000140071788     libvcruntime:winapi_downlevel.obj
 0002:000027d0       ??_C@_1BC@GDMECMAK@?$AAk?$AAe?$AAr?$AAn?$AAe?$AAl?$AA3?$AA2@ 00000001400717d0     libvcruntime:winapi_downlevel.obj
 0002:000027e8       ??_C@_1BA@PFFKHIOG@?$AAa?$AAp?$AAi?$AA?9?$AAm?$AAs?$AA?9@ 00000001400717e8     libvcruntime:winapi_downlevel.obj
 0002:00002810       ??_C@_08KNHFBNJ@FlsAlloc@  0000000140071810     libvcruntime:winapi_downlevel.obj
 0002:00002830       ??_C@_07PEJMOBNF@FlsFree@  0000000140071830     libvcruntime:winapi_downlevel.obj
 0002:00002850       ??_C@_0M@GDNOONDI@FlsGetValue@ 0000000140071850     libvcruntime:winapi_downlevel.obj
 0002:00002870       ??_C@_0M@JCPCPOEF@FlsSetValue@ 0000000140071870     libvcruntime:winapi_downlevel.obj
 0002:00002890       ??_C@_0BM@HCFOFFN@InitializeCriticalSectionEx@ 0000000140071890     libvcruntime:winapi_downlevel.obj
 0002:000028b8       ?s_negLengthTab@FH4@@3QBCB 00000001400718b8     libvcruntime:risctrnsctrl.obj
 0002:000028d0       ?s_shiftTab@FH4@@3QBEB     00000001400718d0     libvcruntime:risctrnsctrl.obj
 0002:00002a70       ??_7exception@std@@6B@     0000000140071a70     libvcruntime:frame.obj
 0002:00002a88       ??_C@_0BC@EOODALEL@Unknown?5exception@ 0000000140071a88     libvcruntime:frame.obj
 0002:00002aa8       ??_7bad_exception@std@@6B@ 0000000140071aa8     libvcruntime:frame.obj
 0002:00002ac0       ??_C@_0O@DPKOEFFH@bad?5exception@ 0000000140071ac0     libvcruntime:frame.obj
 0002:00002ad0       ?standard_lookup_table_spectre@__crt_stdio_output@@3V?$spectre_mitigated_lookup_table@Ustate_transition_pair@__crt_stdio_output@@$0IA@@1@B 0000000140071ad0     libucrt:output.obj
 0002:00002fa0       ?format_validation_lookup_table_spectre@__crt_stdio_output@@3V?$spectre_mitigated_lookup_table@Ustate_transition_pair@__crt_stdio_output@@$0IA@@1@B 0000000140071fa0     libucrt:output.obj
 0002:00003470       ??_C@_1O@CEDCILHN@?$AA?$CI?$AAn?$AAu?$AAl?$AAl?$AA?$CJ@ 0000000140072470     libucrt:output.obj
 0002:00003480       ??_C@_06OJHGLDPL@?$CInull?$CJ@ 0000000140072480     libucrt:output.obj
 0002:00003488       ??_C@_0CK@CFPGFGGO@Assertion?5failed?3?5?$CFTs?0?5file?5?$CFTs@ 0000000140072488     libucrt:assert.obj
 0002:000034c0       ??_C@_1FE@LHBLIKM@?$AAA?$AAs?$AAs?$AAe?$AAr?$AAt?$AAi?$AAo?$AAn?$AA?5?$AAf?$AAa?$AAi?$AAl?$AAe@ 00000001400724c0     libucrt:assert.obj
 0002:00003528       ??_C@_0CF@GOGNBNAK@Microsoft?5Visual?5C?$CL?$CL?5Runtime?5Li@ 0000000140072528     libucrt:assert.obj
 0002:00003560       ??_C@_1EK@MBDPDCGA@?$AAM?$AAi?$AAc?$AAr?$AAo?$AAs?$AAo?$AAf?$AAt?$AA?5?$AAV?$AAi?$AAs?$AAu?$AAa@ 0000000140072560     libucrt:assert.obj
 0002:000035b8       ??_C@_0BC@LAIDCHCH@Assertion?5failed?$CB@ 00000001400725b8     libucrt:assert.obj
 0002:000035d0       ??_C@_1CE@OJBNHDMO@?$AAA?$AAs?$AAs?$AAe?$AAr?$AAt?$AAi?$AAo?$AAn?$AA?5?$AAf?$AAa?$AAi?$AAl?$AAe@ 00000001400725d0     libucrt:assert.obj
 0002:00003600       ??_C@_09KLGCKDOD@Program?3?5@ 0000000140072600     libucrt:assert.obj
 0002:00003610       ??_C@_1BE@PHKBBGE@?$AAP?$AAr?$AAo?$AAg?$AAr?$AAa?$AAm?$AA?3?$AA?5@ 0000000140072610     libucrt:assert.obj
 0002:00003628       ??_C@_06IGPBOHMJ@File?3?5@ 0000000140072628     libucrt:assert.obj
 0002:00003630       ??_C@_1O@HEMHKNDC@?$AAF?$AAi?$AAl?$AAe?$AA?3?$AA?5@ 0000000140072630     libucrt:assert.obj
 0002:00003640       ??_C@_06FIEBOLOH@Line?3?5@ 0000000140072640     libucrt:assert.obj
 0002:00003648       ??_C@_1O@KCAFKHJE@?$AAL?$AAi?$AAn?$AAe?$AA?3?$AA?5@ 0000000140072648     libucrt:assert.obj
 0002:00003658       ??_C@_0N@MEECIJGN@Expression?3?5@ 0000000140072658     libucrt:assert.obj
 0002:00003668       ??_C@_1BK@PEDCIPMA@?$AAE?$AAx?$AAp?$AAr?$AAe?$AAs?$AAs?$AAi?$AAo?$AAn?$AA?3?$AA?5@ 0000000140072668     libucrt:assert.obj
 0002:00003690       ??_C@_0HA@OJHAGA@For?5information?5on?5how?5your?5pro@ 0000000140072690     libucrt:assert.obj
 0002:00003720       ??_C@_1OA@EGMLFBHJ@?$AAF?$AAo?$AAr?$AA?5?$AAi?$AAn?$AAf?$AAo?$AAr?$AAm?$AAa?$AAt?$AAi?$AAo?$AAn@ 0000000140072720     libucrt:assert.obj
 0002:00003830       ??_C@_0DN@EBBNMLME@?$CIPress?5Retry?5to?5debug?5the?5appli@ 0000000140072830     libucrt:assert.obj
 0002:00003880       ??_C@_1HK@POCJMFGK@?$AA?$CI?$AAP?$AAr?$AAe?$AAs?$AAs?$AA?5?$AAR?$AAe?$AAt?$AAr?$AAy?$AA?5?$AAt?$AAo@ 0000000140072880     libucrt:assert.obj
 0002:00003918       ??_C@_17LGKOMLJ@?$AA?4?$AA?4?$AA?4@ 0000000140072918     libucrt:assert.obj
 0002:00003924       ??_C@_13LBAGMAIH@?$AA?6@   0000000140072924     libucrt:assert.obj
 0002:00003928       ??_C@_02PHMGELLB@?6?6@     0000000140072928     libucrt:assert.obj
 0002:0000392c       ??_C@_15IABLJNFO@?$AA?6?$AA?6@ 000000014007292c     libucrt:assert.obj
 0002:00003938       ??_C@_0BH@DNAGHKFM@?$DMprogram?5name?5unknown?$DO@ 0000000140072938     libucrt:assert.obj
 0002:00003958       ??_C@_1CO@EAEJAADC@?$AA?$DM?$AAp?$AAr?$AAo?$AAg?$AAr?$AAa?$AAm?$AA?5?$AAn?$AAa?$AAm?$AAe?$AA?5?$AAu@ 0000000140072958     libucrt:assert.obj
 0002:00003990       __acrt_exception_action_table 0000000140072990     libucrt:exception_filter.obj
 0002:00003a78       __acrt_signal_action_table_count 0000000140072a78     libucrt:exception_filter.obj
 0002:00003a88       __acrt_signal_action_table_size 0000000140072a88     libucrt:exception_filter.obj
 0002:00003a98       __acrt_signal_action_first_fpe_index 0000000140072a98     libucrt:exception_filter.obj
 0002:00003aa8       __acrt_signal_action_fpe_count 0000000140072aa8     libucrt:exception_filter.obj
 0002:00003ab8       ??_C@_1DE@JNGNBFGO@?$AAR?$AAu?$AAn?$AAt?$AAi?$AAm?$AAe?$AA?5?$AAE?$AAr?$AAr?$AAo?$AAr?$AA?$CB?$AA?6@ 0000000140072ab8     libucrt:report_runtime_error.obj
 0002:00003af8       RtlNtPathSeperatorString   0000000140072af8     libucrt:exit.obj
 0002:00003b0c       ??_C@_13FPGAJAPJ@?$AA?2@   0000000140072b0c     libucrt:exit.obj
 0002:00003b10       RtlDosPathSeperatorsString 0000000140072b10     libucrt:exit.obj
 0002:00003b24       ??_C@_15MNCACJLI@?$AA?2?$AA?1@ 0000000140072b24     libucrt:exit.obj
 0002:00003b30       RtlAlternateDosPathSeperatorString 0000000140072b30     libucrt:exit.obj
 0002:00003b44       ??_C@_13CGOKJPIL@?$AA?1@   0000000140072b44     libucrt:exit.obj
 0002:00003b48       ??_C@_1BI@BGOHAHKC@?$AAm?$AAs?$AAc?$AAo?$AAr?$AAe?$AAe?$AA?4?$AAd?$AAl?$AAl@ 0000000140072b48     libucrt:exit.obj
 0002:00003b68       ??_C@_0P@MIGLKIOC@CorExitProcess@ 0000000140072b68     libucrt:exit.obj
 0002:00003c20       __lc_category              0000000140072c20     libucrt:wsetlocale.obj
 0002:00003cd0       ??_C@_1O@GIFLHMA@?$AAL?$AAC?$AA_?$AAA?$AAL?$AAL@ 0000000140072cd0     libucrt:wsetlocale.obj
 0002:00003ce0       ??_C@_1BG@PPOMIBNJ@?$AAL?$AAC?$AA_?$AAC?$AAO?$AAL?$AAL?$AAA?$AAT?$AAE@ 0000000140072ce0     libucrt:wsetlocale.obj
 0002:00003d00       ??_C@_1BC@FFJGAPJM@?$AAL?$AAC?$AA_?$AAC?$AAT?$AAY?$AAP?$AAE@ 0000000140072d00     libucrt:wsetlocale.obj
 0002:00003d18       ??_C@_1BI@PCKFNJFB@?$AAL?$AAC?$AA_?$AAM?$AAO?$AAN?$AAE?$AAT?$AAA?$AAR?$AAY@ 0000000140072d18     libucrt:wsetlocale.obj
 0002:00003d38       ??_C@_1BG@ENIEDKID@?$AAL?$AAC?$AA_?$AAN?$AAU?$AAM?$AAE?$AAR?$AAI?$AAC@ 0000000140072d38     libucrt:wsetlocale.obj
 0002:00003d58       ??_C@_1BA@HAAOMIIG@?$AAL?$AAC?$AA_?$AAT?$AAI?$AAM?$AAE@ 0000000140072d58     libucrt:wsetlocale.obj
 0002:00003d6c       ??_C@_15NBPDDFIP@?$AA?$DN?$AA?$DL@ 0000000140072d6c     libucrt:wsetlocale.obj
 0002:00003d74       ??_C@_13PJJBFPED@?$AA?$DL@ 0000000140072d74     libucrt:wsetlocale.obj
 0002:00003d78       ??_C@_13NMPKAAJP@?$AA?$DN@ 0000000140072d78     libucrt:wsetlocale.obj
 0002:00003d7c       ??_C@_13IMODFHAA@?$AA?9@   0000000140072d7c     libucrt:wsetlocale.obj
 0002:00003d80       ??_C@_17EFJLDFDO@?$AA?9?$AA_?$AA?4@ 0000000140072d80     libucrt:wsetlocale.obj
 0002:00003d8c       ??_C@_13FHBKNHDA@?$AAC@    0000000140072d8c     libucrt:wsetlocale.obj
 0002:00003d90       ??_C@_17MBJJLFDM@?$AA_?$AA?4?$AA?0@ 0000000140072d90     libucrt:wsetlocale.obj
 0002:00003d9c       ??_C@_13ENNFDPBH@?$AA_@    0000000140072d9c     libucrt:wsetlocale.obj
 0002:00003da0       ??_C@_13JOFGPIOO@?$AA?4@   0000000140072da0     libucrt:wsetlocale.obj
 0002:00003ee8       _Fenv1                     0000000140072ee8     libucrt:atox.obj
 0002:00004170       ??_C@_1EA@JGEFHKEI@?$AAa?$AAp?$AAi?$AA?9?$AAm?$AAs?$AA?9?$AAw?$AAi?$AAn?$AA?9?$AAc?$AAo?$AAr?$AAe@ 0000000140073170     libucrt:winapi_thunks.obj
 0002:000041c0       ??_C@_1DI@IJCEHOCB@?$AAa?$AAp?$AAi?$AA?9?$AAm?$AAs?$AA?9?$AAw?$AAi?$AAn?$AA?9?$AAc?$AAo?$AAr?$AAe@ 00000001400731c0     libucrt:winapi_thunks.obj
 0002:00004210       ??_C@_1EI@MPIAOHOC@?$AAa?$AAp?$AAi?$AA?9?$AAm?$AAs?$AA?9?$AAw?$AAi?$AAn?$AA?9?$AAc?$AAo?$AAr?$AAe@ 0000000140073210     libucrt:winapi_thunks.obj
 0002:00004270       ??_C@_1FK@FPHCKFIE@?$AAa?$AAp?$AAi?$AA?9?$AAm?$AAs?$AA?9?$AAw?$AAi?$AAn?$AA?9?$AAc?$AAo?$AAr?$AAe@ 0000000140073270     libucrt:winapi_thunks.obj
 0002:000042e0       ??_C@_1EM@DILCGIIO@?$AAa?$AAp?$AAi?$AA?9?$AAm?$AAs?$AA?9?$AAw?$AAi?$AAn?$AA?9?$AAc?$AAo?$AAr?$AAe@ 00000001400732e0     libucrt:winapi_thunks.obj
 0002:00004340       ??_C@_1DM@LNCGDDPN@?$AAa?$AAp?$AAi?$AA?9?$AAm?$AAs?$AA?9?$AAw?$AAi?$AAn?$AA?9?$AAc?$AAo?$AAr?$AAe@ 0000000140073340     libucrt:winapi_thunks.obj
 0002:00004388       ??_C@_1DO@FPAPJEMD@?$AAa?$AAp?$AAi?$AA?9?$AAm?$AAs?$AA?9?$AAw?$AAi?$AAn?$AA?9?$AAc?$AAo?$AAr?$AAe@ 0000000140073388     libucrt:winapi_thunks.obj
 0002:000043d8       ??_C@_1DK@NDHNAHIO@?$AAa?$AAp?$AAi?$AA?9?$AAm?$AAs?$AA?9?$AAw?$AAi?$AAn?$AA?9?$AAc?$AAo?$AAr?$AAe@ 00000001400733d8     libucrt:winapi_thunks.obj
 0002:00004420       ??_C@_1DM@KGHDGBCM@?$AAa?$AAp?$AAi?$AA?9?$AAm?$AAs?$AA?9?$AAw?$AAi?$AAn?$AA?9?$AAc?$AAo?$AAr?$AAe@ 0000000140073420     libucrt:winapi_thunks.obj
 0002:00004470       ??_C@_1EO@IJIOEFOH@?$AAa?$AAp?$AAi?$AA?9?$AAm?$AAs?$AA?9?$AAw?$AAi?$AAn?$AA?9?$AAr?$AAt?$AAc?$AAo@ 0000000140073470     libucrt:winapi_thunks.obj
 0002:000044d0       ??_C@_1FG@HHGEKANL@?$AAa?$AAp?$AAi?$AA?9?$AAm?$AAs?$AA?9?$AAw?$AAi?$AAn?$AA?9?$AAs?$AAe?$AAc?$AAu@ 00000001400734d0     libucrt:winapi_thunks.obj
 0002:00004540       ??_C@_1EG@DBIOJECG@?$AAe?$AAx?$AAt?$AA?9?$AAm?$AAs?$AA?9?$AAw?$AAi?$AAn?$AA?9?$AAn?$AAt?$AAu?$AAs@ 0000000140073540     libucrt:winapi_thunks.obj
 0002:000045a0       ??_C@_1EO@FIHMJCLF@?$AAe?$AAx?$AAt?$AA?9?$AAm?$AAs?$AA?9?$AAw?$AAi?$AAn?$AA?9?$AAn?$AAt?$AAu?$AAs@ 00000001400735a0     libucrt:winapi_thunks.obj
 0002:00004600       ??_C@_1BC@DNHGCMLG@?$AAa?$AAd?$AAv?$AAa?$AAp?$AAi?$AA3?$AA2@ 0000000140073600     libucrt:winapi_thunks.obj
 0002:00004618       ??_C@_1M@OAIMIKLP@?$AAn?$AAt?$AAd?$AAl?$AAl@ 0000000140073618     libucrt:winapi_thunks.obj
 0002:00004630       ??_C@_1EG@DPGNFKGC@?$AAa?$AAp?$AAi?$AA?9?$AAm?$AAs?$AA?9?$AAw?$AAi?$AAn?$AA?9?$AAa?$AAp?$AAp?$AAm@ 0000000140073630     libucrt:winapi_thunks.obj
 0002:00004688       ??_C@_1O@BCCLBEOE@?$AAu?$AAs?$AAe?$AAr?$AA3?$AA2@ 0000000140073688     libucrt:winapi_thunks.obj
 0002:00004698       ??_C@_1BA@IAIFMGEF@?$AAe?$AAx?$AAt?$AA?9?$AAm?$AAs?$AA?9@ 0000000140073698     libucrt:winapi_thunks.obj
 0002:000046b0       ??_C@_0BA@FHFNEAED@AreFileApisANSI@ 00000001400736b0     libucrt:winapi_thunks.obj
 0002:000046d8       ??_C@_0BA@IHGNDAEB@CompareStringEx@ 00000001400736d8     libucrt:winapi_thunks.obj
 0002:00004700       ??_C@_0BE@LJANKFHF@EnumSystemLocalesEx@ 0000000140073700     libucrt:winapi_thunks.obj
 0002:00004768       ??_C@_0BA@HNOPNCHB@GetActiveWindow@ 0000000140073768     libucrt:winapi_thunks.obj
 0002:00004790       ??_C@_0BA@EPCJIIPD@GetDateFormatEx@ 0000000140073790     libucrt:winapi_thunks.obj
 0002:000047b8       ??_C@_0BJ@DIBIJBHA@GetEnabledXStateFeatures@ 00000001400737b8     libucrt:winapi_thunks.obj
 0002:000047e8       ??_C@_0BD@HHGDFDBJ@GetLastActivePopup@ 00000001400737e8     libucrt:winapi_thunks.obj
 0002:00004810       ??_C@_0BA@ONOKGCMP@GetLocaleInfoEx@ 0000000140073810     libucrt:winapi_thunks.obj
 0002:00004838       ??_C@_0BI@DFKBFLJE@GetProcessWindowStation@ 0000000140073838     libucrt:winapi_thunks.obj
 0002:00004858       ??_C@_0BP@FPNJPEJC@GetSystemTimePreciseAsFileTime@ 0000000140073858     libucrt:winapi_thunks.obj
 0002:00004890       ??_C@_0BA@CIJJKCJJ@GetTimeFormatEx@ 0000000140073890     libucrt:winapi_thunks.obj
 0002:000048b8       ??_C@_0BJ@PBCCBIPI@GetUserDefaultLocaleName@ 00000001400738b8     libucrt:winapi_thunks.obj
 0002:000048e8       ??_C@_0BK@DEKFELLI@GetUserObjectInformationW@ 00000001400738e8     libucrt:winapi_thunks.obj
 0002:00004918       ??_C@_0BG@IKLDMBLM@GetXStateFeaturesMask@ 0000000140073918     libucrt:winapi_thunks.obj
 0002:00004958       ??_C@_0BC@CELBKLLA@IsValidLocaleName@ 0000000140073958     libucrt:winapi_thunks.obj
 0002:00004980       ??_C@_0O@KKBNKAPF@LCMapStringEx@ 0000000140073980     libucrt:winapi_thunks.obj
 0002:000049a0       ??_C@_0BB@CDHDDLLP@LCIDToLocaleName@ 00000001400739a0     libucrt:winapi_thunks.obj
 0002:000049c8       ??_C@_0BB@HBDEELFH@LocaleNameToLCID@ 00000001400739c8     libucrt:winapi_thunks.obj
 0002:000049f0       ??_C@_0BE@KINNKFDA@LocateXStateFeature@ 00000001400739f0     libucrt:winapi_thunks.obj
 0002:00004a18       ??_C@_0M@CHKKJDAI@MessageBoxA@ 0000000140073a18     libucrt:winapi_thunks.obj
 0002:00004a38       ??_C@_0M@DLDCCGNP@MessageBoxW@ 0000000140073a38     libucrt:winapi_thunks.obj
 0002:00004a50       ??_C@_0N@PPOMPGGK@RoInitialize@ 0000000140073a50     libucrt:winapi_thunks.obj
 0002:00004a68       ??_C@_0P@LLFHBIJD@RoUninitialize@ 0000000140073a68     libucrt:winapi_thunks.obj
 0002:00004a80       ??_C@_0CF@OJOFEIGO@AppPolicyGetProcessTerminationM@ 0000000140073a80     libucrt:winapi_thunks.obj
 0002:00004ab0       ??_C@_0CF@NNDFDCOC@AppPolicyGetThreadInitializatio@ 0000000140073ab0     libucrt:winapi_thunks.obj
 0002:00004ae0       ??_C@_0CE@OICFMIKE@AppPolicyGetShowDeveloperDiagno@ 0000000140073ae0     libucrt:winapi_thunks.obj
 0002:00004b10       ??_C@_0BL@ODDJNEDA@AppPolicyGetWindowingModel@ 0000000140073b10     libucrt:winapi_thunks.obj
 0002:00004b40       ??_C@_0BI@BKLFFAPO@SetThreadStackGuarantee@ 0000000140073b40     libucrt:winapi_thunks.obj
 0002:00004b70       ??_C@_0BC@JEAENNKH@SystemFunction036@ 0000000140073b70     libucrt:winapi_thunks.obj
 0002:00004c2c       ??_C@_03OEIAHPBN@INF@      0000000140073c2c     libucrt:cvt.obj
 0002:00004c30       ??_C@_03OJHLLCGB@inf@      0000000140073c30     libucrt:cvt.obj
 0002:00004c34       ??_C@_03LKNCIKJB@NAN@      0000000140073c34     libucrt:cvt.obj
 0002:00004c38       ??_C@_03LHCJEHON@nan@      0000000140073c38     libucrt:cvt.obj
 0002:00004c40       ??_C@_09OFJJIMPC@NAN?$CISNAN?$CJ@ 0000000140073c40     libucrt:cvt.obj
 0002:00004c50       ??_C@_09IPFBKMDL@nan?$CIsnan?$CJ@ 0000000140073c50     libucrt:cvt.obj
 0002:00004c60       ??_C@_08IKHNHAJ@NAN?$CIIND?$CJ@ 0000000140073c60     libucrt:cvt.obj
 0002:00004c70       ??_C@_08OFCDMILK@nan?$CIind?$CJ@ 0000000140073c70     libucrt:cvt.obj
 0002:00004c7c       ??_C@_05KLBDPFGC@e?$CL000@ 0000000140073c7c     libucrt:cvt.obj
 0002:00004c90       __lc_time_c                0000000140073c90     libucrt:nlsdata.obj
 0002:00004fdc       ??_C@_03KOEHGMDN@Sun@      0000000140073fdc     libucrt:nlsdata.obj
 0002:00004fe0       ??_C@_03PDAGKDH@Mon@       0000000140073fe0     libucrt:nlsdata.obj
 0002:00004fe4       ??_C@_03NAGEINEP@Tue@      0000000140073fe4     libucrt:nlsdata.obj
 0002:00004fe8       ??_C@_03MHOMLAJA@Wed@      0000000140073fe8     libucrt:nlsdata.obj
 0002:00004fec       ??_C@_03IOFIKPDN@Thu@      0000000140073fec     libucrt:nlsdata.obj
 0002:00004ff0       ??_C@_03IDIOELNC@Fri@      0000000140073ff0     libucrt:nlsdata.obj
 0002:00004ff4       ??_C@_03FEFJNEK@Sat@       0000000140073ff4     libucrt:nlsdata.obj
 0002:00004ff8       ??_C@_06OOPIFAJ@Sunday@    0000000140073ff8     libucrt:nlsdata.obj
 0002:00005000       ??_C@_06JLEDEDGH@Monday@   0000000140074000     libucrt:nlsdata.obj
 0002:00005008       ??_C@_07BAAGCFCM@Tuesday@  0000000140074008     libucrt:nlsdata.obj
 0002:00005018       ??_C@_09DLIGFAKA@Wednesday@ 0000000140074018     libucrt:nlsdata.obj
 0002:00005028       ??_C@_08HACCIKIA@Thursday@ 0000000140074028     libucrt:nlsdata.obj
 0002:00005034       ??_C@_06JECMNKMI@Friday@   0000000140074034     libucrt:nlsdata.obj
 0002:00005040       ??_C@_08INBOOONO@Saturday@ 0000000140074040     libucrt:nlsdata.obj
 0002:0000504c       ??_C@_03JIHJHPIE@Jan@      000000014007404c     libucrt:nlsdata.obj
 0002:00005050       ??_C@_03HJBDCHOM@Feb@      0000000140074050     libucrt:nlsdata.obj
 0002:00005054       ??_C@_03ODNJBKGA@Mar@      0000000140074054     libucrt:nlsdata.obj
 0002:00005058       ??_C@_03LEOLGMJP@Apr@      0000000140074058     libucrt:nlsdata.obj
 0002:0000505c       ??_C@_03CNMDKL@May@        000000014007405c     libucrt:nlsdata.obj
 0002:00005060       ??_C@_03IDFGHECI@Jun@      0000000140074060     libucrt:nlsdata.obj
 0002:00005064       ??_C@_03LBGABGKK@Jul@      0000000140074064     libucrt:nlsdata.obj
 0002:00005068       ??_C@_03IFJFEIGA@Aug@      0000000140074068     libucrt:nlsdata.obj
 0002:0000506c       ??_C@_03GGCAPAJC@Sep@      000000014007406c     libucrt:nlsdata.obj
 0002:00005070       ??_C@_03BMAOKBAD@Oct@      0000000140074070     libucrt:nlsdata.obj
 0002:00005074       ??_C@_03JPJOFNIA@Nov@      0000000140074074     libucrt:nlsdata.obj
 0002:00005078       ??_C@_03MKABNOCG@Dec@      0000000140074078     libucrt:nlsdata.obj
 0002:00005080       ??_C@_07CGJPFGJA@January@  0000000140074080     libucrt:nlsdata.obj
 0002:00005090       ??_C@_08GNJGEPFN@February@ 0000000140074090     libucrt:nlsdata.obj
 0002:0000509c       ??_C@_05HPCKOFNC@March@    000000014007409c     libucrt:nlsdata.obj
 0002:000050a4       ??_C@_05DMJDNLEJ@April@    00000001400740a4     libucrt:nlsdata.obj
 0002:000050ac       ??_C@_04CNLMGBGM@June@     00000001400740ac     libucrt:nlsdata.obj
 0002:000050b4       ??_C@_04MIEPOIFP@July@     00000001400740b4     libucrt:nlsdata.obj
 0002:000050bc       ??_C@_06LBBHFDDG@August@   00000001400740bc     libucrt:nlsdata.obj
 0002:000050c8       ??_C@_09BHHEALKD@September@ 00000001400740c8     libucrt:nlsdata.obj
 0002:000050d8       ??_C@_07JJNFCEND@October@  00000001400740d8     libucrt:nlsdata.obj
 0002:000050e8       ??_C@_08HCHEGEOA@November@ 00000001400740e8     libucrt:nlsdata.obj
 0002:000050f8       ??_C@_08EDHMEBNP@December@ 00000001400740f8     libucrt:nlsdata.obj
 0002:00005104       ??_C@_02DEDBPAFC@AM@       0000000140074104     libucrt:nlsdata.obj
 0002:00005108       ??_C@_02CJNFDJBF@PM@       0000000140074108     libucrt:nlsdata.obj
 0002:00005110       ??_C@_08BPBNCDIB@MM?1dd?1yy@ 0000000140074110     libucrt:nlsdata.obj
 0002:00005120       ??_C@_0BE@CKGJFCPC@dddd?0?5MMMM?5dd?0?5yyyy@ 0000000140074120     libucrt:nlsdata.obj
 0002:00005138       ??_C@_08JCCMCCIL@HH?3mm?3ss@ 0000000140074138     libucrt:nlsdata.obj
 0002:00005148       ??_C@_17MBGCMIPB@?$AAS?$AAu?$AAn@ 0000000140074148     libucrt:nlsdata.obj
 0002:00005158       ??_C@_17KBOMKBF@?$AAM?$AAo?$AAn@ 0000000140074158     libucrt:nlsdata.obj
 0002:00005168       ??_C@_17BMKGEGOJ@?$AAT?$AAu?$AAe@ 0000000140074168     libucrt:nlsdata.obj
 0002:00005178       ??_C@_17CJEDCEPE@?$AAW?$AAe?$AAd@ 0000000140074178     libucrt:nlsdata.obj
 0002:00005188       ??_C@_17PDPHAADD@?$AAT?$AAh?$AAu@ 0000000140074188     libucrt:nlsdata.obj
 0002:00005198       ??_C@_17HFOLPPLP@?$AAF?$AAr?$AAi@ 0000000140074198     libucrt:nlsdata.obj
 0002:000051a8       ??_C@_17GGIBDPIH@?$AAS?$AAa?$AAt@ 00000001400741a8     libucrt:nlsdata.obj
 0002:000051b8       ??_C@_1O@IHNHDHPB@?$AAS?$AAu?$AAn?$AAd?$AAa?$AAy@ 00000001400741b8     libucrt:nlsdata.obj
 0002:000051c8       ??_C@_1O@MMNBFLIA@?$AAM?$AAo?$AAn?$AAd?$AAa?$AAy@ 00000001400741c8     libucrt:nlsdata.obj
 0002:000051d8       ??_C@_1BA@ENFBFFEK@?$AAT?$AAu?$AAe?$AAs?$AAd?$AAa?$AAy@ 00000001400741d8     libucrt:nlsdata.obj
 0002:000051f0       ??_C@_1BE@EBOGMDOH@?$AAW?$AAe?$AAd?$AAn?$AAe?$AAs?$AAd?$AAa?$AAy@ 00000001400741f0     libucrt:nlsdata.obj
 0002:00005208       ??_C@_1BC@HHMNLIHE@?$AAT?$AAh?$AAu?$AAr?$AAs?$AAd?$AAa?$AAy@ 0000000140074208     libucrt:nlsdata.obj
 0002:00005220       ??_C@_1O@PDICJHAG@?$AAF?$AAr?$AAi?$AAd?$AAa?$AAy@ 0000000140074220     libucrt:nlsdata.obj
 0002:00005230       ??_C@_1BC@ENMNNPAJ@?$AAS?$AAa?$AAt?$AAu?$AAr?$AAd?$AAa?$AAy@ 0000000140074230     libucrt:nlsdata.obj
 0002:00005248       ??_C@_17DKNBKCHM@?$AAJ?$AAa?$AAn@ 0000000140074248     libucrt:nlsdata.obj
 0002:00005258       ??_C@_17LMDJEKJN@?$AAF?$AAe?$AAb@ 0000000140074258     libucrt:nlsdata.obj
 0002:00005268       ??_C@_17CKNLEDEC@?$AAM?$AAa?$AAr@ 0000000140074268     libucrt:nlsdata.obj
 0002:00005278       ??_C@_17LFPOIHDD@?$AAA?$AAp?$AAr@ 0000000140074278     libucrt:nlsdata.obj
 0002:00005288       ??_C@_17PNNKMEED@?$AAM?$AAa?$AAy@ 0000000140074288     libucrt:nlsdata.obj
 0002:00005298       ??_C@_17KCJGOCPB@?$AAJ?$AAu?$AAn@ 0000000140074298     libucrt:nlsdata.obj
 0002:000052a8       ??_C@_17IJPCKHK@?$AAJ?$AAu?$AAl@ 00000001400742a8     libucrt:nlsdata.obj
 0002:000052b8       ??_C@_17ICPELBCN@?$AAA?$AAu?$AAg@ 00000001400742b8     libucrt:nlsdata.obj
 0002:000052c8       ??_C@_17HCHCOKMG@?$AAS?$AAe?$AAp@ 00000001400742c8     libucrt:nlsdata.obj
 0002:000052d8       ??_C@_17FNLKOI@?$AAO?$AAc?$AAt@ 00000001400742d8     libucrt:nlsdata.obj
 0002:000052e8       ??_C@_17BBDMLCIG@?$AAN?$AAo?$AAv@ 00000001400742e8     libucrt:nlsdata.obj
 0002:000052f8       ??_C@_17EGKACKIF@?$AAD?$AAe?$AAc@ 00000001400742f8     libucrt:nlsdata.obj
 0002:00005308       ??_C@_1BA@EFMEIEBA@?$AAJ?$AAa?$AAn?$AAu?$AAa?$AAr?$AAy@ 0000000140074308     libucrt:nlsdata.obj
 0002:00005320       ??_C@_1BC@JGDDFFAM@?$AAF?$AAe?$AAb?$AAr?$AAu?$AAa?$AAr?$AAy@ 0000000140074320     libucrt:nlsdata.obj
 0002:00005338       ??_C@_1M@IKEENEDF@?$AAM?$AAa?$AAr?$AAc?$AAh@ 0000000140074338     libucrt:nlsdata.obj
 0002:00005348       ??_C@_1M@GJNLMHFD@?$AAA?$AAp?$AAr?$AAi?$AAl@ 0000000140074348     libucrt:nlsdata.obj
 0002:00005358       ??_C@_19EPFLPGAP@?$AAJ?$AAu?$AAn?$AAe@ 0000000140074358     libucrt:nlsdata.obj
 0002:00005368       ??_C@_19BIFMLPCD@?$AAJ?$AAu?$AAl?$AAy@ 0000000140074368     libucrt:nlsdata.obj
 0002:00005378       ??_C@_1O@PAHLKOAC@?$AAA?$AAu?$AAg?$AAu?$AAs?$AAt@ 0000000140074378     libucrt:nlsdata.obj
 0002:00005388       ??_C@_1BE@DKAAMBJL@?$AAS?$AAe?$AAp?$AAt?$AAe?$AAm?$AAb?$AAe?$AAr@ 0000000140074388     libucrt:nlsdata.obj
 0002:000053a0       ??_C@_1BA@EPANDLNG@?$AAO?$AAc?$AAt?$AAo?$AAb?$AAe?$AAr@ 00000001400743a0     libucrt:nlsdata.obj
 0002:000053b8       ??_C@_1BC@BGLIFPF@?$AAN?$AAo?$AAv?$AAe?$AAm?$AAb?$AAe?$AAr@ 00000001400743b8     libucrt:nlsdata.obj
 0002:000053d0       ??_C@_1BC@FEMKIFH@?$AAD?$AAe?$AAc?$AAe?$AAm?$AAb?$AAe?$AAr@ 00000001400743d0     libucrt:nlsdata.obj
 0002:000053e8       ??_C@_15ODEHAHHF@?$AAA?$AAM@ 00000001400743e8     libucrt:nlsdata.obj
 0002:000053f0       ??_C@_15CLMNNGEL@?$AAP?$AAM@ 00000001400743f0     libucrt:nlsdata.obj
 0002:000053f8       ??_C@_1BC@IEBCMHCM@?$AAM?$AAM?$AA?1?$AAd?$AAd?$AA?1?$AAy?$AAy@ 00000001400743f8     libucrt:nlsdata.obj
 0002:00005410       ??_C@_1CI@KNAKOEBC@?$AAd?$AAd?$AAd?$AAd?$AA?0?$AA?5?$AAM?$AAM?$AAM?$AAM?$AA?5?$AAd?$AAd?$AA?0?$AA?5@ 0000000140074410     libucrt:nlsdata.obj
 0002:00005440       ??_C@_1BC@GDGBMEMK@?$AAH?$AAH?$AA?3?$AAm?$AAm?$AA?3?$AAs?$AAs@ 0000000140074440     libucrt:nlsdata.obj
 0002:00005458       ??_C@_1M@BMHNFIME@?$AAe?$AAn?$AA?9?$AAU?$AAS@ 0000000140074458     libucrt:nlsdata.obj
 0002:00005490       ??_C@_1M@HPNHIDJI@?$AAj?$AAa?$AA?9?$AAJ?$AAP@ 0000000140074490     libucrt:mbctype.obj
 0002:000054a0       ??_C@_1M@BIBDDEMK@?$AAz?$AAh?$AA?9?$AAC?$AAN@ 00000001400744a0     libucrt:mbctype.obj
 0002:000054b0       ??_C@_1M@JLOOOEGK@?$AAk?$AAo?$AA?9?$AAK?$AAR@ 00000001400744b0     libucrt:mbctype.obj
 0002:000054c0       ??_C@_1M@CLNBBOPM@?$AAz?$AAh?$AA?9?$AAT?$AAW@ 00000001400744c0     libucrt:mbctype.obj
 0002:000054d0       __newctype                 00000001400744d0     libucrt:ctype.obj
 0002:00005870       __newclmap                 0000000140074870     libucrt:ctype.obj
 0002:00005a40       __newcumap                 0000000140074a40     libucrt:ctype.obj
 0002:00005c10       _wctype                    0000000140074c10     libucrt:ctype.obj
 0002:00005e80       __acrt_rg_language         0000000140074e80     libucrt:get_qualified_locale.obj
 0002:00006360       __acrt_rg_language_count   0000000140075360     libucrt:get_qualified_locale.obj
 0002:00006370       __acrt_rg_country          0000000140075370     libucrt:get_qualified_locale.obj
 0002:00006530       __acrt_rg_country_count    0000000140075530     libucrt:get_qualified_locale.obj
 0002:00006540       ??_C@_1BC@LLOKLNP@?$AAa?$AAm?$AAe?$AAr?$AAi?$AAc?$AAa?$AAn@ 0000000140075540     libucrt:get_qualified_locale.obj
 0002:00006558       ??_C@_1CC@HEIGCDGG@?$AAa?$AAm?$AAe?$AAr?$AAi?$AAc?$AAa?$AAn?$AA?5?$AAe?$AAn?$AAg?$AAl?$AAi?$AAs@ 0000000140075558     libucrt:get_qualified_locale.obj
 0002:00006580       ??_C@_1CC@IHCNOMIN@?$AAa?$AAm?$AAe?$AAr?$AAi?$AAc?$AAa?$AAn?$AA?9?$AAe?$AAn?$AAg?$AAl?$AAi?$AAs@ 0000000140075580     libucrt:get_qualified_locale.obj
 0002:000065a8       ??_C@_1BG@GKAGPCGG@?$AAa?$AAu?$AAs?$AAt?$AAr?$AAa?$AAl?$AAi?$AAa?$AAn@ 00000001400755a8     libucrt:get_qualified_locale.obj
 0002:000065c8       ??_C@_1BA@GMENCENF@?$AAb?$AAe?$AAl?$AAg?$AAi?$AAa?$AAn@ 00000001400755c8     libucrt:get_qualified_locale.obj
 0002:000065e0       ??_C@_1BC@PJMIIAAN@?$AAc?$AAa?$AAn?$AAa?$AAd?$AAi?$AAa?$AAn@ 00000001400755e0     libucrt:get_qualified_locale.obj
 0002:000065f8       ??_C@_17NOIMNFBF@?$AAc?$AAh?$AAh@ 00000001400755f8     libucrt:get_qualified_locale.obj
 0002:00006608       ??_C@_17GGDALCHA@?$AAc?$AAh?$AAi@ 0000000140075608     libucrt:get_qualified_locale.obj
 0002:00006618       ??_C@_1BA@NPNJKIBL@?$AAc?$AAh?$AAi?$AAn?$AAe?$AAs?$AAe@ 0000000140075618     libucrt:get_qualified_locale.obj
 0002:00006630       ??_C@_1CC@DINBAMMJ@?$AAc?$AAh?$AAi?$AAn?$AAe?$AAs?$AAe?$AA?9?$AAh?$AAo?$AAn?$AAg?$AAk?$AAo?$AAn@ 0000000140075630     libucrt:get_qualified_locale.obj
 0002:00006658       ??_C@_1CG@IOBJPACO@?$AAc?$AAh?$AAi?$AAn?$AAe?$AAs?$AAe?$AA?9?$AAs?$AAi?$AAm?$AAp?$AAl?$AAi?$AAf@ 0000000140075658     libucrt:get_qualified_locale.obj
 0002:00006688       ??_C@_1CE@GAJNDCKG@?$AAc?$AAh?$AAi?$AAn?$AAe?$AAs?$AAe?$AA?9?$AAs?$AAi?$AAn?$AAg?$AAa?$AAp?$AAo@ 0000000140075688     libucrt:get_qualified_locale.obj
 0002:000066b8       ??_C@_1CI@PAJPIOOD@?$AAc?$AAh?$AAi?$AAn?$AAe?$AAs?$AAe?$AA?9?$AAt?$AAr?$AAa?$AAd?$AAi?$AAt?$AAi@ 00000001400756b8     libucrt:get_qualified_locale.obj
 0002:000066e8       ??_C@_1BM@NILJBMMD@?$AAd?$AAu?$AAt?$AAc?$AAh?$AA?9?$AAb?$AAe?$AAl?$AAg?$AAi?$AAa?$AAn@ 00000001400756e8     libucrt:get_qualified_locale.obj
 0002:00006710       ??_C@_1CC@OOJPJNEJ@?$AAe?$AAn?$AAg?$AAl?$AAi?$AAs?$AAh?$AA?9?$AAa?$AAm?$AAe?$AAr?$AAi?$AAc?$AAa@ 0000000140075710     libucrt:get_qualified_locale.obj
 0002:00006738       ??_C@_1BI@IOLFEEM@?$AAe?$AAn?$AAg?$AAl?$AAi?$AAs?$AAh?$AA?9?$AAa?$AAu?$AAs@ 0000000140075738     libucrt:get_qualified_locale.obj
 0002:00006758       ??_C@_1BO@HFFNLENJ@?$AAe?$AAn?$AAg?$AAl?$AAi?$AAs?$AAh?$AA?9?$AAb?$AAe?$AAl?$AAi?$AAz?$AAe@ 0000000140075758     libucrt:get_qualified_locale.obj
 0002:00006780       ??_C@_1BI@HAPKJMPO@?$AAe?$AAn?$AAg?$AAl?$AAi?$AAs?$AAh?$AA?9?$AAc?$AAa?$AAn@ 0000000140075780     libucrt:get_qualified_locale.obj
 0002:000067a0       ??_C@_1CE@HLNDMIOJ@?$AAe?$AAn?$AAg?$AAl?$AAi?$AAs?$AAh?$AA?9?$AAc?$AAa?$AAr?$AAi?$AAb?$AAb?$AAe@ 00000001400757a0     libucrt:get_qualified_locale.obj
 0002:000067d0       ??_C@_1BI@LDHJHHAC@?$AAe?$AAn?$AAg?$AAl?$AAi?$AAs?$AAh?$AA?9?$AAi?$AAr?$AAe@ 00000001400757d0     libucrt:get_qualified_locale.obj
 0002:000067f0       ??_C@_1CA@NJMMCFOC@?$AAe?$AAn?$AAg?$AAl?$AAi?$AAs?$AAh?$AA?9?$AAj?$AAa?$AAm?$AAa?$AAi?$AAc?$AAa@ 00000001400757f0     libucrt:get_qualified_locale.obj
 0002:00006818       ??_C@_1BG@BHJEBBGG@?$AAe?$AAn?$AAg?$AAl?$AAi?$AAs?$AAh?$AA?9?$AAn?$AAz@ 0000000140075818     libucrt:get_qualified_locale.obj
 0002:00006838       ??_C@_1CK@FGOEJJCO@?$AAe?$AAn?$AAg?$AAl?$AAi?$AAs?$AAh?$AA?9?$AAs?$AAo?$AAu?$AAt?$AAh?$AA?5?$AAa@ 0000000140075838     libucrt:get_qualified_locale.obj
 0002:00006870       ??_C@_1DE@PDBJPCJ@?$AAe?$AAn?$AAg?$AAl?$AAi?$AAs?$AAh?$AA?9?$AAt?$AAr?$AAi?$AAn?$AAi?$AAd?$AAa@ 0000000140075870     libucrt:get_qualified_locale.obj
 0002:000068b0       ??_C@_1BG@JGCANDME@?$AAe?$AAn?$AAg?$AAl?$AAi?$AAs?$AAh?$AA?9?$AAu?$AAk@ 00000001400758b0     libucrt:get_qualified_locale.obj
 0002:000068d0       ??_C@_1BG@DINKMLE@?$AAe?$AAn?$AAg?$AAl?$AAi?$AAs?$AAh?$AA?9?$AAu?$AAs@ 00000001400758d0     libucrt:get_qualified_locale.obj
 0002:000068f0       ??_C@_1BI@NMFDBHJE@?$AAe?$AAn?$AAg?$AAl?$AAi?$AAs?$AAh?$AA?9?$AAu?$AAs?$AAa@ 00000001400758f0     libucrt:get_qualified_locale.obj
 0002:00006910       ??_C@_1BO@OIHKJKII@?$AAf?$AAr?$AAe?$AAn?$AAc?$AAh?$AA?9?$AAb?$AAe?$AAl?$AAg?$AAi?$AAa?$AAn@ 0000000140075910     libucrt:get_qualified_locale.obj
 0002:00006938       ??_C@_1CA@NKAELJKI@?$AAf?$AAr?$AAe?$AAn?$AAc?$AAh?$AA?9?$AAc?$AAa?$AAn?$AAa?$AAd?$AAi?$AAa?$AAn@ 0000000140075938     libucrt:get_qualified_locale.obj
 0002:00006960       ??_C@_1CE@MGKCNLGN@?$AAf?$AAr?$AAe?$AAn?$AAc?$AAh?$AA?9?$AAl?$AAu?$AAx?$AAe?$AAm?$AAb?$AAo?$AAu@ 0000000140075960     libucrt:get_qualified_locale.obj
 0002:00006990       ??_C@_1BK@CEGEAILM@?$AAf?$AAr?$AAe?$AAn?$AAc?$AAh?$AA?9?$AAs?$AAw?$AAi?$AAs?$AAs@ 0000000140075990     libucrt:get_qualified_locale.obj
 0002:000069b0       ??_C@_1CA@PAFKEOCC@?$AAg?$AAe?$AAr?$AAm?$AAa?$AAn?$AA?9?$AAa?$AAu?$AAs?$AAt?$AAr?$AAi?$AAa?$AAn@ 00000001400759b0     libucrt:get_qualified_locale.obj
 0002:000069d8       ??_C@_1CI@HCFHGOFD@?$AAg?$AAe?$AAr?$AAm?$AAa?$AAn?$AA?9?$AAl?$AAi?$AAc?$AAh?$AAt?$AAe?$AAn?$AAs@ 00000001400759d8     libucrt:get_qualified_locale.obj
 0002:00006a08       ??_C@_1CE@FEDDNPDG@?$AAg?$AAe?$AAr?$AAm?$AAa?$AAn?$AA?9?$AAl?$AAu?$AAx?$AAe?$AAm?$AAb?$AAo?$AAu@ 0000000140075a08     libucrt:get_qualified_locale.obj
 0002:00006a38       ??_C@_1BK@LIMINNMN@?$AAg?$AAe?$AAr?$AAm?$AAa?$AAn?$AA?9?$AAs?$AAw?$AAi?$AAs?$AAs@ 0000000140075a38     libucrt:get_qualified_locale.obj
 0002:00006a58       ??_C@_1BM@LGMDBEPD@?$AAi?$AAr?$AAi?$AAs?$AAh?$AA?9?$AAe?$AAn?$AAg?$AAl?$AAi?$AAs?$AAh@ 0000000140075a58     libucrt:get_qualified_locale.obj
 0002:00006a80       ??_C@_1BM@NNCFBAEE@?$AAi?$AAt?$AAa?$AAl?$AAi?$AAa?$AAn?$AA?9?$AAs?$AAw?$AAi?$AAs?$AAs@ 0000000140075a80     libucrt:get_qualified_locale.obj
 0002:00006aa8       ??_C@_1BE@FEDJNPIB@?$AAn?$AAo?$AAr?$AAw?$AAe?$AAg?$AAi?$AAa?$AAn@ 0000000140075aa8     libucrt:get_qualified_locale.obj
 0002:00006ac0       ??_C@_1CC@CILKDEIE@?$AAn?$AAo?$AAr?$AAw?$AAe?$AAg?$AAi?$AAa?$AAn?$AA?9?$AAb?$AAo?$AAk?$AAm?$AAa@ 0000000140075ac0     libucrt:get_qualified_locale.obj
 0002:00006ae8       ??_C@_1CE@DHMMHEPL@?$AAn?$AAo?$AAr?$AAw?$AAe?$AAg?$AAi?$AAa?$AAn?$AA?9?$AAn?$AAy?$AAn?$AAo?$AAr@ 0000000140075ae8     libucrt:get_qualified_locale.obj
 0002:00006b18       ??_C@_1CK@OPNMHECD@?$AAp?$AAo?$AAr?$AAt?$AAu?$AAg?$AAu?$AAe?$AAs?$AAe?$AA?9?$AAb?$AAr?$AAa?$AAz@ 0000000140075b18     libucrt:get_qualified_locale.obj
 0002:00006b50       ??_C@_1CE@KEEHCDB@?$AAs?$AAp?$AAa?$AAn?$AAi?$AAs?$AAh?$AA?9?$AAa?$AAr?$AAg?$AAe?$AAn?$AAt?$AAi@ 0000000140075b50     libucrt:get_qualified_locale.obj
 0002:00006b80       ??_C@_1CA@GIAOLHJD@?$AAs?$AAp?$AAa?$AAn?$AAi?$AAs?$AAh?$AA?9?$AAb?$AAo?$AAl?$AAi?$AAv?$AAi?$AAa@ 0000000140075b80     libucrt:get_qualified_locale.obj
 0002:00006ba8       ??_C@_1BM@OJNDFNPD@?$AAs?$AAp?$AAa?$AAn?$AAi?$AAs?$AAh?$AA?9?$AAc?$AAh?$AAi?$AAl?$AAe@ 0000000140075ba8     libucrt:get_qualified_locale.obj
 0002:00006bd0       ??_C@_1CC@OCOLPALL@?$AAs?$AAp?$AAa?$AAn?$AAi?$AAs?$AAh?$AA?9?$AAc?$AAo?$AAl?$AAo?$AAm?$AAb?$AAi@ 0000000140075bd0     libucrt:get_qualified_locale.obj
 0002:00006bf8       ??_C@_1CG@BPOFMKBB@?$AAs?$AAp?$AAa?$AAn?$AAi?$AAs?$AAh?$AA?9?$AAc?$AAo?$AAs?$AAt?$AAa?$AA?5?$AAr@ 0000000140075bf8     libucrt:get_qualified_locale.obj
 0002:00006c28       ??_C@_1DG@IGOBAPBB@?$AAs?$AAp?$AAa?$AAn?$AAi?$AAs?$AAh?$AA?9?$AAd?$AAo?$AAm?$AAi?$AAn?$AAi?$AAc@ 0000000140075c28     libucrt:get_qualified_locale.obj
 0002:00006c68       ??_C@_1CA@JHAPGEGI@?$AAs?$AAp?$AAa?$AAn?$AAi?$AAs?$AAh?$AA?9?$AAe?$AAc?$AAu?$AAa?$AAd?$AAo?$AAr@ 0000000140075c68     libucrt:get_qualified_locale.obj
 0002:00006c90       ??_C@_1CI@LAPALJPP@?$AAs?$AAp?$AAa?$AAn?$AAi?$AAs?$AAh?$AA?9?$AAe?$AAl?$AA?5?$AAs?$AAa?$AAl?$AAv@ 0000000140075c90     libucrt:get_qualified_locale.obj
 0002:00006cc0       ??_C@_1CE@PDGBOFOM@?$AAs?$AAp?$AAa?$AAn?$AAi?$AAs?$AAh?$AA?9?$AAg?$AAu?$AAa?$AAt?$AAe?$AAm?$AAa@ 0000000140075cc0     libucrt:get_qualified_locale.obj
 0002:00006cf0       ??_C@_1CC@NBEBAODI@?$AAs?$AAp?$AAa?$AAn?$AAi?$AAs?$AAh?$AA?9?$AAh?$AAo?$AAn?$AAd?$AAu?$AAr?$AAa@ 0000000140075cf0     libucrt:get_qualified_locale.obj
 0002:00006d18       ??_C@_1CA@LLKGHBMF@?$AAs?$AAp?$AAa?$AAn?$AAi?$AAs?$AAh?$AA?9?$AAm?$AAe?$AAx?$AAi?$AAc?$AAa?$AAn@ 0000000140075d18     libucrt:get_qualified_locale.obj
 0002:00006d40       ??_C@_1BO@LKNDOIGD@?$AAs?$AAp?$AAa?$AAn?$AAi?$AAs?$AAh?$AA?9?$AAm?$AAo?$AAd?$AAe?$AAr?$AAn@ 0000000140075d40     libucrt:get_qualified_locale.obj
 0002:00006d68       ??_C@_1CE@NMDMOEEB@?$AAs?$AAp?$AAa?$AAn?$AAi?$AAs?$AAh?$AA?9?$AAn?$AAi?$AAc?$AAa?$AAr?$AAa?$AAg@ 0000000140075d68     libucrt:get_qualified_locale.obj
 0002:00006d98       ??_C@_1BO@LLCBEJGB@?$AAs?$AAp?$AAa?$AAn?$AAi?$AAs?$AAh?$AA?9?$AAp?$AAa?$AAn?$AAa?$AAm?$AAa@ 0000000140075d98     libucrt:get_qualified_locale.obj
 0002:00006dc0       ??_C@_1CC@FKPGGIHO@?$AAs?$AAp?$AAa?$AAn?$AAi?$AAs?$AAh?$AA?9?$AAp?$AAa?$AAr?$AAa?$AAg?$AAu?$AAa@ 0000000140075dc0     libucrt:get_qualified_locale.obj
 0002:00006de8       ??_C@_1BK@CDEIHOOP@?$AAs?$AAp?$AAa?$AAn?$AAi?$AAs?$AAh?$AA?9?$AAp?$AAe?$AAr?$AAu@ 0000000140075de8     libucrt:get_qualified_locale.obj
 0002:00006e08       ??_C@_1CI@GAHAKKGP@?$AAs?$AAp?$AAa?$AAn?$AAi?$AAs?$AAh?$AA?9?$AAp?$AAu?$AAe?$AAr?$AAt?$AAo?$AA?5@ 0000000140075e08     libucrt:get_qualified_locale.obj
 0002:00006e38       ??_C@_1CA@NKJBCAGP@?$AAs?$AAp?$AAa?$AAn?$AAi?$AAs?$AAh?$AA?9?$AAu?$AAr?$AAu?$AAg?$AAu?$AAa?$AAy@ 0000000140075e38     libucrt:get_qualified_locale.obj
 0002:00006e60       ??_C@_1CE@ODILCONM@?$AAs?$AAp?$AAa?$AAn?$AAi?$AAs?$AAh?$AA?9?$AAv?$AAe?$AAn?$AAe?$AAz?$AAu?$AAe@ 0000000140075e60     libucrt:get_qualified_locale.obj
 0002:00006e90       ??_C@_1CA@OBNMCGFO@?$AAs?$AAw?$AAe?$AAd?$AAi?$AAs?$AAh?$AA?9?$AAf?$AAi?$AAn?$AAl?$AAa?$AAn?$AAd@ 0000000140075e90     libucrt:get_qualified_locale.obj
 0002:00006eb8       ??_C@_1M@PIPDDPPI@?$AAs?$AAw?$AAi?$AAs?$AAs@ 0000000140075eb8     libucrt:get_qualified_locale.obj
 0002:00006ec8       ??_C@_15PJPFLCCM@?$AAu?$AAk@ 0000000140075ec8     libucrt:get_qualified_locale.obj
 0002:00006ed0       ??_C@_15GMFIMNFM@?$AAu?$AAs@ 0000000140075ed0     libucrt:get_qualified_locale.obj
 0002:00006ed8       ??_C@_17HAEBFAGL@?$AAu?$AAs?$AAa@ 0000000140075ed8     libucrt:get_qualified_locale.obj
 0002:00006ee8       ??_C@_1BA@DPFJEPHB@?$AAa?$AAm?$AAe?$AAr?$AAi?$AAc?$AAa@ 0000000140075ee8     libucrt:get_qualified_locale.obj
 0002:00006f00       ??_C@_1BA@ELOGGFK@?$AAb?$AAr?$AAi?$AAt?$AAa?$AAi?$AAn@ 0000000140075f00     libucrt:get_qualified_locale.obj
 0002:00006f18       ??_C@_1M@GHBGIGDA@?$AAc?$AAh?$AAi?$AAn?$AAa@ 0000000140075f18     libucrt:get_qualified_locale.obj
 0002:00006f28       ??_C@_1M@NCHEJOPO@?$AAc?$AAz?$AAe?$AAc?$AAh@ 0000000140075f28     libucrt:get_qualified_locale.obj
 0002:00006f38       ??_C@_1BA@BKPAPBLA@?$AAe?$AAn?$AAg?$AAl?$AAa?$AAn?$AAd@ 0000000140075f38     libucrt:get_qualified_locale.obj
 0002:00006f50       ??_C@_1BM@HKBCKIPC@?$AAg?$AAr?$AAe?$AAa?$AAt?$AA?5?$AAb?$AAr?$AAi?$AAt?$AAa?$AAi?$AAn@ 0000000140075f50     libucrt:get_qualified_locale.obj
 0002:00006f78       ??_C@_1BA@PPCHPGJB@?$AAh?$AAo?$AAl?$AAl?$AAa?$AAn?$AAd@ 0000000140075f78     libucrt:get_qualified_locale.obj
 0002:00006f90       ??_C@_1BE@JBMPEGDG@?$AAh?$AAo?$AAn?$AAg?$AA?9?$AAk?$AAo?$AAn?$AAg@ 0000000140075f90     libucrt:get_qualified_locale.obj
 0002:00006fa8       ??_C@_1BI@KOELBBPJ@?$AAn?$AAe?$AAw?$AA?9?$AAz?$AAe?$AAa?$AAl?$AAa?$AAn?$AAd@ 0000000140075fa8     libucrt:get_qualified_locale.obj
 0002:00006fc4       ??_C@_15HIEBHAIO@?$AAn?$AAz@ 0000000140075fc4     libucrt:get_qualified_locale.obj
 0002:00006fd0       ??_C@_1BC@CHBCPFPI@?$AAp?$AAr?$AA?5?$AAc?$AAh?$AAi?$AAn?$AAa@ 0000000140075fd0     libucrt:get_qualified_locale.obj
 0002:00006fe8       ??_C@_1BC@JAOIIFKD@?$AAp?$AAr?$AA?9?$AAc?$AAh?$AAi?$AAn?$AAa@ 0000000140075fe8     libucrt:get_qualified_locale.obj
 0002:00007000       ??_C@_1BI@BEHPPHKC@?$AAp?$AAu?$AAe?$AAr?$AAt?$AAo?$AA?9?$AAr?$AAi?$AAc?$AAo@ 0000000140076000     libucrt:get_qualified_locale.obj
 0002:00007020       ??_C@_1O@PAEOFKDI@?$AAs?$AAl?$AAo?$AAv?$AAa?$AAk@ 0000000140076020     libucrt:get_qualified_locale.obj
 0002:00007030       ??_C@_1BK@FIHMCKAM@?$AAs?$AAo?$AAu?$AAt?$AAh?$AA?5?$AAa?$AAf?$AAr?$AAi?$AAc?$AAa@ 0000000140076030     libucrt:get_qualified_locale.obj
 0002:00007050       ??_C@_1BI@NAEOODKB@?$AAs?$AAo?$AAu?$AAt?$AAh?$AA?5?$AAk?$AAo?$AAr?$AAe?$AAa@ 0000000140076050     libucrt:get_qualified_locale.obj
 0002:00007070       ??_C@_1BK@FBDGGIFF@?$AAs?$AAo?$AAu?$AAt?$AAh?$AA?9?$AAa?$AAf?$AAr?$AAi?$AAc?$AAa@ 0000000140076070     libucrt:get_qualified_locale.obj
 0002:00007090       ??_C@_1BI@GHLEJDPK@?$AAs?$AAo?$AAu?$AAt?$AAh?$AA?9?$AAk?$AAo?$AAr?$AAe?$AAa@ 0000000140076090     libucrt:get_qualified_locale.obj
 0002:000070b0       ??_C@_1CE@PLHLOMJF@?$AAt?$AAr?$AAi?$AAn?$AAi?$AAd?$AAa?$AAd?$AA?5?$AA?$CG?$AA?5?$AAt?$AAo?$AAb?$AAa@ 00000001400760b0     libucrt:get_qualified_locale.obj
 0002:000070e0       ??_C@_1BO@MODIMHHI@?$AAu?$AAn?$AAi?$AAt?$AAe?$AAd?$AA?9?$AAk?$AAi?$AAn?$AAg?$AAd?$AAo?$AAm@ 00000001400760e0     libucrt:get_qualified_locale.obj
 0002:00007108       ??_C@_1BM@FFHJONBJ@?$AAu?$AAn?$AAi?$AAt?$AAe?$AAd?$AA?9?$AAs?$AAt?$AAa?$AAt?$AAe?$AAs@ 0000000140076108     libucrt:get_qualified_locale.obj
 0002:00007130       ??_C@_19MPDNHKDG@?$AAu?$AAt?$AAf?$AA8@ 0000000140076130     libucrt:get_qualified_locale.obj
 0002:00007140       ??_C@_17DNCLJFIF@?$AAA?$AAC?$AAP@ 0000000140076140     libucrt:get_qualified_locale.obj
 0002:00007150       ??_C@_1M@FPEIIFAM@?$AAu?$AAt?$AAf?$AA?9?$AA8@ 0000000140076150     libucrt:get_qualified_locale.obj
 0002:00007160       ??_C@_17CIKBIHLH@?$AAO?$AAC?$AAP@ 0000000140076160     libucrt:get_qualified_locale.obj
 0002:00007170       __rglangidNotDefault       0000000140076170     libucrt:getqloc_downlevel.obj
 0002:000082ac       ??_C@_15EMKDOKLE@?$AAa?$AAr@ 00000001400772ac     libucrt:lcidtoname_downlevel.obj
 0002:000082b4       ??_C@_15KNPADPLH@?$AAb?$AAg@ 00000001400772b4     libucrt:lcidtoname_downlevel.obj
 0002:000082bc       ??_C@_15EDMHLDMO@?$AAc?$AAa@ 00000001400772bc     libucrt:lcidtoname_downlevel.obj
 0002:000082c8       ??_C@_1O@BPEAJADD@?$AAz?$AAh?$AA?9?$AAC?$AAH?$AAS@ 00000001400772c8     libucrt:lcidtoname_downlevel.obj
 0002:000082d8       ??_C@_15LJNHCMNK@?$AAc?$AAs@ 00000001400772d8     libucrt:lcidtoname_downlevel.obj
 0002:000082e0       ??_C@_15FOMCIDHG@?$AAd?$AAa@ 00000001400772e0     libucrt:lcidtoname_downlevel.obj
 0002:000082e8       ??_C@_15NBKABECB@?$AAd?$AAe@ 00000001400772e8     libucrt:lcidtoname_downlevel.obj
 0002:000082f0       ??_C@_15GHPEIIAO@?$AAe?$AAl@ 00000001400772f0     libucrt:lcidtoname_downlevel.obj
 0002:000082f8       ??_C@_15MNPNEAIF@?$AAe?$AAn@ 00000001400772f8     libucrt:lcidtoname_downlevel.obj
 0002:00008300       ??_C@_15GPIOMPMH@?$AAe?$AAs@ 0000000140077300     libucrt:lcidtoname_downlevel.obj
 0002:00008308       ??_C@_15NGLOAKJC@?$AAf?$AAi@ 0000000140077308     libucrt:lcidtoname_downlevel.obj
 0002:00008310       ??_C@_15FBKGNKAM@?$AAf?$AAr@ 0000000140077310     libucrt:lcidtoname_downlevel.obj
 0002:00008318       ??_C@_15KGGCNEFK@?$AAh?$AAe@ 0000000140077318     libucrt:lcidtoname_downlevel.obj
 0002:00008320       ??_C@_15PGHLIDMF@?$AAh?$AAu@ 0000000140077320     libucrt:lcidtoname_downlevel.obj
 0002:00008328       ??_C@_15BIEMAPLM@?$AAi?$AAs@ 0000000140077328     libucrt:lcidtoname_downlevel.obj
 0002:00008330       ??_C@_15IFJLDHAF@?$AAi?$AAt@ 0000000140077330     libucrt:lcidtoname_downlevel.obj
 0002:00008338       ??_C@_15GEMIOCAG@?$AAj?$AAa@ 0000000140077338     libucrt:lcidtoname_downlevel.obj
 0002:00008340       ??_C@_15EPELEGJA@?$AAk?$AAo@ 0000000140077340     libucrt:lcidtoname_downlevel.obj
 0002:00008348       ??_C@_15NDDHIMN@?$AAn?$AAl@ 0000000140077348     libucrt:lcidtoname_downlevel.obj
 0002:00008350       ??_C@_15BPIGNHCD@?$AAn?$AAo@ 0000000140077350     libucrt:lcidtoname_downlevel.obj
 0002:00008358       ??_C@_15DEOPBLCG@?$AAp?$AAl@ 0000000140077358     libucrt:lcidtoname_downlevel.obj
 0002:00008360       ??_C@_15KBECGEFG@?$AAp?$AAt@ 0000000140077360     libucrt:lcidtoname_downlevel.obj
 0002:00008368       ??_C@_15GLJCBFMD@?$AAr?$AAo@ 0000000140077368     libucrt:lcidtoname_downlevel.obj
 0002:00008370       ??_C@_15FEDGKCDI@?$AAr?$AAu@ 0000000140077370     libucrt:lcidtoname_downlevel.obj
 0002:00008378       ??_C@_15GLKMLLHM@?$AAh?$AAr@ 0000000140077378     libucrt:lcidtoname_downlevel.obj
 0002:00008380       ??_C@_15CPKMFBDB@?$AAs?$AAk@ 0000000140077380     libucrt:lcidtoname_downlevel.obj
 0002:00008388       ??_C@_15BAAIOGMK@?$AAs?$AAq@ 0000000140077388     libucrt:lcidtoname_downlevel.obj
 0002:00008390       ??_C@_15INNPNOHD@?$AAs?$AAv@ 0000000140077390     libucrt:lcidtoname_downlevel.obj
 0002:00008398       ??_C@_15CABMMOGH@?$AAt?$AAh@ 0000000140077398     libucrt:lcidtoname_downlevel.obj
 0002:000083a0       ??_C@_15BPLIHJJM@?$AAt?$AAr@ 00000001400773a0     libucrt:lcidtoname_downlevel.obj
 0002:000083a8       ??_C@_15NEOEKKDJ@?$AAu?$AAr@ 00000001400773a8     libucrt:lcidtoname_downlevel.obj
 0002:000083b0       ??_C@_15NFICGAJK@?$AAi?$AAd@ 00000001400773b0     libucrt:lcidtoname_downlevel.obj
 0002:000083b8       ??_C@_15HPJPHDM@?$AAb?$AAe@ 00000001400773b8     libucrt:lcidtoname_downlevel.obj
 0002:000083c0       ??_C@_15LCHLGJII@?$AAs?$AAl@ 00000001400773c0     libucrt:lcidtoname_downlevel.obj
 0002:000083c8       ??_C@_15PCFJPHHO@?$AAe?$AAt@ 00000001400773c8     libucrt:lcidtoname_downlevel.obj
 0002:000083d0       ??_C@_15HPFPGODN@?$AAl?$AAv@ 00000001400773d0     libucrt:lcidtoname_downlevel.obj
 0002:000083d8       ??_C@_15NFFGKGLG@?$AAl?$AAt@ 00000001400773d8     libucrt:lcidtoname_downlevel.obj
 0002:000083e0       ??_C@_15BDAKCCHN@?$AAf?$AAa@ 00000001400773e0     libucrt:lcidtoname_downlevel.obj
 0002:000083e8       ??_C@_15NFGIAIAJ@?$AAv?$AAi@ 00000001400773e8     libucrt:lcidtoname_downlevel.obj
 0002:000083f0       ??_C@_15LMKNDMHN@?$AAh?$AAy@ 00000001400773f0     libucrt:lcidtoname_downlevel.obj
 0002:000083f8       ??_C@_15IJBHMCFL@?$AAa?$AAz@ 00000001400773f8     libucrt:lcidtoname_downlevel.obj
 0002:00008400       ??_C@_15EKOFJABL@?$AAe?$AAu@ 0000000140077400     libucrt:lcidtoname_downlevel.obj
 0002:00008408       ??_C@_15BGHADCNK@?$AAm?$AAk@ 0000000140077408     libucrt:lcidtoname_downlevel.obj
 0002:00008410       ??_C@_15JDNICKHM@?$AAa?$AAf@ 0000000140077410     libucrt:lcidtoname_downlevel.obj
 0002:00008418       ??_C@_15KPJEDBKD@?$AAk?$AAa@ 0000000140077418     libucrt:lcidtoname_downlevel.obj
 0002:00008420       ??_C@_15PDNFFFEO@?$AAf?$AAo@ 0000000140077420     libucrt:lcidtoname_downlevel.obj
 0002:00008428       ??_C@_15OMLEGLOC@?$AAh?$AAi@ 0000000140077428     libucrt:lcidtoname_downlevel.obj
 0002:00008430       ??_C@_15IDNNENKK@?$AAm?$AAs@ 0000000140077430     libucrt:lcidtoname_downlevel.obj
 0002:00008438       ??_C@_15MACJNBMH@?$AAk?$AAk@ 0000000140077438     libucrt:lcidtoname_downlevel.obj
 0002:00008440       ??_C@_15DKDJEOND@?$AAk?$AAy@ 0000000140077440     libucrt:lcidtoname_downlevel.obj
 0002:00008448       ??_C@_15DFGDLJBG@?$AAs?$AAw@ 0000000140077448     libucrt:lcidtoname_downlevel.obj
 0002:00008450       ??_C@_15BBFAICNG@?$AAu?$AAz@ 0000000140077450     libucrt:lcidtoname_downlevel.obj
 0002:00008458       ??_C@_15DKNDCGEA@?$AAt?$AAt@ 0000000140077458     libucrt:lcidtoname_downlevel.obj
 0002:00008460       ??_C@_15MGIFMDPL@?$AAp?$AAa@ 0000000140077460     libucrt:lcidtoname_downlevel.obj
 0002:00008468       ??_C@_15HCNDBBA@?$AAg?$AAu@ 0000000140077468     libucrt:lcidtoname_downlevel.obj
 0002:00008470       ??_C@_15FNBEIBON@?$AAt?$AAa@ 0000000140077470     libucrt:lcidtoname_downlevel.obj
 0002:00008478       ??_C@_15NCHGBGLK@?$AAt?$AAe@ 0000000140077478     libucrt:lcidtoname_downlevel.obj
 0002:00008480       ??_C@_15PHPHCBPF@?$AAk?$AAn@ 0000000140077480     libucrt:lcidtoname_downlevel.obj
 0002:00008488       ??_C@_15DLGBCKMP@?$AAm?$AAr@ 0000000140077488     libucrt:lcidtoname_downlevel.obj
 0002:00008490       ??_C@_15EABBLBFF@?$AAs?$AAa@ 0000000140077490     libucrt:lcidtoname_downlevel.obj
 0002:00008498       ??_C@_15CBKOMCOI@?$AAm?$AAn@ 0000000140077498     libucrt:lcidtoname_downlevel.obj
 0002:000084a0       ??_C@_15CKDMCJAF@?$AAg?$AAl@ 00000001400774a0     libucrt:lcidtoname_downlevel.obj
 0002:000084a8       ??_C@_17CNJFBPG@?$AAk?$AAo?$AAk@ 00000001400774a8     libucrt:lcidtoname_downlevel.obj
 0002:000084b8       ??_C@_17FFBJICPL@?$AAs?$AAy?$AAr@ 00000001400774b8     libucrt:lcidtoname_downlevel.obj
 0002:000084c8       ??_C@_17KPNDCPAF@?$AAd?$AAi?$AAv@ 00000001400774c8     libucrt:lcidtoname_downlevel.obj
 0002:000084d4       ??_C@_11LOCGONAA@@         00000001400774d4     libucrt:lcidtoname_downlevel.obj
 0002:000084d8       ??_C@_1M@OKAHONE@?$AAa?$AAr?$AA?9?$AAS?$AAA@ 00000001400774d8     libucrt:lcidtoname_downlevel.obj
 0002:000084e8       ??_C@_1M@FFFIGIGK@?$AAb?$AAg?$AA?9?$AAB?$AAG@ 00000001400774e8     libucrt:lcidtoname_downlevel.obj
 0002:000084f8       ??_C@_1M@BJNKEDC@?$AAc?$AAa?$AA?9?$AAE?$AAS@ 00000001400774f8     libucrt:lcidtoname_downlevel.obj
 0002:00008508       ??_C@_1M@IJJHFJHA@?$AAc?$AAs?$AA?9?$AAC?$AAZ@ 0000000140077508     libucrt:lcidtoname_downlevel.obj
 0002:00008518       ??_C@_1M@CLPEOBGI@?$AAd?$AAa?$AA?9?$AAD?$AAK@ 0000000140077518     libucrt:lcidtoname_downlevel.obj
 0002:00008528       ??_C@_1M@MCMADGCB@?$AAd?$AAe?$AA?9?$AAD?$AAE@ 0000000140077528     libucrt:lcidtoname_downlevel.obj
 0002:00008538       ??_C@_1M@OOCKEMAM@?$AAe?$AAl?$AA?9?$AAG?$AAR@ 0000000140077538     libucrt:lcidtoname_downlevel.obj
 0002:00008548       ??_C@_1M@DDNJFGID@?$AAf?$AAi?$AA?9?$AAF?$AAI@ 0000000140077548     libucrt:lcidtoname_downlevel.obj
 0002:00008558       ??_C@_1M@GLIPPMAC@?$AAf?$AAr?$AA?9?$AAF?$AAR@ 0000000140077558     libucrt:lcidtoname_downlevel.obj
 0002:00008568       ??_C@_1M@GFMCHPE@?$AAh?$AAe?$AA?9?$AAI?$AAL@ 0000000140077568     libucrt:lcidtoname_downlevel.obj
 0002:00008578       ??_C@_1M@MHLPGNKM@?$AAh?$AAu?$AA?9?$AAH?$AAU@ 0000000140077578     libucrt:lcidtoname_downlevel.obj
 0002:00008588       ??_C@_1M@LPDDNNPN@?$AAi?$AAs?$AA?9?$AAI?$AAS@ 0000000140077588     libucrt:lcidtoname_downlevel.obj
 0002:00008598       ??_C@_1M@MADIPODN@?$AAi?$AAt?$AA?9?$AAI?$AAT@ 0000000140077598     libucrt:lcidtoname_downlevel.obj
 0002:000085a8       ??_C@_1M@IHBJJGG@?$AAn?$AAl?$AA?9?$AAN?$AAL@ 00000001400775a8     libucrt:lcidtoname_downlevel.obj
 0002:000085b8       ??_C@_1M@EANAGDL@?$AAn?$AAb?$AA?9?$AAN?$AAO@ 00000001400775b8     libucrt:lcidtoname_downlevel.obj
 0002:000085c8       ??_C@_1M@NEIEMEGP@?$AAp?$AAl?$AA?9?$AAP?$AAL@ 00000001400775c8     libucrt:lcidtoname_downlevel.obj
 0002:000085d8       ??_C@_1M@BOCFIGEP@?$AAp?$AAt?$AA?9?$AAB?$AAR@ 00000001400775d8     libucrt:lcidtoname_downlevel.obj
 0002:000085e8       ??_C@_1M@IMPFOPBG@?$AAr?$AAo?$AA?9?$AAR?$AAO@ 00000001400775e8     libucrt:lcidtoname_downlevel.obj
 0002:000085f8       ??_C@_1M@IDNNEJMM@?$AAr?$AAu?$AA?9?$AAR?$AAU@ 00000001400775f8     libucrt:lcidtoname_downlevel.obj
 0002:00008608       ??_C@_1M@LILEEOGM@?$AAh?$AAr?$AA?9?$AAH?$AAR@ 0000000140077608     libucrt:lcidtoname_downlevel.obj
 0002:00008618       ??_C@_1M@FKIFEHPB@?$AAs?$AAk?$AA?9?$AAS?$AAK@ 0000000140077618     libucrt:lcidtoname_downlevel.obj
 0002:00008628       ??_C@_1M@LJMAMNPJ@?$AAs?$AAq?$AA?9?$AAA?$AAL@ 0000000140077628     libucrt:lcidtoname_downlevel.obj
 0002:00008638       ??_C@_1M@GIAKDKJK@?$AAs?$AAv?$AA?9?$AAS?$AAE@ 0000000140077638     libucrt:lcidtoname_downlevel.obj
 0002:00008648       ??_C@_1M@MKJKIKCL@?$AAt?$AAh?$AA?9?$AAT?$AAH@ 0000000140077648     libucrt:lcidtoname_downlevel.obj
 0002:00008658       ??_C@_1M@MFLCCMPB@?$AAt?$AAr?$AA?9?$AAT?$AAR@ 0000000140077658     libucrt:lcidtoname_downlevel.obj
 0002:00008668       ??_C@_1M@OIJHDKJN@?$AAu?$AAr?$AA?9?$AAP?$AAK@ 0000000140077668     libucrt:lcidtoname_downlevel.obj
 0002:00008678       ??_C@_1M@LHIPCIEK@?$AAi?$AAd?$AA?9?$AAI?$AAD@ 0000000140077678     libucrt:lcidtoname_downlevel.obj
 0002:00008688       ??_C@_1M@MFMOBGI@?$AAu?$AAk?$AA?9?$AAU?$AAA@ 0000000140077688     libucrt:lcidtoname_downlevel.obj
 0002:00008698       ??_C@_1M@OBGLJIPL@?$AAb?$AAe?$AA?9?$AAB?$AAY@ 0000000140077698     libucrt:lcidtoname_downlevel.obj
 0002:000086a8       ??_C@_1M@BCFAJEAD@?$AAs?$AAl?$AA?9?$AAS?$AAI@ 00000001400776a8     libucrt:lcidtoname_downlevel.obj
 0002:000086b8       ??_C@_1M@FKFFEDDN@?$AAe?$AAt?$AA?9?$AAE?$AAE@ 00000001400776b8     libucrt:lcidtoname_downlevel.obj
 0002:000086c8       ??_C@_1M@KGKKAACI@?$AAl?$AAv?$AA?9?$AAL?$AAV@ 00000001400776c8     libucrt:lcidtoname_downlevel.obj
 0002:000086d8       ??_C@_1M@IFGBIJO@?$AAl?$AAt?$AA?9?$AAL?$AAT@ 00000001400776d8     libucrt:lcidtoname_downlevel.obj
 0002:000086e8       ??_C@_1M@FGEAHEDM@?$AAf?$AAa?$AA?9?$AAI?$AAR@ 00000001400776e8     libucrt:lcidtoname_downlevel.obj
 0002:000086f8       ??_C@_1M@KBMAIBFN@?$AAv?$AAi?$AA?9?$AAV?$AAN@ 00000001400776f8     libucrt:lcidtoname_downlevel.obj
 0002:00008708       ??_C@_1M@GPCBKDJK@?$AAh?$AAy?$AA?9?$AAA?$AAM@ 0000000140077708     libucrt:lcidtoname_downlevel.obj
 0002:00008718       ??_C@_1BG@BECMDDJB@?$AAa?$AAz?$AA?9?$AAA?$AAZ?$AA?9?$AAL?$AAa?$AAt?$AAn@ 0000000140077718     libucrt:lcidtoname_downlevel.obj
 0002:00008738       ??_C@_1M@MAOFCAEA@?$AAe?$AAu?$AA?9?$AAE?$AAS@ 0000000140077738     libucrt:lcidtoname_downlevel.obj
 0002:00008748       ??_C@_1M@IGHABKPI@?$AAm?$AAk?$AA?9?$AAM?$AAK@ 0000000140077748     libucrt:lcidtoname_downlevel.obj
 0002:00008758       ??_C@_1M@IAIGNEJG@?$AAt?$AAn?$AA?9?$AAZ?$AAA@ 0000000140077758     libucrt:lcidtoname_downlevel.obj
 0002:00008768       ??_C@_1M@IIJCOJFA@?$AAx?$AAh?$AA?9?$AAZ?$AAA@ 0000000140077768     libucrt:lcidtoname_downlevel.obj
 0002:00008778       ??_C@_1M@LGPJHNJH@?$AAz?$AAu?$AA?9?$AAZ?$AAA@ 0000000140077778     libucrt:lcidtoname_downlevel.obj
 0002:00008788       ??_C@_1M@HOKAOIO@?$AAa?$AAf?$AA?9?$AAZ?$AAA@ 0000000140077788     libucrt:lcidtoname_downlevel.obj
 0002:00008798       ??_C@_1M@DPCLHLIE@?$AAk?$AAa?$AA?9?$AAG?$AAE@ 0000000140077798     libucrt:lcidtoname_downlevel.obj
 0002:000087a8       ??_C@_1M@BLKMHJBI@?$AAf?$AAo?$AA?9?$AAF?$AAO@ 00000001400777a8     libucrt:lcidtoname_downlevel.obj
 0002:000087b8       ??_C@_1M@LGGJAPPB@?$AAh?$AAi?$AA?9?$AAI?$AAN@ 00000001400777b8     libucrt:lcidtoname_downlevel.obj
 0002:000087c8       ??_C@_1M@FIKPIHFE@?$AAm?$AAt?$AA?9?$AAM?$AAT@ 00000001400777c8     libucrt:lcidtoname_downlevel.obj
 0002:000087d8       ??_C@_1M@HEGGPBFA@?$AAs?$AAe?$AA?9?$AAN?$AAO@ 00000001400777d8     libucrt:lcidtoname_downlevel.obj
 0002:000087e8       ??_C@_1M@EIBJEEPA@?$AAm?$AAs?$AA?9?$AAM?$AAY@ 00000001400777e8     libucrt:lcidtoname_downlevel.obj
 0002:000087f8       ??_C@_1M@FHLBGMPP@?$AAk?$AAk?$AA?9?$AAK?$AAZ@ 00000001400777f8     libucrt:lcidtoname_downlevel.obj
 0002:00008808       ??_C@_1M@NGJJLCGI@?$AAk?$AAy?$AA?9?$AAK?$AAG@ 0000000140077808     libucrt:lcidtoname_downlevel.obj
 0002:00008818       ??_C@_1M@GIENNBFC@?$AAs?$AAw?$AA?9?$AAK?$AAE@ 0000000140077818     libucrt:lcidtoname_downlevel.obj
 0002:00008828       ??_C@_1BG@NDGMJIMJ@?$AAu?$AAz?$AA?9?$AAU?$AAZ?$AA?9?$AAL?$AAa?$AAt?$AAn@ 0000000140077828     libucrt:lcidtoname_downlevel.obj
 0002:00008848       ??_C@_1M@IDCCIHBC@?$AAt?$AAt?$AA?9?$AAR?$AAU@ 0000000140077848     libucrt:lcidtoname_downlevel.obj
 0002:00008858       ??_C@_1M@LOICPMOJ@?$AAb?$AAn?$AA?9?$AAI?$AAN@ 0000000140077858     libucrt:lcidtoname_downlevel.obj
 0002:00008868       ??_C@_1M@KPKKNEAH@?$AAp?$AAa?$AA?9?$AAI?$AAN@ 0000000140077868     libucrt:lcidtoname_downlevel.obj
 0002:00008878       ??_C@_1M@PJGPPBOG@?$AAg?$AAu?$AA?9?$AAI?$AAN@ 0000000140077878     libucrt:lcidtoname_downlevel.obj
 0002:00008888       ??_C@_1M@KMKMOPHI@?$AAt?$AAa?$AA?9?$AAI?$AAN@ 0000000140077888     libucrt:lcidtoname_downlevel.obj
 0002:00008898       ??_C@_1M@KFEHEPAC@?$AAt?$AAe?$AA?9?$AAI?$AAN@ 0000000140077898     libucrt:lcidtoname_downlevel.obj
 0002:000088a8       ??_C@_1M@CDCLMGHI@?$AAk?$AAn?$AA?9?$AAI?$AAN@ 00000001400778a8     libucrt:lcidtoname_downlevel.obj
 0002:000088b8       ??_C@_1M@MIODLDKF@?$AAm?$AAl?$AA?9?$AAI?$AAN@ 00000001400778b8     libucrt:lcidtoname_downlevel.obj
 0002:000088c8       ??_C@_1M@PBIEACPO@?$AAm?$AAr?$AA?9?$AAI?$AAN@ 00000001400778c8     libucrt:lcidtoname_downlevel.obj
 0002:000088d8       ??_C@_1M@NIDEAGPH@?$AAs?$AAa?$AA?9?$AAI?$AAN@ 00000001400778d8     libucrt:lcidtoname_downlevel.obj
 0002:000088e8       ??_C@_1M@FHIHCBIO@?$AAm?$AAn?$AA?9?$AAM?$AAN@ 00000001400778e8     libucrt:lcidtoname_downlevel.obj
 0002:000088f8       ??_C@_1M@JAIJPENP@?$AAc?$AAy?$AA?9?$AAG?$AAB@ 00000001400778f8     libucrt:lcidtoname_downlevel.obj
 0002:00008908       ??_C@_1M@PHGFBEPN@?$AAg?$AAl?$AA?9?$AAE?$AAS@ 0000000140077908     libucrt:lcidtoname_downlevel.obj
 0002:00008918       ??_C@_1O@KPIPDNCP@?$AAk?$AAo?$AAk?$AA?9?$AAI?$AAN@ 0000000140077918     libucrt:lcidtoname_downlevel.obj
 0002:00008928       ??_C@_1O@KNHJLDJA@?$AAs?$AAy?$AAr?$AA?9?$AAS?$AAY@ 0000000140077928     libucrt:lcidtoname_downlevel.obj
 0002:00008938       ??_C@_1O@MKEKBLAH@?$AAd?$AAi?$AAv?$AA?9?$AAM?$AAV@ 0000000140077938     libucrt:lcidtoname_downlevel.obj
 0002:00008948       ??_C@_1O@OHDCKDDF@?$AAq?$AAu?$AAz?$AA?9?$AAB?$AAO@ 0000000140077948     libucrt:lcidtoname_downlevel.obj
 0002:00008958       ??_C@_1M@LEPJNLFD@?$AAn?$AAs?$AA?9?$AAZ?$AAA@ 0000000140077958     libucrt:lcidtoname_downlevel.obj
 0002:00008968       ??_C@_1M@OMLEIIJB@?$AAm?$AAi?$AA?9?$AAN?$AAZ@ 0000000140077968     libucrt:lcidtoname_downlevel.obj
 0002:00008978       ??_C@_1M@PMPEAILG@?$AAa?$AAr?$AA?9?$AAI?$AAQ@ 0000000140077978     libucrt:lcidtoname_downlevel.obj
 0002:00008988       ??_C@_1M@CNKPNOEE@?$AAd?$AAe?$AA?9?$AAC?$AAH@ 0000000140077988     libucrt:lcidtoname_downlevel.obj
 0002:00008998       ??_C@_1M@LKMGMLKO@?$AAe?$AAn?$AA?9?$AAG?$AAB@ 0000000140077998     libucrt:lcidtoname_downlevel.obj
 0002:000089a8       ??_C@_1M@PGKJFFGL@?$AAe?$AAs?$AA?9?$AAM?$AAX@ 00000001400779a8     libucrt:lcidtoname_downlevel.obj
 0002:000089b8       ??_C@_1M@DNNANBDC@?$AAf?$AAr?$AA?9?$AAB?$AAE@ 00000001400779b8     libucrt:lcidtoname_downlevel.obj
 0002:000089c8       ??_C@_1M@HLGMDFHM@?$AAi?$AAt?$AA?9?$AAC?$AAH@ 00000001400779c8     libucrt:lcidtoname_downlevel.obj
 0002:000089d8       ??_C@_1M@CLLBGJH@?$AAn?$AAl?$AA?9?$AAB?$AAE@ 00000001400779d8     libucrt:lcidtoname_downlevel.obj
 0002:000089e8       ??_C@_1M@BODBOGLF@?$AAn?$AAn?$AA?9?$AAN?$AAO@ 00000001400779e8     libucrt:lcidtoname_downlevel.obj
 0002:000089f8       ??_C@_1M@HFFAHKAD@?$AAp?$AAt?$AA?9?$AAP?$AAT@ 00000001400779f8     libucrt:lcidtoname_downlevel.obj
 0002:00008a08       ??_C@_1BG@LNOAKHIE@?$AAs?$AAr?$AA?9?$AAS?$AAP?$AA?9?$AAL?$AAa?$AAt?$AAn@ 0000000140077a08     libucrt:lcidtoname_downlevel.obj
 0002:00008a28       ??_C@_1M@HBMHBGAK@?$AAs?$AAv?$AA?9?$AAF?$AAI@ 0000000140077a28     libucrt:lcidtoname_downlevel.obj
 0002:00008a38       ??_C@_1BG@DGCJGJBE@?$AAa?$AAz?$AA?9?$AAA?$AAZ?$AA?9?$AAC?$AAy?$AAr?$AAl@ 0000000140077a38     libucrt:lcidtoname_downlevel.obj
 0002:00008a58       ??_C@_1M@KEJDAAHB@?$AAs?$AAe?$AA?9?$AAS?$AAE@ 0000000140077a58     libucrt:lcidtoname_downlevel.obj
 0002:00008a68       ??_C@_1M@HEIBJJAD@?$AAm?$AAs?$AA?9?$AAB?$AAN@ 0000000140077a68     libucrt:lcidtoname_downlevel.obj
 0002:00008a78       ??_C@_1BG@PBGJMCEM@?$AAu?$AAz?$AA?9?$AAU?$AAZ?$AA?9?$AAC?$AAy?$AAr?$AAl@ 0000000140077a78     libucrt:lcidtoname_downlevel.obj
 0002:00008a98       ??_C@_1O@LAOBCMDF@?$AAq?$AAu?$AAz?$AA?9?$AAE?$AAC@ 0000000140077a98     libucrt:lcidtoname_downlevel.obj
 0002:00008aa8       ??_C@_1M@POEEMAIO@?$AAa?$AAr?$AA?9?$AAE?$AAG@ 0000000140077aa8     libucrt:lcidtoname_downlevel.obj
 0002:00008ab8       ??_C@_1M@EFAKDEDL@?$AAz?$AAh?$AA?9?$AAH?$AAK@ 0000000140077ab8     libucrt:lcidtoname_downlevel.obj
 0002:00008ac8       ??_C@_1M@HKKIJHGI@?$AAd?$AAe?$AA?9?$AAA?$AAT@ 0000000140077ac8     libucrt:lcidtoname_downlevel.obj
 0002:00008ad8       ??_C@_1M@KBFBEHJF@?$AAe?$AAn?$AA?9?$AAA?$AAU@ 0000000140077ad8     libucrt:lcidtoname_downlevel.obj
 0002:00008ae8       ??_C@_1M@MNPLFAAH@?$AAe?$AAs?$AA?9?$AAE?$AAS@ 0000000140077ae8     libucrt:lcidtoname_downlevel.obj
 0002:00008af8       ??_C@_1M@HJOOJFMA@?$AAf?$AAr?$AA?9?$AAC?$AAA@ 0000000140077af8     libucrt:lcidtoname_downlevel.obj
 0002:00008b08       ??_C@_1BG@JPOFPNAB@?$AAs?$AAr?$AA?9?$AAS?$AAP?$AA?9?$AAC?$AAy?$AAr?$AAl@ 0000000140077b08     libucrt:lcidtoname_downlevel.obj
 0002:00008b28       ??_C@_1M@LNFOCMOB@?$AAs?$AAe?$AA?9?$AAF?$AAI@ 0000000140077b28     libucrt:lcidtoname_downlevel.obj
 0002:00008b38       ??_C@_1O@MGJBOAMB@?$AAq?$AAu?$AAz?$AA?9?$AAP?$AAE@ 0000000140077b38     libucrt:lcidtoname_downlevel.obj
 0002:00008b48       ??_C@_1M@GJINLBOK@?$AAa?$AAr?$AA?9?$AAL?$AAY@ 0000000140077b48     libucrt:lcidtoname_downlevel.obj
 0002:00008b58       ??_C@_1M@GGMNHJNL@?$AAz?$AAh?$AA?9?$AAS?$AAG@ 0000000140077b58     libucrt:lcidtoname_downlevel.obj
 0002:00008b68       ??_C@_1M@HOIKODND@?$AAd?$AAe?$AA?9?$AAL?$AAU@ 0000000140077b68     libucrt:lcidtoname_downlevel.obj
 0002:00008b78       ??_C@_1M@DDOCCGFG@?$AAe?$AAn?$AA?9?$AAC?$AAA@ 0000000140077b78     libucrt:lcidtoname_downlevel.obj
 0002:00008b88       ??_C@_1M@BNOEMJLF@?$AAe?$AAs?$AA?9?$AAG?$AAT@ 0000000140077b88     libucrt:lcidtoname_downlevel.obj
 0002:00008b98       ??_C@_1M@EOGNKEK@?$AAf?$AAr?$AA?9?$AAC?$AAH@ 0000000140077b98     libucrt:lcidtoname_downlevel.obj
 0002:00008ba8       ??_C@_1M@FLIDJFHL@?$AAh?$AAr?$AA?9?$AAB?$AAA@ 0000000140077ba8     libucrt:lcidtoname_downlevel.obj
 0002:00008bb8       ??_C@_1O@FMCELNAJ@?$AAs?$AAm?$AAj?$AA?9?$AAN?$AAO@ 0000000140077bb8     libucrt:lcidtoname_downlevel.obj
 0002:00008bc8       ??_C@_1M@JHGLJMGJ@?$AAa?$AAr?$AA?9?$AAD?$AAZ@ 0000000140077bc8     libucrt:lcidtoname_downlevel.obj
 0002:00008bd8       ??_C@_1M@JKKFDCNP@?$AAz?$AAh?$AA?9?$AAM?$AAO@ 0000000140077bd8     libucrt:lcidtoname_downlevel.obj
 0002:00008be8       ??_C@_1M@GEEFALPE@?$AAd?$AAe?$AA?9?$AAL?$AAI@ 0000000140077be8     libucrt:lcidtoname_downlevel.obj
 0002:00008bf8       ??_C@_1M@IGEOFBG@?$AAe?$AAn?$AA?9?$AAN?$AAZ@ 0000000140077bf8     libucrt:lcidtoname_downlevel.obj
 0002:00008c08       ??_C@_1M@KDBONEHP@?$AAe?$AAs?$AA?9?$AAC?$AAR@ 0000000140077c08     libucrt:lcidtoname_downlevel.obj
 0002:00008c18       ??_C@_1M@FHMDOHNN@?$AAf?$AAr?$AA?9?$AAL?$AAU@ 0000000140077c18     libucrt:lcidtoname_downlevel.obj
 0002:00008c28       ??_C@_1BG@NFKKMAFG@?$AAb?$AAs?$AA?9?$AAB?$AAA?$AA?9?$AAL?$AAa?$AAt?$AAn@ 0000000140077c28     libucrt:lcidtoname_downlevel.obj
 0002:00008c48       ??_C@_1O@IMNBEMCI@?$AAs?$AAm?$AAj?$AA?9?$AAS?$AAE@ 0000000140077c48     libucrt:lcidtoname_downlevel.obj
 0002:00008c58       ??_C@_1M@DHHMBNDP@?$AAa?$AAr?$AA?9?$AAM?$AAA@ 0000000140077c58     libucrt:lcidtoname_downlevel.obj
 0002:00008c68       ??_C@_1M@BNBLJCGH@?$AAe?$AAn?$AA?9?$AAI?$AAE@ 0000000140077c68     libucrt:lcidtoname_downlevel.obj
 0002:00008c78       ??_C@_1M@GEPAFMDL@?$AAe?$AAs?$AA?9?$AAP?$AAA@ 0000000140077c78     libucrt:lcidtoname_downlevel.obj
 0002:00008c88       ??_C@_1M@OJONDMDL@?$AAf?$AAr?$AA?9?$AAM?$AAC@ 0000000140077c88     libucrt:lcidtoname_downlevel.obj
 0002:00008c98       ??_C@_1BG@OBCNFJB@?$AAs?$AAr?$AA?9?$AAB?$AAA?$AA?9?$AAL?$AAa?$AAt?$AAn@ 0000000140077c98     libucrt:lcidtoname_downlevel.obj
 0002:00008cb8       ??_C@_1O@KEMEEGPO@?$AAs?$AAm?$AAa?$AA?9?$AAN?$AAO@ 0000000140077cb8     libucrt:lcidtoname_downlevel.obj
 0002:00008cc8       ??_C@_1M@ELMGFODK@?$AAa?$AAr?$AA?9?$AAT?$AAN@ 0000000140077cc8     libucrt:lcidtoname_downlevel.obj
 0002:00008cd8       ??_C@_1M@BHDLHFAF@?$AAe?$AAn?$AA?9?$AAZ?$AAA@ 0000000140077cd8     libucrt:lcidtoname_downlevel.obj
 0002:00008ce8       ??_C@_1M@BMGIGLIF@?$AAe?$AAs?$AA?9?$AAD?$AAO@ 0000000140077ce8     libucrt:lcidtoname_downlevel.obj
 0002:00008cf8       ??_C@_1BG@CMBHIPBE@?$AAs?$AAr?$AA?9?$AAB?$AAA?$AA?9?$AAC?$AAy?$AAr?$AAl@ 0000000140077cf8     libucrt:lcidtoname_downlevel.obj
 0002:00008d18       ??_C@_1O@HEDBLHNP@?$AAs?$AAm?$AAa?$AA?9?$AAS?$AAE@ 0000000140077d18     libucrt:lcidtoname_downlevel.obj
 0002:00008d28       ??_C@_1M@DAGCADIM@?$AAa?$AAr?$AA?9?$AAO?$AAM@ 0000000140077d28     libucrt:lcidtoname_downlevel.obj
 0002:00008d38       ??_C@_1M@FODLMICG@?$AAe?$AAn?$AA?9?$AAJ?$AAM@ 0000000140077d38     libucrt:lcidtoname_downlevel.obj
 0002:00008d48       ??_C@_1M@DNMLCIHB@?$AAe?$AAs?$AA?9?$AAV?$AAE@ 0000000140077d48     libucrt:lcidtoname_downlevel.obj
 0002:00008d58       ??_C@_1O@EOKHMKJK@?$AAs?$AAm?$AAs?$AA?9?$AAF?$AAI@ 0000000140077d58     libucrt:lcidtoname_downlevel.obj
 0002:00008d68       ??_C@_1M@CAFJMKOF@?$AAa?$AAr?$AA?9?$AAY?$AAE@ 0000000140077d68     libucrt:lcidtoname_downlevel.obj
 0002:00008d78       ??_C@_1M@CBFHIJLI@?$AAe?$AAn?$AA?9?$AAC?$AAB@ 0000000140077d78     libucrt:lcidtoname_downlevel.obj
 0002:00008d88       ??_C@_1M@BGNFLDN@?$AAe?$AAs?$AA?9?$AAC?$AAO@ 0000000140077d88     libucrt:lcidtoname_downlevel.obj
 0002:00008d98       ??_C@_1O@JMPHMAMC@?$AAs?$AAm?$AAn?$AA?9?$AAF?$AAI@ 0000000140077d98     libucrt:lcidtoname_downlevel.obj
 0002:00008da8       ??_C@_1M@JLANABKE@?$AAa?$AAr?$AA?9?$AAS?$AAY@ 0000000140077da8     libucrt:lcidtoname_downlevel.obj
 0002:00008db8       ??_C@_1M@HPKGCFGN@?$AAe?$AAn?$AA?9?$AAB?$AAZ@ 0000000140077db8     libucrt:lcidtoname_downlevel.obj
 0002:00008dc8       ??_C@_1M@OLJCMLGM@?$AAe?$AAs?$AA?9?$AAP?$AAE@ 0000000140077dc8     libucrt:lcidtoname_downlevel.obj
 0002:00008dd8       ??_C@_1M@MKKGFKLE@?$AAa?$AAr?$AA?9?$AAJ?$AAO@ 0000000140077dd8     libucrt:lcidtoname_downlevel.obj
 0002:00008de8       ??_C@_1M@EKPGLDNI@?$AAe?$AAn?$AA?9?$AAT?$AAT@ 0000000140077de8     libucrt:lcidtoname_downlevel.obj
 0002:00008df8       ??_C@_1M@OONGHFHE@?$AAe?$AAs?$AA?9?$AAA?$AAR@ 0000000140077df8     libucrt:lcidtoname_downlevel.obj
 0002:00008e08       ??_C@_1M@OOJFGBHE@?$AAa?$AAr?$AA?9?$AAL?$AAB@ 0000000140077e08     libucrt:lcidtoname_downlevel.obj
 0002:00008e18       ??_C@_1M@GCEJHNEG@?$AAe?$AAn?$AA?9?$AAZ?$AAW@ 0000000140077e18     libucrt:lcidtoname_downlevel.obj
 0002:00008e28       ??_C@_1M@JNOCAHJI@?$AAe?$AAs?$AA?9?$AAE?$AAC@ 0000000140077e28     libucrt:lcidtoname_downlevel.obj
 0002:00008e38       ??_C@_1M@JEFHPGGB@?$AAa?$AAr?$AA?9?$AAK?$AAW@ 0000000140077e38     libucrt:lcidtoname_downlevel.obj
 0002:00008e48       ??_C@_1M@MLKIBJOJ@?$AAe?$AAn?$AA?9?$AAP?$AAH@ 0000000140077e48     libucrt:lcidtoname_downlevel.obj
 0002:00008e58       ??_C@_1M@BDNIPEND@?$AAe?$AAs?$AA?9?$AAC?$AAL@ 0000000140077e58     libucrt:lcidtoname_downlevel.obj
 0002:00008e68       ??_C@_1M@MPNMEKBD@?$AAa?$AAr?$AA?9?$AAA?$AAE@ 0000000140077e68     libucrt:lcidtoname_downlevel.obj
 0002:00008e78       ??_C@_1M@KBJALCPI@?$AAe?$AAs?$AA?9?$AAU?$AAY@ 0000000140077e78     libucrt:lcidtoname_downlevel.obj
 0002:00008e88       ??_C@_1M@LLCCOAGA@?$AAa?$AAr?$AA?9?$AAB?$AAH@ 0000000140077e88     libucrt:lcidtoname_downlevel.obj
 0002:00008e98       ??_C@_1M@PBFNCDEL@?$AAe?$AAs?$AA?9?$AAP?$AAY@ 0000000140077e98     libucrt:lcidtoname_downlevel.obj
 0002:00008ea8       ??_C@_1M@EDGINPNP@?$AAa?$AAr?$AA?9?$AAQ?$AAA@ 0000000140077ea8     libucrt:lcidtoname_downlevel.obj
 0002:00008eb8       ??_C@_1M@MKDBIIJI@?$AAe?$AAs?$AA?9?$AAB?$AAO@ 0000000140077eb8     libucrt:lcidtoname_downlevel.obj
 0002:00008ec8       ??_C@_1M@CPKKEBLD@?$AAe?$AAs?$AA?9?$AAS?$AAV@ 0000000140077ec8     libucrt:lcidtoname_downlevel.obj
 0002:00008ed8       ??_C@_1M@NDBGMMJL@?$AAe?$AAs?$AA?9?$AAH?$AAN@ 0000000140077ed8     libucrt:lcidtoname_downlevel.obj
 0002:00008ee8       ??_C@_1M@JIJIBHDP@?$AAe?$AAs?$AA?9?$AAN?$AAI@ 0000000140077ee8     libucrt:lcidtoname_downlevel.obj
 0002:00008ef8       ??_C@_1M@CGFMKEEK@?$AAe?$AAs?$AA?9?$AAP?$AAR@ 0000000140077ef8     libucrt:lcidtoname_downlevel.obj
 0002:00008f08       ??_C@_1O@ICJHKIIK@?$AAz?$AAh?$AA?9?$AAC?$AAH?$AAT@ 0000000140077f08     libucrt:lcidtoname_downlevel.obj
 0002:00008f18       ??_C@_15CLNEJCE@?$AAs?$AAr@ 0000000140077f18     libucrt:lcidtoname_downlevel.obj
 0002:0000a040       ??_C@_1M@KAHEKEIG@?$AAa?$AAf?$AA?9?$AAz?$AAa@ 0000000140079040     libucrt:lcidtoname_downlevel.obj
 0002:0000a050       ??_C@_1M@GIECOABL@?$AAa?$AAr?$AA?9?$AAa?$AAe@ 0000000140079050     libucrt:lcidtoname_downlevel.obj
 0002:0000a060       ??_C@_1M@BMLMEKGI@?$AAa?$AAr?$AA?9?$AAb?$AAh@ 0000000140079060     libucrt:lcidtoname_downlevel.obj
 0002:0000a070       ??_C@_1M@DAPFDGGB@?$AAa?$AAr?$AA?9?$AAd?$AAz@ 0000000140079070     libucrt:lcidtoname_downlevel.obj
 0002:0000a080       ??_C@_1M@FJNKGKIG@?$AAa?$AAr?$AA?9?$AAe?$AAg@ 0000000140079080     libucrt:lcidtoname_downlevel.obj
 0002:0000a090       ??_C@_1M@FLGKKCLO@?$AAa?$AAr?$AA?9?$AAi?$AAq@ 0000000140079090     libucrt:lcidtoname_downlevel.obj
 0002:0000a0a0       ??_C@_1M@GNDIPALM@?$AAa?$AAr?$AA?9?$AAj?$AAo@ 00000001400790a0     libucrt:lcidtoname_downlevel.obj
 0002:0000a0b0       ??_C@_1M@DDMJFMGJ@?$AAa?$AAr?$AA?9?$AAk?$AAw@ 00000001400790b0     libucrt:lcidtoname_downlevel.obj
 0002:0000a0c0       ??_C@_1M@EJALMLHM@?$AAa?$AAr?$AA?9?$AAl?$AAb@ 00000001400790c0     libucrt:lcidtoname_downlevel.obj
 0002:0000a0d0       ??_C@_1M@MOBDBLOC@?$AAa?$AAr?$AA?9?$AAl?$AAy@ 00000001400790d0     libucrt:lcidtoname_downlevel.obj
 0002:0000a0e0       ??_C@_1M@JAOCLHDH@?$AAa?$AAr?$AA?9?$AAm?$AAa@ 00000001400790e0     libucrt:lcidtoname_downlevel.obj
 0002:0000a0f0       ??_C@_1M@JHPMKJIE@?$AAa?$AAr?$AA?9?$AAo?$AAm@ 00000001400790f0     libucrt:lcidtoname_downlevel.obj
 0002:0000a100       ??_C@_1M@OEPGHFNH@?$AAa?$AAr?$AA?9?$AAq?$AAa@ 0000000140079100     libucrt:lcidtoname_downlevel.obj
 0002:0000a110       ??_C@_1M@KJDONENM@?$AAa?$AAr?$AA?9?$AAs?$AAa@ 0000000140079110     libucrt:lcidtoname_downlevel.obj
 0002:0000a120       ??_C@_1M@DMJDKLKM@?$AAa?$AAr?$AA?9?$AAs?$AAy@ 0000000140079120     libucrt:lcidtoname_downlevel.obj
 0002:0000a130       ??_C@_1M@OMFIPEDC@?$AAa?$AAr?$AA?9?$AAt?$AAn@ 0000000140079130     libucrt:lcidtoname_downlevel.obj
 0002:0000a140       ??_C@_1M@IHMHGAON@?$AAa?$AAr?$AA?9?$AAy?$AAe@ 0000000140079140     libucrt:lcidtoname_downlevel.obj
 0002:0000a150       ??_C@_1BG@KDCPGJGB@?$AAa?$AAz?$AA?9?$AAa?$AAz?$AA?9?$AAc?$AAy?$AAr?$AAl@ 0000000140079150     libucrt:lcidtoname_downlevel.obj
 0002:0000a170       ??_C@_1BG@IBCKDDOE@?$AAa?$AAz?$AA?9?$AAa?$AAz?$AA?9?$AAl?$AAa?$AAt?$AAn@ 0000000140079170     libucrt:lcidtoname_downlevel.obj
 0002:0000a190       ??_C@_1M@EGPFDCPD@?$AAb?$AAe?$AA?9?$AAb?$AAy@ 0000000140079190     libucrt:lcidtoname_downlevel.obj
 0002:0000a1a0       ??_C@_1M@PCMGMCGC@?$AAb?$AAg?$AA?9?$AAb?$AAg@ 00000001400791a0     libucrt:lcidtoname_downlevel.obj
 0002:0000a1b0       ??_C@_1M@BJBMFGOB@?$AAb?$AAn?$AA?9?$AAi?$AAn@ 00000001400791b0     libucrt:lcidtoname_downlevel.obj
 0002:0000a1c0       ??_C@_1BG@EAKMMACD@?$AAb?$AAs?$AA?9?$AAb?$AAa?$AA?9?$AAl?$AAa?$AAt?$AAn@ 00000001400791c0     libucrt:lcidtoname_downlevel.obj
 0002:0000a1e0       ??_C@_1M@KGADAODK@?$AAc?$AAa?$AA?9?$AAe?$AAs@ 00000001400791e0     libucrt:lcidtoname_downlevel.obj
 0002:0000a1f0       ??_C@_1M@COAJPDHI@?$AAc?$AAs?$AA?9?$AAc?$AAz@ 00000001400791f0     libucrt:lcidtoname_downlevel.obj
 0002:0000a200       ??_C@_1M@DHBHFONH@?$AAc?$AAy?$AA?9?$AAg?$AAb@ 0000000140079200     libucrt:lcidtoname_downlevel.obj
 0002:0000a210       ??_C@_1M@IMGKELGA@?$AAd?$AAa?$AA?9?$AAd?$AAk@ 0000000140079210     libucrt:lcidtoname_downlevel.obj
 0002:0000a220       ??_C@_1M@NNDGDNGA@?$AAd?$AAe?$AA?9?$AAa?$AAt@ 0000000140079220     libucrt:lcidtoname_downlevel.obj
 0002:0000a230       ??_C@_1M@IKDBHEEM@?$AAd?$AAe?$AA?9?$AAc?$AAh@ 0000000140079230     libucrt:lcidtoname_downlevel.obj
 0002:0000a240       ??_C@_1M@GFFOJMCJ@?$AAd?$AAe?$AA?9?$AAd?$AAe@ 0000000140079240     libucrt:lcidtoname_downlevel.obj
 0002:0000a250       ??_C@_1M@MDNLKBPM@?$AAd?$AAe?$AA?9?$AAl?$AAi@ 0000000140079250     libucrt:lcidtoname_downlevel.obj
 0002:0000a260       ??_C@_1M@NJBEEJNL@?$AAd?$AAe?$AA?9?$AAl?$AAu@ 0000000140079260     libucrt:lcidtoname_downlevel.obj
 0002:0000a270       ??_C@_1O@GNNELBAP@?$AAd?$AAi?$AAv?$AA?9?$AAm?$AAv@ 0000000140079270     libucrt:lcidtoname_downlevel.obj
 0002:0000a280       ??_C@_1M@EJLEOGAE@?$AAe?$AAl?$AA?9?$AAg?$AAr@ 0000000140079280     libucrt:lcidtoname_downlevel.obj
 0002:0000a290       ??_C@_1M@GMPONJN@?$AAe?$AAn?$AA?9?$AAa?$AAu@ 0000000140079290     libucrt:lcidtoname_downlevel.obj
 0002:0000a2a0       ??_C@_1M@NIDIIPGF@?$AAe?$AAn?$AA?9?$AAb?$AAz@ 00000001400792a0     libucrt:lcidtoname_downlevel.obj
 0002:0000a2b0       ??_C@_1M@JEHMIMFO@?$AAe?$AAn?$AA?9?$AAc?$AAa@ 00000001400792b0     libucrt:lcidtoname_downlevel.obj
 0002:0000a2c0       ??_C@_1M@IGMJCDLA@?$AAe?$AAn?$AA?9?$AAc?$AAb@ 00000001400792c0     libucrt:lcidtoname_downlevel.obj
 0002:0000a2d0       ??_C@_1M@BNFIGBKG@?$AAe?$AAn?$AA?9?$AAg?$AAb@ 00000001400792d0     libucrt:lcidtoname_downlevel.obj
 0002:0000a2e0       ??_C@_1M@LKIFDIGP@?$AAe?$AAn?$AA?9?$AAi?$AAe@ 00000001400792e0     libucrt:lcidtoname_downlevel.obj
 0002:0000a2f0       ??_C@_1M@PJKFGCCO@?$AAe?$AAn?$AA?9?$AAj?$AAm@ 00000001400792f0     libucrt:lcidtoname_downlevel.obj
 0002:0000a300       ??_C@_1M@KPPKEPBO@?$AAe?$AAn?$AA?9?$AAn?$AAz@ 0000000140079300     libucrt:lcidtoname_downlevel.obj
 0002:0000a310       ??_C@_1M@GMDGLDOB@?$AAe?$AAn?$AA?9?$AAp?$AAh@ 0000000140079310     libucrt:lcidtoname_downlevel.obj
 0002:0000a320       ??_C@_1M@ONGIBJNA@?$AAe?$AAn?$AA?9?$AAt?$AAt@ 0000000140079320     libucrt:lcidtoname_downlevel.obj
 0002:0000a330       ??_C@_1M@LLODPCMM@?$AAe?$AAn?$AA?9?$AAu?$AAs@ 0000000140079330     libucrt:lcidtoname_downlevel.obj
 0002:0000a340       ??_C@_1M@LAKFNPAN@?$AAe?$AAn?$AA?9?$AAz?$AAa@ 0000000140079340     libucrt:lcidtoname_downlevel.obj
 0002:0000a350       ??_C@_1M@MFNHNHEO@?$AAe?$AAn?$AA?9?$AAz?$AAw@ 0000000140079350     libucrt:lcidtoname_downlevel.obj
 0002:0000a360       ??_C@_1M@EJEINPHM@?$AAe?$AAs?$AA?9?$AAa?$AAr@ 0000000140079360     libucrt:lcidtoname_downlevel.obj
 0002:0000a370       ??_C@_1M@GNKPCCJA@?$AAe?$AAs?$AA?9?$AAb?$AAo@ 0000000140079370     libucrt:lcidtoname_downlevel.obj
